BL51 BANKED LINKER/LOCATER V6.22                                                        06/13/2018  13:54:00  PAGE 1


BL51 BANKED LINKER/LOCATER V6.22, INVOKED BY:
C:\KEIL\C51\BIN\BL51.EXE .\OBJ\STARTUP.obj, .\OBJ\UART.obj, .\OBJ\BusCtrl.obj, .\OBJ\CommandShell.obj, .\OBJ\Main.obj, .
>> \OBJ\OSD_Graph.obj, .\OBJ\OSDAction.obj, .\OBJ\OSDCtrl.obj, .\OBJ\Timer.obj, .\OBJ\TW28xx_Audio.obj, .\OBJ\TW28xx_Vid
>> eo.obj, .\OBJ\TW2835_Init.obj TO .\OBJ\TW2835 PRINT (.\OBJ\TW2835.m51) RAMSIZE (256)


MEMORY MODEL: COMPACT


INPUT MODULES INCLUDED:
  .\OBJ\STARTUP.obj (?C_STARTUP)
  .\OBJ\UART.obj (UART)
  .\OBJ\BusCtrl.obj (BUSCTRL)
  .\OBJ\CommandShell.obj (COMMANDSHELL)
  .\OBJ\Main.obj (MAIN)
  .\OBJ\OSD_Graph.obj (OSD_GRAPH)
  .\OBJ\OSDAction.obj (OSDACTION)
  .\OBJ\OSDCtrl.obj (OSDCTRL)
  .\OBJ\Timer.obj (TIMER)
  .\OBJ\TW28xx_Audio.obj (TW28XX_AUDIO)
  .\OBJ\TW28xx_Video.obj (TW28XX_VIDEO)
  .\OBJ\TW2835_Init.obj (TW2835_INIT)
  C:\KEIL\C51\LIB\C51C.LIB (?C_INIT)
  C:\KEIL\C51\LIB\C51C.LIB (?C?CLDPTR)
  C:\KEIL\C51\LIB\C51C.LIB (?C?CLDOPTR)
  C:\KEIL\C51\LIB\C51C.LIB (?C?CSTPTR)
  C:\KEIL\C51\LIB\C51C.LIB (?C?IMUL)
  C:\KEIL\C51\LIB\C51C.LIB (?C?ILDPTR)
  C:\KEIL\C51\LIB\C51C.LIB (?C?IILDOPTR)
  C:\KEIL\C51\LIB\C51C.LIB (?C?ULCMP)
  C:\KEIL\C51\LIB\C51C.LIB (?C?PLDPTR)
  C:\KEIL\C51\LIB\C51C.LIB (?C?PSTPTR)
  C:\KEIL\C51\LIB\C51C.LIB (?C?CCASE)
  C:\KEIL\C51\LIB\C51C.LIB (PRINTF)
  C:\KEIL\C51\LIB\C51C.LIB (PUTS)
  C:\KEIL\C51\LIB\C51C.LIB (SCANF)
  C:\KEIL\C51\LIB\C51C.LIB (?C?STRCMP)
  C:\KEIL\C51\LIB\C51C.LIB (STRLEN)
  C:\KEIL\C51\LIB\C51C.LIB (ATOI)
  C:\KEIL\C51\LIB\C51C.LIB (?C?IILDX)
  C:\KEIL\C51\LIB\C51C.LIB (?C?ISTPTR)
  C:\KEIL\C51\LIB\C51C.LIB (?C?LNEG)
  C:\KEIL\C51\LIB\C51C.LIB (?C?LSTPTR)
  C:\KEIL\C51\LIB\C51C.LIB (?C?PLDIDATA)
  C:\KEIL\C51\LIB\C51C.LIB (?C?PSTIDATA)
  C:\KEIL\C51\LIB\C51C.LIB (?C?PLDXDATA)
  C:\KEIL\C51\LIB\C51C.LIB (?C?PSTXDATA)
  C:\KEIL\C51\LIB\C51C.LIB (?C?PLDPDATA)
  C:\KEIL\C51\LIB\C51C.LIB (?C?PLDIPDATA)
  C:\KEIL\C51\LIB\C51C.LIB (?C?PILDPDATA)
  C:\KEIL\C51\LIB\C51C.LIB (?C?PSTPDATA)
  C:\KEIL\C51\LIB\C51C.LIB (?C?PLDCODE)
  C:\KEIL\C51\LIB\C51C.LIB (PUTCHAR)
  C:\KEIL\C51\LIB\C51C.LIB (GETCHAR)
  C:\KEIL\C51\LIB\C51C.LIB (UNGETC)
  C:\KEIL\C51\LIB\C51C.LIB (ISDIGIT)
  C:\KEIL\C51\LIB\C51C.LIB (ISSPACE)
  C:\KEIL\C51\LIB\C51C.LIB (?C?LSTIDATA)
BL51 BANKED LINKER/LOCATER V6.22                                                      06/13/2018  13:54:00  PAGE 2


  C:\KEIL\C51\LIB\C51C.LIB (?C?LSTXDATA)
  C:\KEIL\C51\LIB\C51C.LIB (?C?LSTPDATA)
  C:\KEIL\C51\LIB\C51C.LIB (_GETKEY)


LINK MAP OF MODULE:  .\OBJ\TW2835 (?C_STARTUP)


            TYPE    BASE      LENGTH    RELOCATION   SEGMENT NAME
            -----------------------------------------------------

            * * * * * * *   D A T A   M E M O R Y   * * * * * * *
            REG     0000H     0008H     ABSOLUTE     "REG BANK 0"
            REG     0008H     0008H     ABSOLUTE     "REG BANK 1"
            DATA    0010H     0006H     UNIT         ?DT?TIMER
            DATA    0016H     0002H     UNIT         ?DT?OSDCTRL
                    0018H     0008H                  *** GAP ***
            DATA    0020H     0001H     BIT_ADDR     ?BA?MAIN
            DATA    0021H     0001H     BIT_ADDR     ?BA?OSDACTION
            DATA    0022H     0001H     BIT_ADDR     ?BA?OSDCTRL
            BIT     0023H.0   0001H.1   UNIT         _BIT_GROUP_
            BIT     0024H.1   0000H.1   UNIT         ?BI?MAIN
            BIT     0024H.2   0000H.1   UNIT         ?BI?GETCHAR
                    0024H.3   0000H.5                *** GAP ***
            DATA    0025H     0011H     UNIT         _DATA_GROUP_
            IDATA   0036H     0001H     UNIT         ?STACK

            * * * * * * *  X D A T A   M E M O R Y  * * * * * * *
            XDATA   0000H     0052H     INPAGE       ?PD?UART
            XDATA   0052H     0019H     INPAGE       ?PD?COMMANDSHELL
            XDATA   006BH     002DH     INPAGE       ?PD?MAIN
            XDATA   0098H     0001H     INPAGE       ?PD?OSD_GRAPH
            XDATA   0099H     0001H     INPAGE       ?PD?OSDACTION
            XDATA   009AH     0001H     INPAGE       ?PD?GETCHAR
            XDATA   009BH     003DH     INPAGE       _PDATA_GROUP_
            XDATA   00D8H     0001H     UNIT         ?XD?COMMANDSHELL

            * * * * * * *   C O D E   M E M O R Y   * * * * * * *
            CODE    0000H     0003H     ABSOLUTE     
            CODE    0003H     0008H     UNIT         ?PR?_RS_TX?UART
            CODE    000BH     0003H     ABSOLUTE     
            CODE    000EH     0015H     UNIT         ?PR?_STRLEN?STRLEN
            CODE    0023H     0003H     ABSOLUTE     
            CODE    0026H     24E6H     UNIT         ?CO?OSD_GRAPH
            CODE    250CH     0EA0H     UNIT         ?CO?OSDCTRL
            CODE    33ACH     0453H     UNIT         ?CO?TW28XX_VIDEO
            CODE    37FFH     042CH     UNIT         ?PR?_PCT_SHOWMIRRORICON?OSDACTION
            CODE    3C2BH     0423H     UNIT         ?PR?_PCT_SHOWSPEAKICON?OSDACTION
            CODE    404EH     0406H     UNIT         ?C?LIB_CODE
            CODE    4454H     0400H     UNIT         ?CO?TW2835_INIT
            CODE    4854H     0367H     UNIT         ?PR?_PCT_SETVIDEOHDELAY?TW28XX_VIDEO
            CODE    4BBBH     035BH     UNIT         ?PR?PRINTF?PRINTF
            CODE    4F16H     0358H     UNIT         ?PR?_PCT_OSD_ACTIONPTHX?OSDACTION
            CODE    526EH     0316H     UNIT         ?PR?SCANF?SCANF
            CODE    5584H     02DFH     UNIT         ?CO?COMMANDSHELL
            CODE    5863H     028CH     UNIT         ?PR?_PCT_RUNCOMMSHELL?COMMANDSHELL
            CODE    5AEFH     028CH     UNIT         ?PR?_PCT_SHOWINDICATEICON?OSDACTION
BL51 BANKED LINKER/LOCATER V6.22                                                      06/13/2018  13:54:00  PAGE 3


            CODE    5D7BH     0210H     UNIT         ?PR?_MONIVIDEOMIXATTR?COMMANDSHELL
            CODE    5F8BH     020BH     UNIT         ?PR?COMMANDSHELL
            CODE    6196H     01B8H     UNIT         ?PR?PCT_AUDIOREGLIST?TW28XX_AUDIO
            CODE    634EH     0195H     UNIT         ?PR?_PCT_SETXVIDEOMIXING?TW28XX_VIDEO
            CODE    64E3H     018AH     UNIT         ?PR?_MONIAUDIOMIXING?COMMANDSHELL
            CODE    666DH     016FH     UNIT         ?PR?_PCT_OSD16X16GRAPHX?OSD_GRAPH
            CODE    67DCH     0169H     UNIT         ?PR?_PCT_WRITEOSDDATABUFFERX?OSDCTRL
            CODE    6945H     0156H     UNIT         ?PR?OSDCTRL
            CODE    6A9BH     013DH     UNIT         ?PR?_MONIAUDIOGAIN?COMMANDSHELL
            CODE    6BD8H     0136H     UNIT         ?PR?_MONIHSCOMM?COMMANDSHELL
            CODE    6D0EH     012FH     UNIT         ?PR?PCT_INITOSDCOLOR?OSDCTRL
            CODE    6E3DH     0120H     UNIT         ?PR?_PCT_RECOMPENSEYHDELAY?TW28XX_VIDEO
            CODE    6F5DH     011DH     UNIT         ?PR?_PCT_WRITEOSDDATABUFFERY?OSDCTRL
            CODE    707AH     0117H     UNIT         ?PR?_MONISETVIDEOFORMAT?COMMANDSHELL
            CODE    7191H     0104H     UNIT         ?PR?TW28XX_VIDEO
            CODE    7295H     00F7H     UNIT         ?PR?_PCT_WRITEOSDFNTX?OSDCTRL
            CODE    738CH     00E2H     UNIT         ?PR?_PCT_WRITEOSDFNTY?OSDCTRL
            CODE    746EH     00D0H     UNIT         ?PR?_ATOI?ATOI
            CODE    753EH     00A1H     UNIT         ?PR?_PCT_CLEARWORDSPATHX?OSDCTRL
            CODE    75DFH     009EH     UNIT         ?PR?_PCT_FULLCOLORONOSD?OSDCTRL
            CODE    767DH     0097H     UNIT         ?PR?_PCT_SETCHANELSCALE?TW28XX_VIDEO
            CODE    7714H     0096H     UNIT         ?PR?OSDACTION
            CODE    77AAH     008CH     UNIT         ?C_C51STARTUP
            CODE    7836H     0075H     UNIT         ?PR?MAIN?MAIN
            CODE    78ABH     0068H     UNIT         ?PR?_PCT_GETFIRSTSTR?COMMANDSHELL
            CODE    7913H     0064H     UNIT         ?PR?PCT_TW2835_INITIAL?TW2835_INIT
            CODE    7977H     0063H     UNIT         ?PR?PCT_CHECKSYSTEM?COMMANDSHELL
            CODE    79DAH     0062H     UNIT         ?PR?_PCT_CHANGESYSTEMTYPE?TW2835_INIT
            CODE    7A3CH     0061H     UNIT         ?PR?_PCT_AUDIOMIXCTRL?TW28XX_AUDIO
            CODE    7A9DH     0060H     UNIT         ?PR?_PCT_SHOWOSDSTRING?OSDCTRL
            CODE    7AFDH     005FH     UNIT         ?PR?_PCT_SHOWGRAPHSTRING?OSD_GRAPH
            CODE    7B5CH     005DH     UNIT         ?PR?_MONISHOWSODSTR?COMMANDSHELL
            CODE    7BB9H     005BH     UNIT         ?PR?_PCT_AUDIOGAINCTRL?TW28XX_AUDIO
            CODE    7C14H     0057H     UNIT         ?PR?_PCT_WRITESTABLE?BUSCTRL
            CODE    7C6BH     0056H     UNIT         ?PR?_MONIVIDEOMIXWIN?COMMANDSHELL
            CODE    7CC1H     0054H     UNIT         ?PR?TIMER0_INTERRUPT?TIMER
            CODE    7D15H     0052H     UNIT         ?PR?COMMANDSHELL?MAIN
            CODE    7D67H     0050H     UNIT         ?PR?_PCT_SETOSDCOLOR?OSDCTRL
            CODE    7DB7H     004CH     UNIT         ?PR?_MONIWRITEASICBYTE?COMMANDSHELL
            CODE    7E03H     004AH     UNIT         ?PR?_PCT_WRITEASICTABLE?BUSCTRL
            CODE    7E4DH     004AH     UNIT         ?PR?PCT_INITIALOSD?OSDACTION
            CODE    7E97H     0049H     UNIT         ?PR?MONIREGISTERDUMP?COMMANDSHELL
            CODE    7EE0H     0047H     UNIT         ?PR?_MONIREADASICBYTE?COMMANDSHELL
            CODE    7F27H     0047H     UNIT         ?PR?_PCT_DETECTVIDEOFORMAT?TW28XX_VIDEO
            CODE    7F6EH     0046H     UNIT         ?PR?_WAIT_MS?MAIN
            CODE    7FB4H     0046H     UNIT         ?PR?PCT_SHOWMODEICON?OSDACTION
            CODE    7FFAH     0044H     UNIT         ?PR?PCT_INITIALTW2835?TW2835_INIT
            CODE    803EH     0043H     UNIT         ?PR?_MONIREADPAGEBUFFER?COMMANDSHELL
            CODE    8081H     0041H     UNIT         ?PR?_PCT_CHECKVMIXTYPE?COMMANDSHELL
            CODE    80C2H     0041H     UNIT         ?PR?TW28XX_AUDIO
            CODE    8103H     0040H     UNIT         ?PR?OSD_GRAPH
            CODE    8143H     0040H     UNIT         ?CO?TW28XX_AUDIO
            CODE    8183H     003EH     UNIT         ?PR?_PCT_STRTOCOMMCODE?COMMANDSHELL
            CODE    81C1H     003BH     UNIT         ?PR?PCT_AUDIOACTIONFORHS?COMMANDSHELL
            CODE    81FCH     0038H     UNIT         ?PR?_PCT_WINATTRCTRLY?TW28XX_VIDEO
            CODE    8234H     0038H     UNIT         ?PR?_PCT_WINATTRCLEAR?TW28XX_VIDEO
            CODE    826CH     0036H     UNIT         ?PR?_PUTSP?MAIN
BL51 BANKED LINKER/LOCATER V6.22                                                      06/13/2018  13:54:00  PAGE 4


            CODE    82A2H     0035H     UNIT         ?PR?PCT_GETVIDEOSIGNALSTATUS?OSDACTION
            CODE    82D7H     0035H     UNIT         ?PR?_PCT_ENSHOWOSDPAGE?OSDCTRL
            CODE    830CH     0033H     UNIT         ?PR?_PCT_READASICBYTE?BUSCTRL
            CODE    833FH     0033H     UNIT         ?PR?_MONIREADONEBUFFER?COMMANDSHELL
            CODE    8372H     0033H     UNIT         ?PR?_MONIWRITEONEBUFFER?COMMANDSHELL
            CODE    83A5H     0033H     UNIT         ?PR?MONIVIDEOAUTODETECT?COMMANDSHELL
            CODE    83D8H     0033H     UNIT         ?PR?_PCT_AUDIOMIXMUTE?TW28XX_AUDIO
            CODE    840BH     0031H     UNIT         ?PR?_PCT_WINATTRCTRL?TW28XX_VIDEO
            CODE    843CH     002DH     UNIT         ?PR?_PCT_WRITEASICBYTE?BUSCTRL
            CODE    8469H     002AH     UNIT         ?PR?MONIHSCOMMVERSION?COMMANDSHELL
            CODE    8493H     002AH     UNIT         ?PR?_CHKSTARTCOMMSHELL?MAIN
            CODE    84BDH     002AH     UNIT         ?PR?_PUTS?PUTS
            CODE    84E7H     0028H     UNIT         ?PR?BUSCTRL
            CODE    850FH     0028H     UNIT         ?PR?_PCT_AUDIOSELLIVE?TW28XX_AUDIO
            CODE    8537H     0028H     UNIT         ?PR?_PCT_SETVIDEOFORMAT?TW28XX_VIDEO
            CODE    855FH     0027H     UNIT         ?PR?RS_INTERRUPT?UART
            CODE    8586H     0027H     UNIT         ?PR?PUTCHAR?PUTCHAR
            CODE    85ADH     0025H     UNIT         ?PR?PCT_OSDACTIONFORHS?OSDACTION
            CODE    85D2H     0025H     UNIT         ?CO?OSDACTION
            CODE    85F7H     0023H     UNIT         ?PR?INITIALMPU?MAIN
            CODE    861AH     001DH     UNIT         ?PR?_PCT_SETOSDDRAWPAGE?OSDCTRL
            CODE    8637H     001CH     UNIT         ?PR?_PCT_DISSHOWOSDPAGE?OSDCTRL
            CODE    8653H     001AH     UNIT         ?PR?RS_RX?UART
            CODE    866DH     0019H     UNIT         ?PR?_PCT_CLEAROSDPAGEX?OSDCTRL
            CODE    8686H     0018H     UNIT         ?PR?TW2835_INIT
            CODE    869EH     0017H     UNIT         ?CO?MAIN
            CODE    86B5H     0016H     UNIT         ?PR?_MONIHSCOMMSJMODE?COMMANDSHELL
            CODE    86CBH     0016H     UNIT         ?PR?RESETCOMMSELL?MAIN
            CODE    86E1H     0016H     UNIT         ?PR?INITIALTIMER0?TIMER
            CODE    86F7H     0014H     UNIT         ?PR?_MONIAUDIOLIVE?COMMANDSHELL
            CODE    870BH     0014H     UNIT         ?PR?_PCT_SETYVIDEOMIXING?TW28XX_VIDEO
            CODE    871FH     0014H     UNIT         ?PR?_ISSPACE?ISSPACE
            CODE    8733H     0013H     UNIT         ?PR?PCT_TW2835RESETN?TW2835_INIT
            CODE    8746H     0013H     UNIT         ?PR?GETCHAR?GETCHAR
            CODE    8759H     0012H     UNIT         ?PR?_MONIYVIDEOMIX?COMMANDSHELL
            CODE    876BH     0010H     UNIT         ?PR?INITIALUART?UART
            CODE    877BH     000FH     UNIT         ?PR?RS_RXREADY?UART
            CODE    878AH     000FH     UNIT         ?PR?PCT_SENDACK?COMMANDSHELL
            CODE    8799H     000FH     UNIT         ?PR?MONIAUDIOMUTE?COMMANDSHELL
            CODE    87A8H     000FH     UNIT         ?PR?_ISDIGIT?ISDIGIT
            CODE    87B7H     000BH     UNIT         ?PR?INITIALCOMMSHELL?MAIN
            CODE    87C2H     000AH     UNIT         ?PR?_GETKEY?_GETKEY
            CODE    87CCH     0009H     UNIT         ?PR?NEWLINE?MAIN
            CODE    87D5H     0009H     UNIT         ?PR?_PCT_FLASHOSDCTRL?MAIN
            CODE    87DEH     0008H     UNIT         ?C_INITSEG
            CODE    87E6H     0007H     UNIT         ?PR?PCT_ENFALSHVLOSS?OSDACTION
            CODE    87EDH     0007H     UNIT         ?PR?GETCHAR?UNGETCHAR
            CODE    87F4H     0005H     UNIT         ?PR?MONIHSCOMMDISSCROLL?COMMANDSHELL
            CODE    87F9H     0005H     UNIT         ?PR?PCT_CLEARGRAPHATTR?OSD_GRAPH
            CODE    87FEH     0003H     UNIT         ?PR?_PCT_PRESETFOREGROUNDCOLOR?OSDCTRL
            CODE    8801H     0003H     UNIT         ?PR?_PCT_PRESETBACKGROUNDCOLOR?OSDCTRL
            CODE    8804H     0001H     UNIT         ?PR?PTC_SWITCHTOI2CMODE?BUSCTRL



OVERLAY MAP OF MODULE:   .\OBJ\TW2835 (?C_STARTUP)

BL51 BANKED LINKER/LOCATER V6.22                                                      06/13/2018  13:54:00  PAGE 5



SEGMENT                                            BIT_GROUP          DATA_GROUP          PDATA_GROUP
  +--> CALLED SEGMENT                           START    LENGTH     START    LENGTH     START    LENGTH
-------------------------------------------------------------------------------------------------------
?C_C51STARTUP                                   -----    -----      -----    -----      -----    -----
  +--> ?PR?MAIN?MAIN
  +--> ?C_INITSEG

?PR?MAIN?MAIN                                   -----    -----      -----    -----      009BH    0003H
  +--> ?PR?INITIALMPU?MAIN
  +--> ?PR?INITIALCOMMSHELL?MAIN
  +--> ?PR?PTC_SWITCHTOI2CMODE?BUSCTRL
  +--> ?PR?PCT_INITIALTW2835?TW2835_INIT
  +--> ?PR?RESETCOMMSELL?MAIN
  +--> ?PR?COMMANDSHELL?MAIN
  +--> ?PR?_PCT_RUNCOMMSHELL?COMMANDSHELL
  +--> ?PR?PCT_CHECKSYSTEM?COMMANDSHELL
  +--> ?PR?RS_RXREADY?UART
  +--> ?PR?PCT_GETVIDEOSIGNALSTATUS?OSDACTION

?PR?INITIALMPU?MAIN                             -----    -----      -----    -----      -----    -----
  +--> ?PR?INITIALUART?UART
  +--> ?PR?INITIALTIMER0?TIMER

?PR?PCT_INITIALTW2835?TW2835_INIT               -----    -----      -----    -----      -----    -----
  +--> ?PR?PCT_TW2835RESETN?TW2835_INIT
  +--> ?PR?_PCT_READASICBYTE?BUSCTRL
  +--> ?PR?_PCT_DETECTVIDEOFORMAT?TW28XX_VIDEO
  +--> ?PR?_WAIT_MS?MAIN
  +--> ?PR?PCT_TW2835_INITIAL?TW2835_INIT
  +--> ?PR?PCT_INITIALOSD?OSDACTION

?PR?_PCT_READASICBYTE?BUSCTRL                   -----    -----      -----    -----      -----    -----
  +--> ?PR?BUSCTRL

?PR?_PCT_DETECTVIDEOFORMAT?TW28XX_VIDEO         -----    -----      -----    -----      00A4H    0002H
  +--> ?PR?_PCT_READASICBYTE?BUSCTRL

?PR?_WAIT_MS?MAIN                               -----    -----      -----    -----      00A4H    0004H

?PR?PCT_TW2835_INITIAL?TW2835_INIT              -----    -----      -----    -----      00A4H    0002H
  +--> ?PR?TW2835_INIT
  +--> ?CO?TW2835_INIT
  +--> ?PR?_PCT_WRITEASICTABLE?BUSCTRL

?PR?TW2835_INIT                                 -----    -----      -----    -----      -----    -----
  +--> ?CO?TW2835_INIT

?PR?_PCT_WRITEASICTABLE?BUSCTRL                 -----    -----      -----    -----      00A6H    0007H
  +--> ?PR?BUSCTRL

?PR?PCT_INITIALOSD?OSDACTION                    -----    -----      0027H    0001H      -----    -----
  +--> ?PR?PCT_INITOSDCOLOR?OSDCTRL
  +--> ?PR?PCT_CLEARGRAPHATTR?OSD_GRAPH
  +--> ?PR?_PCT_PRESETFOREGROUNDCOLOR?OSDCTRL
  +--> ?PR?_PCT_PRESETBACKGROUNDCOLOR?OSDCTRL
  +--> ?PR?_PCT_ENSHOWOSDPAGE?OSDCTRL
BL51 BANKED LINKER/LOCATER V6.22                                                      06/13/2018  13:54:00  PAGE 6


  +--> ?PR?_PCT_SETOSDDRAWPAGE?OSDCTRL
  +--> ?PR?_PCT_FULLCOLORONOSD?OSDCTRL

?PR?PCT_INITOSDCOLOR?OSDCTRL                    -----    -----      -----    -----      -----    -----
  +--> ?PR?_PCT_WRITEASICBYTE?BUSCTRL
  +--> ?PR?OSDCTRL
  +--> ?PR?_PCT_SETOSDCOLOR?OSDCTRL

?PR?_PCT_WRITEASICBYTE?BUSCTRL                  -----    -----      -----    -----      00D4H    0004H
  +--> ?PR?BUSCTRL

?PR?OSDCTRL                                     -----    -----      -----    -----      -----    -----
  +--> ?CO?OSDCTRL

?PR?_PCT_SETOSDCOLOR?OSDCTRL                    -----    -----      -----    -----      00A4H    0005H
  +--> ?PR?_PCT_WRITEASICBYTE?BUSCTRL

?PR?_PCT_ENSHOWOSDPAGE?OSDCTRL                  -----    -----      -----    -----      00AAH    0001H
  +--> ?PR?OSDCTRL
  +--> ?PR?_PCT_WRITEASICBYTE?BUSCTRL
  +--> ?PR?_PCT_READASICBYTE?BUSCTRL

?PR?_PCT_SETOSDDRAWPAGE?OSDCTRL                 -----    -----      -----    -----      00AAH    0001H
  +--> ?PR?OSDCTRL
  +--> ?PR?_PCT_READASICBYTE?BUSCTRL
  +--> ?PR?_PCT_WRITEASICBYTE?BUSCTRL

?PR?_PCT_FULLCOLORONOSD?OSDCTRL                 -----    -----      -----    -----      00A4H    0006H
  +--> ?PR?OSDCTRL
  +--> ?PR?_PCT_WRITEASICBYTE?BUSCTRL
  +--> ?PR?_PCT_READASICBYTE?BUSCTRL

?PR?RESETCOMMSELL?MAIN                          -----    -----      -----    -----      -----    -----
  +--> ?CO?MAIN
  +--> ?PR?_PUTSP?MAIN

?PR?_PUTSP?MAIN                                 -----    -----      0025H    0001H      009EH    0003H
  +--> ?PR?_RS_TX?UART

?PR?COMMANDSHELL?MAIN                           -----    -----      0025H    0001H      -----    -----
  +--> ?PR?RS_RXREADY?UART
  +--> ?PR?RS_RX?UART
  +--> ?PR?_RS_TX?UART
  +--> ?PR?_CHKSTARTCOMMSHELL?MAIN
  +--> ?PR?NEWLINE?MAIN

?PR?_CHKSTARTCOMMSHELL?MAIN                     -----    -----      -----    -----      009EH    0003H
  +--> ?CO?MAIN

?PR?NEWLINE?MAIN                                -----    -----      -----    -----      -----    -----
  +--> ?CO?MAIN
  +--> ?PR?_PUTS?PUTS

?PR?_PUTS?PUTS                                  -----    -----      -----    -----      -----    -----
  +--> ?PR?PUTCHAR?PUTCHAR

?PR?_PCT_RUNCOMMSHELL?COMMANDSHELL              -----    -----      0025H    0002H      009EH    0006H
BL51 BANKED LINKER/LOCATER V6.22                                                      06/13/2018  13:54:00  PAGE 7


  +--> ?PR?COMMANDSHELL
  +--> ?PR?_PCT_GETFIRSTSTR?COMMANDSHELL
  +--> ?PR?_PCT_STRTOCOMMCODE?COMMANDSHELL
  +--> ?CO?COMMANDSHELL
  +--> ?PR?_MONIREADPAGEBUFFER?COMMANDSHELL
  +--> ?PR?_MONIREADONEBUFFER?COMMANDSHELL
  +--> ?PR?_MONIWRITEONEBUFFER?COMMANDSHELL
  +--> ?PR?_MONIWRITEASICBYTE?COMMANDSHELL
  +--> ?PR?_MONIREADASICBYTE?COMMANDSHELL
  +--> ?PR?_MONIAUDIOMIXING?COMMANDSHELL
  +--> ?PR?MONIAUDIOMUTE?COMMANDSHELL
  +--> ?PR?PCT_AUDIOREGLIST?TW28XX_AUDIO
  +--> ?PR?_MONIAUDIOGAIN?COMMANDSHELL
  +--> ?PR?_MONIAUDIOLIVE?COMMANDSHELL
  +--> ?PR?MONIREGISTERDUMP?COMMANDSHELL
  +--> ?PR?_PCT_WINATTRCLEAR?TW28XX_VIDEO
  +--> ?PR?_MONIVIDEOMIXWIN?COMMANDSHELL
  +--> ?PR?PCT_SENDACK?COMMANDSHELL
  +--> ?PR?_MONIVIDEOMIXATTR?COMMANDSHELL
  +--> ?PR?_MONIYVIDEOMIX?COMMANDSHELL
  +--> ?PR?PCT_INITIALTW2835?TW2835_INIT
  +--> ?PR?MONIVIDEOAUTODETECT?COMMANDSHELL
  +--> ?PR?_MONISETVIDEOFORMAT?COMMANDSHELL
  +--> ?PR?_MONISHOWSODSTR?COMMANDSHELL
  +--> ?PR?_MONIHSCOMM?COMMANDSHELL
  +--> ?PR?PCT_AUDIOACTIONFORHS?COMMANDSHELL
  +--> ?PR?PCT_OSDACTIONFORHS?OSDACTION
  +--> ?PR?_PCT_FLASHOSDCTRL?MAIN
  +--> ?PR?_MONIHSCOMMSJMODE?COMMANDSHELL
  +--> ?PR?MONIHSCOMMDISSCROLL?COMMANDSHELL
  +--> ?PR?MONIHSCOMMVERSION?COMMANDSHELL

?PR?COMMANDSHELL                                -----    -----      -----    -----      -----    -----
  +--> ?CO?COMMANDSHELL

?PR?_PCT_GETFIRSTSTR?COMMANDSHELL               -----    -----      -----    -----      00AAH    0006H
  +--> ?PR?COMMANDSHELL

?PR?_PCT_STRTOCOMMCODE?COMMANDSHELL             -----    -----      0031H    0002H      00AAH    0003H
  +--> ?PR?COMMANDSHELL

?PR?_MONIREADPAGEBUFFER?COMMANDSHELL            -----    -----      0027H    0003H      -----    -----
  +--> ?PR?COMMANDSHELL
  +--> ?CO?COMMANDSHELL
  +--> ?PR?SCANF?SCANF
  +--> ?PR?_PCT_READASICBYTE?BUSCTRL
  +--> ?PR?PRINTF?PRINTF

?PR?SCANF?SCANF                                 0023H.0  0000H.6    0031H    0005H      00AAH    0015H
  +--> ?PR?GETCHAR?UNGETCHAR
  +--> ?PR?_ISSPACE?ISSPACE
  +--> ?PR?GETCHAR?GETCHAR

?PR?GETCHAR?GETCHAR                             -----    -----      -----    -----      -----    -----
  +--> ?PR?_GETKEY?_GETKEY
  +--> ?PR?PUTCHAR?PUTCHAR

BL51 BANKED LINKER/LOCATER V6.22                                                      06/13/2018  13:54:00  PAGE 8


?PR?PRINTF?PRINTF                               0023H.0  0001H.1    002BH    0005H      00A4H    000FH
  +--> ?PR?PUTCHAR?PUTCHAR

?PR?_MONIREADONEBUFFER?COMMANDSHELL             -----    -----      0027H    0002H      -----    -----
  +--> ?PR?COMMANDSHELL
  +--> ?CO?COMMANDSHELL
  +--> ?PR?SCANF?SCANF
  +--> ?PR?_PCT_READASICBYTE?BUSCTRL
  +--> ?PR?PRINTF?PRINTF

?PR?_MONIWRITEONEBUFFER?COMMANDSHELL            -----    -----      0027H    0003H      -----    -----
  +--> ?PR?COMMANDSHELL
  +--> ?CO?COMMANDSHELL
  +--> ?PR?SCANF?SCANF
  +--> ?PR?_PCT_WRITEASICBYTE?BUSCTRL

?PR?_MONIWRITEASICBYTE?COMMANDSHELL             -----    -----      0027H    0004H      -----    -----
  +--> ?PR?COMMANDSHELL
  +--> ?CO?COMMANDSHELL
  +--> ?PR?SCANF?SCANF
  +--> ?PR?_PCT_WRITEASICBYTE?BUSCTRL

?PR?_MONIREADASICBYTE?COMMANDSHELL              -----    -----      0027H    0004H      -----    -----
  +--> ?PR?COMMANDSHELL
  +--> ?CO?COMMANDSHELL
  +--> ?PR?SCANF?SCANF
  +--> ?PR?_PCT_READASICBYTE?BUSCTRL
  +--> ?PR?PRINTF?PRINTF

?PR?_MONIAUDIOMIXING?COMMANDSHELL               -----    -----      0027H    000AH      00A4H    0006H
  +--> ?PR?COMMANDSHELL
  +--> ?PR?_PCT_GETFIRSTSTR?COMMANDSHELL
  +--> ?PR?_PCT_AUDIOMIXMUTE?TW28XX_AUDIO
  +--> ?PR?_ATOI?ATOI
  +--> ?PR?SCANF?SCANF
  +--> ?PR?_PCT_AUDIOMIXCTRL?TW28XX_AUDIO
  +--> ?CO?COMMANDSHELL

?PR?_PCT_AUDIOMIXMUTE?TW28XX_AUDIO              -----    -----      0031H    0001H      00AAH    0002H
  +--> ?PR?_PCT_READASICBYTE?BUSCTRL
  +--> ?PR?_PCT_WRITEASICBYTE?BUSCTRL

?PR?_ATOI?ATOI                                  0023H.0  0000H.1    -----    -----      00AAH    0005H
  +--> ?PR?_ISSPACE?ISSPACE
  +--> ?PR?_ISDIGIT?ISDIGIT

?PR?_PCT_AUDIOMIXCTRL?TW28XX_AUDIO              -----    -----      -----    -----      00AAH    0004H
  +--> ?PR?TW28XX_AUDIO
  +--> ?PR?_PCT_READASICBYTE?BUSCTRL
  +--> ?CO?TW28XX_AUDIO
  +--> ?PR?_PCT_WRITEASICBYTE?BUSCTRL
  +--> ?PR?_PCT_AUDIOSELLIVE?TW28XX_AUDIO

?PR?TW28XX_AUDIO                                -----    -----      -----    -----      -----    -----
  +--> ?CO?TW28XX_AUDIO

?PR?_PCT_AUDIOSELLIVE?TW28XX_AUDIO              -----    -----      -----    -----      00AEH    0001H
BL51 BANKED LINKER/LOCATER V6.22                                                      06/13/2018  13:54:00  PAGE 9


  +--> ?PR?_PCT_WRITEASICBYTE?BUSCTRL

?PR?MONIAUDIOMUTE?COMMANDSHELL                  -----    -----      -----    -----      -----    -----
  +--> ?PR?_PCT_AUDIOMIXMUTE?TW28XX_AUDIO
  +--> ?PR?_PCT_AUDIOSELLIVE?TW28XX_AUDIO

?PR?PCT_AUDIOREGLIST?TW28XX_AUDIO               -----    -----      -----    -----      -----    -----
  +--> ?PR?PRINTF?PRINTF
  +--> ?PR?_PCT_READASICBYTE?BUSCTRL
  +--> ?CO?TW28XX_AUDIO

?PR?_MONIAUDIOGAIN?COMMANDSHELL                 -----    -----      0027H    000AH      00A4H    0006H
  +--> ?PR?COMMANDSHELL
  +--> ?PR?_PCT_GETFIRSTSTR?COMMANDSHELL
  +--> ?PR?_ATOI?ATOI
  +--> ?PR?SCANF?SCANF
  +--> ?CO?COMMANDSHELL
  +--> ?PR?_PCT_AUDIOGAINCTRL?TW28XX_AUDIO

?PR?_PCT_AUDIOGAINCTRL?TW28XX_AUDIO             -----    -----      -----    -----      00AAH    0003H
  +--> ?PR?TW28XX_AUDIO
  +--> ?PR?_PCT_READASICBYTE?BUSCTRL
  +--> ?CO?TW28XX_AUDIO
  +--> ?PR?_PCT_WRITEASICBYTE?BUSCTRL

?PR?_MONIAUDIOLIVE?COMMANDSHELL                 -----    -----      0027H    0001H      -----    -----
  +--> ?PR?COMMANDSHELL
  +--> ?PR?SCANF?SCANF
  +--> ?PR?_PCT_AUDIOSELLIVE?TW28XX_AUDIO

?PR?MONIREGISTERDUMP?COMMANDSHELL               -----    -----      0027H    0002H      -----    -----
  +--> ?CO?COMMANDSHELL
  +--> ?PR?PRINTF?PRINTF
  +--> ?PR?_PCT_READASICBYTE?BUSCTRL

?PR?_PCT_WINATTRCLEAR?TW28XX_VIDEO              -----    -----      -----    -----      00A4H    0003H
  +--> ?PR?TW28XX_VIDEO
  +--> ?PR?_PCT_READASICBYTE?BUSCTRL
  +--> ?PR?_PCT_WRITEASICBYTE?BUSCTRL

?PR?TW28XX_VIDEO                                -----    -----      -----    -----      -----    -----
  +--> ?CO?TW28XX_VIDEO

?PR?_MONIVIDEOMIXWIN?COMMANDSHELL               -----    -----      0027H    0002H      -----    -----
  +--> ?PR?COMMANDSHELL
  +--> ?CO?COMMANDSHELL
  +--> ?PR?SCANF?SCANF
  +--> ?PR?_PCT_SETXVIDEOMIXING?TW28XX_VIDEO

?PR?_PCT_SETXVIDEOMIXING?TW28XX_VIDEO           -----    -----      -----    -----      00A4H    0007H
  +--> ?PR?TW28XX_VIDEO
  +--> ?PR?_PCT_WRITEASICBYTE?BUSCTRL
  +--> ?CO?TW28XX_VIDEO
  +--> ?PR?_PCT_SETCHANELSCALE?TW28XX_VIDEO
  +--> ?PR?_PCT_WRITESTABLE?BUSCTRL

?PR?_PCT_SETCHANELSCALE?TW28XX_VIDEO            -----    -----      -----    -----      00ABH    0008H
BL51 BANKED LINKER/LOCATER V6.22                                                      06/13/2018  13:54:00  PAGE 10


  +--> ?PR?TW28XX_VIDEO
  +--> ?CO?TW28XX_VIDEO
  +--> ?PR?_PCT_WRITEASICBYTE?BUSCTRL

?PR?_PCT_WRITESTABLE?BUSCTRL                    -----    -----      -----    -----      00ABH    0003H
  +--> ?PR?BUSCTRL
  +--> ?PR?_PCT_READASICBYTE?BUSCTRL
  +--> ?PR?_PCT_WRITEASICBYTE?BUSCTRL

?PR?PCT_SENDACK?COMMANDSHELL                    -----    -----      -----    -----      -----    -----
  +--> ?PR?_RS_TX?UART

?PR?_MONIVIDEOMIXATTR?COMMANDSHELL              -----    -----      0027H    000AH      00A4H    0006H
  +--> ?PR?COMMANDSHELL
  +--> ?PR?_ATOI?ATOI
  +--> ?PR?_PCT_STRTOCOMMCODE?COMMANDSHELL
  +--> ?CO?COMMANDSHELL
  +--> ?PR?_PCT_GETFIRSTSTR?COMMANDSHELL
  +--> ?PR?_PCT_WINATTRCTRL?TW28XX_VIDEO

?PR?_PCT_WINATTRCTRL?TW28XX_VIDEO               -----    -----      -----    -----      00AAH    0003H
  +--> ?PR?TW28XX_VIDEO
  +--> ?PR?_PCT_READASICBYTE?BUSCTRL
  +--> ?PR?_PCT_WRITEASICBYTE?BUSCTRL

?PR?_MONIYVIDEOMIX?COMMANDSHELL                 -----    -----      0027H    0001H      -----    -----
  +--> ?PR?COMMANDSHELL
  +--> ?PR?SCANF?SCANF
  +--> ?PR?_PCT_SETYVIDEOMIXING?TW28XX_VIDEO

?PR?_PCT_SETYVIDEOMIXING?TW28XX_VIDEO           -----    -----      -----    -----      -----    -----
  +--> ?CO?TW28XX_VIDEO
  +--> ?PR?_PCT_WRITESTABLE?BUSCTRL

?PR?MONIVIDEOAUTODETECT?COMMANDSHELL            -----    -----      -----    -----      -----    -----
  +--> ?PR?_PCT_DETECTVIDEOFORMAT?TW28XX_VIDEO
  +--> ?CO?COMMANDSHELL
  +--> ?PR?PRINTF?PRINTF

?PR?_MONISETVIDEOFORMAT?COMMANDSHELL            -----    -----      0027H    0008H      00A4H    0006H
  +--> ?PR?COMMANDSHELL
  +--> ?PR?_PCT_GETFIRSTSTR?COMMANDSHELL
  +--> ?PR?_ATOI?ATOI
  +--> ?CO?COMMANDSHELL
  +--> ?PR?_PCT_SETVIDEOFORMAT?TW28XX_VIDEO
  +--> ?PR?SCANF?SCANF

?PR?_PCT_SETVIDEOFORMAT?TW28XX_VIDEO            -----    -----      -----    -----      00AAH    0002H
  +--> ?PR?_PCT_READASICBYTE?BUSCTRL
  +--> ?PR?TW28XX_VIDEO
  +--> ?PR?_PCT_WRITEASICBYTE?BUSCTRL

?PR?_MONISHOWSODSTR?COMMANDSHELL                -----    -----      0027H    0002H      00A4H    0006H
  +--> ?PR?COMMANDSHELL
  +--> ?PR?_ATOI?ATOI
  +--> ?PR?_PCT_PRESETFOREGROUNDCOLOR?OSDCTRL
  +--> ?PR?_PCT_PRESETBACKGROUNDCOLOR?OSDCTRL
BL51 BANKED LINKER/LOCATER V6.22                                                      06/13/2018  13:54:00  PAGE 11


  +--> ?PR?_PCT_SETOSDDRAWPAGE?OSDCTRL
  +--> ?PR?_PCT_SHOWOSDSTRING?OSDCTRL
  +--> ?PR?_PCT_ENSHOWOSDPAGE?OSDCTRL
  +--> ?PR?_PCT_GETFIRSTSTR?COMMANDSHELL

?PR?_PCT_SHOWOSDSTRING?OSDCTRL                  -----    -----      -----    -----      00AAH    0007H
  +--> ?PR?OSDCTRL
  +--> ?PR?_STRLEN?STRLEN
  +--> ?PR?_PCT_WRITEOSDFNTX?OSDCTRL
  +--> ?PR?_PCT_WRITEOSDFNTY?OSDCTRL
  +--> ?PR?PTC_SWITCHTOI2CMODE?BUSCTRL

?PR?_PCT_WRITEOSDFNTX?OSDCTRL                   -----    -----      0029H    0003H      00B1H    0013H
  +--> ?PR?OSDCTRL
  +--> ?PR?_PCT_WRITEOSDDATABUFFERX?OSDCTRL
  +--> ?PR?_PCT_WRITEASICBYTE?BUSCTRL
  +--> ?PR?_PCT_READASICBYTE?BUSCTRL

?PR?_PCT_WRITEOSDDATABUFFERX?OSDCTRL            -----    -----      -----    -----      00C4H    0004H
  +--> ?PR?OSDCTRL
  +--> ?PR?_PCT_WRITEASICBYTE?BUSCTRL

?PR?_PCT_WRITEOSDFNTY?OSDCTRL                   -----    -----      0029H    0002H      00B1H    001FH
  +--> ?PR?OSDCTRL
  +--> ?PR?_PCT_WRITEOSDDATABUFFERY?OSDCTRL
  +--> ?PR?_PCT_WRITEASICBYTE?BUSCTRL
  +--> ?PR?_PCT_READASICBYTE?BUSCTRL

?PR?_PCT_WRITEOSDDATABUFFERY?OSDCTRL            -----    -----      -----    -----      00D0H    0004H
  +--> ?PR?OSDCTRL
  +--> ?PR?_PCT_WRITEASICBYTE?BUSCTRL

?PR?_MONIHSCOMM?COMMANDSHELL                    -----    -----      0027H    0003H      -----    -----
  +--> ?PR?COMMANDSHELL
  +--> ?CO?COMMANDSHELL
  +--> ?PR?SCANF?SCANF
  +--> ?PR?_PCT_WINATTRCTRLY?TW28XX_VIDEO
  +--> ?PR?_PCT_RECOMPENSEYHDELAY?TW28XX_VIDEO
  +--> ?PR?_PCT_SETVIDEOHDELAY?TW28XX_VIDEO
  +--> ?PR?_PCT_SETXVIDEOMIXING?TW28XX_VIDEO
  +--> ?PR?_PCT_WINATTRCTRL?TW28XX_VIDEO
  +--> ?PR?_PCT_FLASHOSDCTRL?MAIN
  +--> ?PR?_PCT_CHECKVMIXTYPE?COMMANDSHELL
  +--> ?PR?_PCT_DISSHOWOSDPAGE?OSDCTRL
  +--> ?PR?_PCT_CLEAROSDPAGEX?OSDCTRL
  +--> ?PR?PCT_SHOWMODEICON?OSDACTION
  +--> ?PR?_PCT_OSD_ACTIONPTHX?OSDACTION

?PR?_PCT_WINATTRCTRLY?TW28XX_VIDEO              -----    -----      -----    -----      00A4H    0003H
  +--> ?PR?TW28XX_VIDEO
  +--> ?PR?_PCT_READASICBYTE?BUSCTRL
  +--> ?PR?_PCT_WRITEASICBYTE?BUSCTRL

?PR?_PCT_RECOMPENSEYHDELAY?TW28XX_VIDEO         -----    -----      -----    -----      00A4H    0003H
  +--> ?PR?TW28XX_VIDEO
  +--> ?PR?_PCT_READASICBYTE?BUSCTRL
  +--> ?CO?TW28XX_VIDEO
BL51 BANKED LINKER/LOCATER V6.22                                                      06/13/2018  13:54:00  PAGE 12


  +--> ?PR?_PCT_WRITEASICBYTE?BUSCTRL

?PR?_PCT_SETVIDEOHDELAY?TW28XX_VIDEO            -----    -----      -----    -----      00A4H    0008H
  +--> ?PR?TW28XX_VIDEO
  +--> ?PR?_PCT_WRITEASICBYTE?BUSCTRL
  +--> ?PR?_PCT_READASICBYTE?BUSCTRL
  +--> ?CO?TW28XX_VIDEO

?PR?_PCT_CHECKVMIXTYPE?COMMANDSHELL             -----    -----      002AH    0001H      -----    -----
  +--> ?PR?COMMANDSHELL

?PR?_PCT_DISSHOWOSDPAGE?OSDCTRL                 -----    -----      -----    -----      00A4H    0001H
  +--> ?PR?OSDCTRL
  +--> ?PR?_PCT_READASICBYTE?BUSCTRL
  +--> ?PR?_PCT_WRITEASICBYTE?BUSCTRL

?PR?_PCT_CLEAROSDPAGEX?OSDCTRL                  -----    -----      -----    -----      -----    -----
  +--> ?PR?_PCT_SETOSDDRAWPAGE?OSDCTRL
  +--> ?PR?_PCT_PRESETBACKGROUNDCOLOR?OSDCTRL
  +--> ?PR?_PCT_FULLCOLORONOSD?OSDCTRL

?PR?PCT_SHOWMODEICON?OSDACTION                  -----    -----      -----    -----      -----    -----
  +--> ?PR?_PCT_SETOSDDRAWPAGE?OSDCTRL
  +--> ?CO?OSDACTION
  +--> ?PR?_PCT_SHOWGRAPHSTRING?OSD_GRAPH
  +--> ?PR?_PCT_PRESETBACKGROUNDCOLOR?OSDCTRL
  +--> ?PR?_PCT_PRESETFOREGROUNDCOLOR?OSDCTRL

?PR?_PCT_SHOWGRAPHSTRING?OSD_GRAPH              -----    -----      -----    -----      00A7H    0007H
  +--> ?PR?OSD_GRAPH
  +--> ?PR?_STRLEN?STRLEN
  +--> ?PR?_PCT_OSD16X16GRAPHX?OSD_GRAPH
  +--> ?PR?PTC_SWITCHTOI2CMODE?BUSCTRL

?PR?_PCT_OSD16X16GRAPHX?OSD_GRAPH               -----    -----      -----    -----      00AEH    000BH
  +--> ?PR?OSD_GRAPH
  +--> ?CO?OSD_GRAPH
  +--> ?PR?_PCT_WRITEASICBYTE?BUSCTRL
  +--> ?PR?_PCT_READASICBYTE?BUSCTRL

?PR?_PCT_OSD_ACTIONPTHX?OSDACTION               -----    -----      -----    -----      00A4H    0003H
  +--> ?PR?OSDACTION
  +--> ?PR?_PCT_PRESETFOREGROUNDCOLOR?OSDCTRL
  +--> ?PR?_PCT_PRESETBACKGROUNDCOLOR?OSDCTRL
  +--> ?PR?_PCT_SHOWGRAPHSTRING?OSD_GRAPH

?PR?OSDACTION                                   -----    -----      -----    -----      -----    -----
  +--> ?CO?OSDACTION

?PR?PCT_AUDIOACTIONFORHS?COMMANDSHELL           -----    -----      0027H    0002H      -----    -----
  +--> ?PR?_PCT_AUDIOSELLIVE?TW28XX_AUDIO
  +--> ?PR?_PCT_AUDIOMIXMUTE?TW28XX_AUDIO

?PR?PCT_OSDACTIONFORHS?OSDACTION                -----    -----      -----    -----      -----    -----
  +--> ?PR?_PCT_SETOSDDRAWPAGE?OSDCTRL
  +--> ?PR?OSDACTION
  +--> ?PR?_PCT_SHOWMIRRORICON?OSDACTION
BL51 BANKED LINKER/LOCATER V6.22                                                      06/13/2018  13:54:00  PAGE 13


  +--> ?PR?_PCT_SHOWSPEAKICON?OSDACTION
  +--> ?PR?_PCT_SHOWINDICATEICON?OSDACTION
  +--> ?PR?PCT_ENFALSHVLOSS?OSDACTION
  +--> ?PR?_PCT_ENSHOWOSDPAGE?OSDCTRL

?PR?_PCT_SHOWMIRRORICON?OSDACTION               -----    -----      -----    -----      00A4H    0003H
  +--> ?PR?OSDACTION
  +--> ?PR?_PCT_PRESETFOREGROUNDCOLOR?OSDCTRL
  +--> ?PR?_PCT_CLEARWORDSPATHX?OSDCTRL
  +--> ?PR?_PCT_SHOWGRAPHSTRING?OSD_GRAPH

?PR?_PCT_CLEARWORDSPATHX?OSDCTRL                -----    -----      -----    -----      00A7H    0007H
  +--> ?PR?OSDCTRL
  +--> ?PR?_PCT_WRITEASICBYTE?BUSCTRL
  +--> ?PR?_PCT_READASICBYTE?BUSCTRL

?PR?_PCT_SHOWSPEAKICON?OSDACTION                -----    -----      -----    -----      00A4H    0003H
  +--> ?PR?OSDACTION
  +--> ?PR?_PCT_PRESETFOREGROUNDCOLOR?OSDCTRL
  +--> ?PR?_PCT_CLEARWORDSPATHX?OSDCTRL
  +--> ?PR?_PCT_SHOWGRAPHSTRING?OSD_GRAPH

?PR?_PCT_SHOWINDICATEICON?OSDACTION             -----    -----      0027H    0001H      00A4H    0003H
  +--> ?PR?OSDACTION
  +--> ?PR?_PCT_PRESETFOREGROUNDCOLOR?OSDCTRL
  +--> ?PR?_PCT_CLEARWORDSPATHX?OSDCTRL
  +--> ?PR?_PCT_SHOWGRAPHSTRING?OSD_GRAPH
  +--> ?CO?OSDACTION

?PR?_MONIHSCOMMSJMODE?COMMANDSHELL              -----    -----      -----    -----      -----    -----
  +--> ?PR?COMMANDSHELL
  +--> ?CO?COMMANDSHELL
  +--> ?PR?SCANF?SCANF

?PR?MONIHSCOMMDISSCROLL?COMMANDSHELL            -----    -----      -----    -----      -----    -----
  +--> ?PR?_PCT_ENSHOWOSDPAGE?OSDCTRL

?PR?MONIHSCOMMVERSION?COMMANDSHELL              -----    -----      -----    -----      00A4H    0001H
  +--> ?PR?_RS_TX?UART
  +--> ?CO?COMMANDSHELL

?PR?PCT_CHECKSYSTEM?COMMANDSHELL                -----    -----      -----    -----      -----    -----
  +--> ?PR?_PCT_DETECTVIDEOFORMAT?TW28XX_VIDEO
  +--> ?PR?_PCT_ENSHOWOSDPAGE?OSDCTRL
  +--> ?PR?_PCT_CHANGESYSTEMTYPE?TW2835_INIT
  +--> ?PR?_PCT_RECOMPENSEYHDELAY?TW28XX_VIDEO
  +--> ?PR?COMMANDSHELL
  +--> ?PR?_PCT_SETVIDEOHDELAY?TW28XX_VIDEO
  +--> ?PR?_PCT_SETXVIDEOMIXING?TW28XX_VIDEO
  +--> ?PR?_PCT_CLEAROSDPAGEX?OSDCTRL
  +--> ?PR?PCT_SHOWMODEICON?OSDACTION
  +--> ?PR?_PCT_OSD_ACTIONPTHX?OSDACTION
  +--> ?PR?PCT_OSDACTIONFORHS?OSDACTION

?PR?_PCT_CHANGESYSTEMTYPE?TW2835_INIT           -----    -----      -----    -----      009EH    0002H
  +--> ?PR?TW2835_INIT
  +--> ?CO?TW2835_INIT
BL51 BANKED LINKER/LOCATER V6.22                                                      06/13/2018  13:54:00  PAGE 14


  +--> ?PR?_PCT_WRITEASICTABLE?BUSCTRL

?PR?PCT_GETVIDEOSIGNALSTATUS?OSDACTION          -----    -----      -----    -----      -----    -----
  +--> ?PR?_PCT_READASICBYTE?BUSCTRL
  +--> ?PR?_PCT_WRITEASICBYTE?BUSCTRL



SYMBOL TABLE OF MODULE:  .\OBJ\TW2835 (?C_STARTUP)

  VALUE           TYPE          NAME
  ----------------------------------

  -------         MODULE        ?C_STARTUP
  C:77AAH         SEGMENT       ?C_C51STARTUP
  I:0036H         SEGMENT       ?STACK
  C:0000H         PUBLIC        ?C_STARTUP
  D:00E0H         SYMBOL        ACC
  D:00F0H         SYMBOL        B
  D:0083H         SYMBOL        DPH
  D:0082H         SYMBOL        DPL
  N:0000H         SYMBOL        IBPSTACK
  N:0100H         SYMBOL        IBPSTACKTOP
  N:0080H         SYMBOL        IDATALEN
  C:77ADH         SYMBOL        IDATALOOP
  N:0000H         SYMBOL        PBPSTACK
  N:0100H         SYMBOL        PBPSTACKTOP
  N:0000H         SYMBOL        PDATALEN
  N:0000H         SYMBOL        PDATASTART
  N:0000H         SYMBOL        PPAGE
  N:0000H         SYMBOL        PPAGEENABLE
  D:00A0H         SYMBOL        PPAGE_SFR
  D:0081H         SYMBOL        SP
  C:77AAH         SYMBOL        STARTUP1
  N:0000H         SYMBOL        XBPSTACK
  N:0000H         SYMBOL        XBPSTACKTOP
  N:0000H         SYMBOL        XDATALEN
  N:0000H         SYMBOL        XDATASTART
  C:0000H         LINE#         126
  C:77AAH         LINE#         133
  C:77ACH         LINE#         134
  C:77ADH         LINE#         135
  C:77AEH         LINE#         136
  C:77B0H         LINE#         185
  C:77B3H         LINE#         196
  -------         ENDMOD        ?C_STARTUP

  -------         MODULE        UART
  C:0000H         SYMBOL        _ICE_DUMMY_
  D:0090H         PUBLIC        P1
  D:00B0H         PUBLIC        P3
  C:876BH         PUBLIC        InitialUART
  D:00A8H         PUBLIC        IE
  X:0000H         PUBLIC        RS_RECVBUF
  B:00A8H.4       PUBLIC        ES
  D:00B8H         PUBLIC        IP
  B:0098H.0       PUBLIC        RI
BL51 BANKED LINKER/LOCATER V6.22                                                      06/13/2018  13:54:00  PAGE 15


  B:0098H.1       PUBLIC        TI
  B:00B8H.4       PUBLIC        PS
  D:00D8H         PUBLIC        CCON
  D:0099H         PUBLIC        SBUF
  D:00C0H         PUBLIC        WDTC
  D:0098H         PUBLIC        SCON
  D:0088H         PUBLIC        TCON
  C:877BH         PUBLIC        RS_RxReady
  D:008DH         PUBLIC        TH1
  D:00E8H         PUBLIC        IEA
  X:0050H         PUBLIC        RsRxRp
  B:0088H.6       PUBLIC        TR1
  X:0051H         PUBLIC        RsRxWp
  D:00F8H         PUBLIC        IPA
  D:00C8H         PUBLIC        T2CON
  C:8653H         PUBLIC        RS_rx
  C:0003H         PUBLIC        _RS_tx
  C:855FH         PUBLIC        RS_interrupt
  D:00D0H         PUBLIC        PSW
  -------         PROC          INITIALUART
  C:876BH         LINE#         66
  C:876BH         LINE#         67
  C:876BH         LINE#         69
  C:876DH         LINE#         70
  C:876FH         LINE#         77
  C:8772H         LINE#         84
  C:8774H         LINE#         86
  C:8778H         LINE#         87
  C:877AH         LINE#         88
  -------         ENDPROC       INITIALUART
  -------         PROC          RS_RXREADY
  C:877BH         LINE#         94
  C:877BH         LINE#         95
  C:877BH         LINE#         96
  C:8787H         LINE#         97
  C:8789H         LINE#         98
  -------         ENDPROC       RS_RXREADY
  -------         PROC          RS_RX
  -------         DO            
  D:0007H         SYMBOL        ret
  -------         ENDDO         
  C:8653H         LINE#         104
  C:8653H         LINE#         105
  C:8653H         LINE#         108
  C:8655H         LINE#         112
  C:865DH         LINE#         113
  C:8662H         LINE#         114
  C:8668H         LINE#         115
  C:866AH         LINE#         116
  C:866CH         LINE#         118
  C:866CH         LINE#         119
  -------         ENDPROC       RS_RX
  -------         PROC          _RS_TX
  D:0007H         SYMBOL        tx_buf
  C:0003H         LINE#         125
  C:0003H         LINE#         126
  C:0003H         LINE#         127
BL51 BANKED LINKER/LOCATER V6.22                                                      06/13/2018  13:54:00  PAGE 16


  C:0003H         LINE#         128
  C:0006H         LINE#         129
  C:0008H         LINE#         130
  C:000AH         LINE#         131
  C:000AH         LINE#         132
  C:000AH         LINE#         133
  C:000AH         LINE#         134
  -------         ENDPROC       _RS_TX
  -------         PROC          RS_INTERRUPT
  C:855FH         LINE#         140
  C:8566H         LINE#         142
  C:8569H         LINE#         143
  C:856BH         LINE#         147
  C:8574H         LINE#         148
  C:8579H         LINE#         149
  C:8581H         LINE#         161
  C:8581H         LINE#         162
  -------         ENDPROC       RS_INTERRUPT
  -------         ENDMOD        UART

  -------         MODULE        BUSCTRL
  C:0000H         SYMBOL        _ICE_DUMMY_
  D:0080H         PUBLIC        P0
  D:0090H         PUBLIC        P1
  D:00B0H         PUBLIC        P3
  B:00A8H.7       PUBLIC        EA
  D:00A8H         PUBLIC        IE
  C:7C14H         PUBLIC        _PCT_WriteSTable
  D:00B8H         PUBLIC        IP
  B:0090H.3       PUBLIC        HALE
  B:0090H.2       PUBLIC        HRDB
  D:00D8H         PUBLIC        CCON
  D:00C0H         PUBLIC        WDTC
  B:0090H.1       PUBLIC        HWRB
  D:0098H         PUBLIC        SCON
  D:0088H         PUBLIC        TCON
  C:7E03H         PUBLIC        _PCT_WriteAsicTable
  C:8804H         PUBLIC        PTC_SwitchToI2CMode
  D:00E8H         PUBLIC        IEA
  B:00B0H.6       PUBLIC        HCSB0
  B:00B0H.7       PUBLIC        HCSB1
  D:00F8H         PUBLIC        IPA
  C:830CH         PUBLIC        _PCT_ReadAsicByte
  D:00C8H         PUBLIC        T2CON
  C:843CH         PUBLIC        _PCT_WriteAsicByte
  D:00D0H         PUBLIC        PSW
  C:84E7H         SYMBOL        Com001C
  C:84E7H         SYMBOL        L?0029
  C:84E7H         SYMBOL        L?0030
  C:84F2H         SYMBOL        L?0031
  C:84FFH         SYMBOL        L?0032
  C:8501H         SYMBOL        L?0033
  C:8508H         SYMBOL        L?0034
  C:8508H         SYMBOL        L?0035
  -------         PROC          COM001C
  -------         ENDPROC       COM001C
  -------         PROC          _PCT_WRITEASICBYTE
BL51 BANKED LINKER/LOCATER V6.22                                                      06/13/2018  13:54:00  PAGE 17


  D:0007H         SYMBOL        _dvc
  D:0005H         SYMBOL        _pg
  D:0003H         SYMBOL        _addr
  X:00D7H         SYMBOL        _wdat
  C:843CH         LINE#         63
  C:843CH         LINE#         64
  C:843CH         LINE#         65
  C:843CH         LINE#         67
  C:843CH         LINE#         69
  C:843CH         LINE#         71
  C:8447H         LINE#         72
  C:8451H         LINE#         73
  C:8459H         LINE#         74
  C:8459H         LINE#         75
  C:8459H         LINE#         76
  C:845CH         LINE#         77
  C:8461H         LINE#         78
  C:8463H         LINE#         79
  C:8465H         LINE#         81
  C:8465H         LINE#         82
  C:8465H         LINE#         83
  C:8465H         LINE#         84
  C:8465H         LINE#         85
  C:8468H         LINE#         86
  -------         ENDPROC       _PCT_WRITEASICBYTE
  -------         PROC          _PCT_WRITEASICTABLE
  D:0007H         SYMBOL        _dvc
  D:0005H         SYMBOL        _pg
  D:0006H         SYMBOL        _addr
  X:00A9H         SYMBOL        _tbl_ptr
  X:00ACH         SYMBOL        _tbl_cnt
  C:7E03H         LINE#         92
  C:7E05H         LINE#         93
  C:7E05H         LINE#         94
  C:7E05H         LINE#         96
  C:7E05H         LINE#         98
  C:7E05H         LINE#         100
  C:7E10H         LINE#         101
  C:7E1AH         LINE#         102
  C:7E22H         LINE#         104
  C:7E22H         LINE#         105
  C:7E25H         LINE#         106
  C:7E25H         LINE#         107
  C:7E28H         LINE#         109
  C:7E3EH         LINE#         110
  C:7E40H         LINE#         111
  C:7E42H         LINE#         112
  C:7E49H         LINE#         114
  C:7E49H         LINE#         115
  C:7E49H         LINE#         116
  C:7E49H         LINE#         117
  C:7E49H         LINE#         118
  C:7E4CH         LINE#         119
  -------         ENDPROC       _PCT_WRITEASICTABLE
  -------         PROC          _PCT_READASICBYTE
  D:0007H         SYMBOL        _dvc
  D:0005H         SYMBOL        _pg
BL51 BANKED LINKER/LOCATER V6.22                                                      06/13/2018  13:54:00  PAGE 18


  D:0003H         SYMBOL        _addr
  -------         DO            
  D:0007H         SYMBOL        _rdat_
  -------         ENDDO         
  C:830CH         LINE#         125
  C:830CH         LINE#         126
  C:830CH         LINE#         129
  C:830CH         LINE#         131
  C:830CH         LINE#         133
  C:830CH         LINE#         134
  C:8317H         LINE#         135
  C:8321H         LINE#         136
  C:8329H         LINE#         138
  C:8329H         LINE#         139
  C:8329H         LINE#         140
  C:832CH         LINE#         141
  C:832FH         LINE#         142
  C:8331H         LINE#         143
  C:8333H         LINE#         144
  C:8335H         LINE#         146
  C:8338H         LINE#         147
  C:833AH         LINE#         148
  C:833CH         LINE#         149
  C:833EH         LINE#         150
  C:833EH         LINE#         151
  -------         ENDPROC       _PCT_READASICBYTE
  -------         PROC          _PCT_WRITESTABLE
  D:0007H         SYMBOL        _dvc
  X:00ABH         SYMBOL        _tbl_ptr
  C:7C14H         LINE#         158
  C:7C1EH         LINE#         159
  C:7C1EH         LINE#         163
  C:7C1EH         LINE#         164
  C:7C2CH         LINE#         165
  C:7C49H         LINE#         166
  C:7C49H         LINE#         167
  C:7C5DH         LINE#         168
  C:7C5DH         LINE#         169
  C:7C68H         LINE#         170
  C:7C6AH         LINE#         171
  -------         ENDPROC       _PCT_WRITESTABLE
  -------         PROC          PTC_SWITCHTOI2CMODE
  C:8804H         LINE#         177
  C:8804H         LINE#         178
  C:8804H         LINE#         188
  -------         ENDPROC       PTC_SWITCHTOI2CMODE
  -------         ENDMOD        BUSCTRL

  -------         MODULE        COMMANDSHELL
  C:0000H         SYMBOL        _ICE_DUMMY_
  D:0090H         PUBLIC        P1
  D:00B0H         PUBLIC        P3
  C:86B5H         PUBLIC        _MoniHSCommSJmode
  C:83A5H         PUBLIC        MoniVideoAutoDetect
  C:5863H         PUBLIC        _PCT_RunCommShell
  C:6A9BH         PUBLIC        _MoniAudioGain
  D:00A8H         PUBLIC        IE
BL51 BANKED LINKER/LOCATER V6.22                                                      06/13/2018  13:54:00  PAGE 19


  C:833FH         PUBLIC        _MoniReadOneBuffer
  D:00B8H         PUBLIC        IP
  C:8759H         PUBLIC        _MoniYVideoMix
  X:0052H         PUBLIC        sysdat
  C:86F7H         PUBLIC        _MoniAudioLive
  D:00D8H         PUBLIC        CCON
  C:878AH         PUBLIC        PCT_SendACK
  C:8372H         PUBLIC        _MoniWriteOneBuffer
  C:8799H         PUBLIC        MoniAudioMute
  C:8469H         PUBLIC        MoniHSCommVersion
  C:707AH         PUBLIC        _MoniSetVideoFormat
  C:7EE0H         PUBLIC        _MoniReadAsicByte
  C:78ABH         PUBLIC        _PCT_GetFirstStr
  C:7977H         PUBLIC        PCT_CheckSystem
  D:00C0H         PUBLIC        WDTC
  D:0098H         PUBLIC        SCON
  D:0088H         PUBLIC        TCON
  C:7DB7H         PUBLIC        _MoniWriteAsicByte
  C:6BD8H         PUBLIC        _MoniHSComm
  X:0063H         PUBLIC        msg
  D:00E8H         PUBLIC        IEA
  C:8183H         PUBLIC        _PCT_StrToCommCode
  C:8081H         PUBLIC        _PCT_CheckVMixType
  C:87F4H         PUBLIC        MoniHSCommDisScroll
  D:00F8H         PUBLIC        IPA
  C:7B5CH         PUBLIC        _MoniShowSODStr
  C:5D7BH         PUBLIC        _MoniVideoMixAttr
  C:81C1H         PUBLIC        PCT_AudioActionForHS
  D:00C8H         PUBLIC        T2CON
  C:7C6BH         PUBLIC        _MoniVideoMixWin
  C:803EH         PUBLIC        _MoniReadPageBuffer
  X:00D8H         PUBLIC        Original_selwintype
  C:7E97H         PUBLIC        MoniRegisterDump
  D:00D0H         PUBLIC        PSW
  C:64E3H         PUBLIC        _MoniAudioMixing
  C:5F8BH         SYMBOL        Com00E5
  C:5F8BH         SYMBOL        L?0230
  C:5F8CH         SYMBOL        L?0231
  C:5FC2H         SYMBOL        L?0232
  C:5FC9H         SYMBOL        L?0233
  C:5FCAH         SYMBOL        L?0234
  C:6000H         SYMBOL        L?0235
  C:6007H         SYMBOL        L?0236
  C:6007H         SYMBOL        L?0237
  C:6009H         SYMBOL        L?0238
  C:6012H         SYMBOL        L?0239
  C:6013H         SYMBOL        L?0240
  C:6033H         SYMBOL        L?0241
  C:603AH         SYMBOL        L?0242
  C:603AH         SYMBOL        L?0243
  C:6045H         SYMBOL        L?0244
  C:604CH         SYMBOL        L?0245
  C:605CH         SYMBOL        L?0246
  C:6063H         SYMBOL        L?0247
  C:6073H         SYMBOL        L?0248
  C:607AH         SYMBOL        L?0249
  C:608AH         SYMBOL        L?0250
BL51 BANKED LINKER/LOCATER V6.22                                                      06/13/2018  13:54:00  PAGE 20


  C:6091H         SYMBOL        L?0251
  C:609CH         SYMBOL        L?0252
  C:60A3H         SYMBOL        L?0253
  C:60AEH         SYMBOL        L?0254
  C:60B5H         SYMBOL        L?0255
  C:60BAH         SYMBOL        L?0256
  C:60C1H         SYMBOL        L?0257
  C:60C6H         SYMBOL        L?0258
  C:60CDH         SYMBOL        L?0260
  C:60D9H         SYMBOL        L?0261
  C:60DAH         SYMBOL        L?0262
  C:60E1H         SYMBOL        L?0264
  C:60E1H         SYMBOL        L?0265
  C:60E9H         SYMBOL        L?0266
  C:60F0H         SYMBOL        L?0267
  C:60F7H         SYMBOL        L?0271
  C:60F7H         SYMBOL        L?0272
  C:60FEH         SYMBOL        L?0273
  C:6105H         SYMBOL        L?0277
  C:610CH         SYMBOL        L?0280
  C:6113H         SYMBOL        L?0285
  C:611AH         SYMBOL        L?0287
  C:6129H         SYMBOL        L?0288
  C:6130H         SYMBOL        L?0291
  C:6137H         SYMBOL        L?0294
  C:613EH         SYMBOL        L?0298
  C:613EH         SYMBOL        L?0299
  C:613FH         SYMBOL        L?0300
  C:6147H         SYMBOL        L?0301
  C:6147H         SYMBOL        L?0302
  C:6151H         SYMBOL        L?0304
  C:6158H         SYMBOL        L?0305
  C:6159H         SYMBOL        L?0306
  C:6160H         SYMBOL        L?0307
  C:6160H         SYMBOL        L?0308
  C:6167H         SYMBOL        L?0310
  C:6167H         SYMBOL        L?0311
  C:6170H         SYMBOL        L?0312
  C:617DH         SYMBOL        L?0315
  C:6189H         SYMBOL        L?0317
  C:6189H         SYMBOL        L?0318
  C:618FH         SYMBOL        L?0319
  -------         PROC          COM00E5
  -------         ENDPROC       COM00E5
  -------         PROC          _PCT_GETFIRSTSTR
  X:00AAH         SYMBOL        tagStr
  X:00ADH         SYMBOL        sourceStr
  C:78ABH         LINE#         103
  C:78B0H         LINE#         104
  C:78B0H         LINE#         105
  C:78BBH         LINE#         106
  C:78D0H         LINE#         107
  C:78E6H         LINE#         108
  C:78E8H         LINE#         109
  C:78E8H         LINE#         110
  C:78F4H         LINE#         111
  C:78F8H         LINE#         112
BL51 BANKED LINKER/LOCATER V6.22                                                      06/13/2018  13:54:00  PAGE 21


  C:7900H         LINE#         113
  C:7903H         LINE#         114
  C:7906H         LINE#         115
  C:7909H         LINE#         116
  C:7911H         LINE#         117
  -------         ENDPROC       _PCT_GETFIRSTSTR
  -------         PROC          _PCT_STRTOCOMMCODE
  X:00AAH         SYMBOL        Str
  -------         DO            
  D:0031H         SYMBOL        ret
  -------         ENDDO         
  C:8183H         LINE#         124
  C:8188H         LINE#         125
  C:8188H         LINE#         126
  C:818DH         LINE#         128
  C:81BCH         LINE#         129
  C:81C0H         LINE#         130
  -------         ENDPROC       _PCT_STRTOCOMMCODE
  -------         PROC          PCT_SENDACK
  C:878AH         LINE#         136
  C:878AH         LINE#         137
  C:878AH         LINE#         138
  C:878FH         LINE#         139
  C:8794H         LINE#         140
  -------         ENDPROC       PCT_SENDACK
  -------         PROC          _PCT_CHECKVMIXTYPE
  D:0007H         SYMBOL        _typ
  -------         DO            
  D:002AH         SYMBOL        tmplktp
  -------         ENDDO         
  C:8081H         LINE#         147
  C:8081H         LINE#         148
  C:8081H         LINE#         149
  C:8084H         LINE#         151
  C:8089H         LINE#         152
  C:8090H         LINE#         153
  C:8096H         LINE#         154
  C:80A2H         LINE#         156
  C:80AEH         LINE#         157
  C:80B3H         LINE#         159
  C:80B3H         LINE#         160
  C:80B8H         LINE#         161
  C:80BDH         LINE#         162
  C:80C1H         LINE#         163
  -------         ENDPROC       _PCT_CHECKVMIXTYPE
  -------         PROC          _MONIREADPAGEBUFFER
  D:0001H         SYMBOL        szParam
  -------         DO            
  D:0027H         SYMBOL        page
  D:0028H         SYMBOL        start
  D:0029H         SYMBOL        end
  -------         ENDDO         
  C:803EH         LINE#         173
  C:803EH         LINE#         174
  C:803EH         LINE#         177
  C:8063H         LINE#         179
  C:8063H         LINE#         180
BL51 BANKED LINKER/LOCATER V6.22                                                      06/13/2018  13:54:00  PAGE 22


  C:8079H         LINE#         181
  C:807BH         LINE#         182
  C:8080H         LINE#         183
  -------         ENDPROC       _MONIREADPAGEBUFFER
  -------         PROC          _MONIREADONEBUFFER
  D:0001H         SYMBOL        szParam
  -------         DO            
  D:0027H         SYMBOL        page
  D:0028H         SYMBOL        addr
  -------         ENDDO         
  C:833FH         LINE#         189
  C:833FH         LINE#         190
  C:833FH         LINE#         193
  C:835CH         LINE#         195
  -------         ENDPROC       _MONIREADONEBUFFER
  -------         PROC          _MONIWRITEONEBUFFER
  D:0001H         SYMBOL        szParam
  -------         DO            
  D:0027H         SYMBOL        page
  D:0028H         SYMBOL        addr
  D:0029H         SYMBOL        dat
  -------         ENDDO         
  C:8372H         LINE#         202
  C:8372H         LINE#         203
  C:8372H         LINE#         206
  C:8397H         LINE#         207
  -------         ENDPROC       _MONIWRITEONEBUFFER
  -------         PROC          _MONIWRITEASICBYTE
  D:0001H         SYMBOL        szParam
  -------         DO            
  D:0027H         SYMBOL        _dev
  D:0028H         SYMBOL        _pg
  D:0029H         SYMBOL        _addr
  D:002AH         SYMBOL        _wdat
  -------         ENDDO         
  C:7DB7H         LINE#         214
  C:7DB7H         LINE#         215
  C:7DB7H         LINE#         216
  C:7DBAH         LINE#         217
  C:7DBCH         LINE#         218
  C:7DBEH         LINE#         219
  C:7DC0H         LINE#         221
  C:7DF5H         LINE#         222
  -------         ENDPROC       _MONIWRITEASICBYTE
  -------         PROC          _MONIREADASICBYTE
  D:0001H         SYMBOL        szParam
  -------         DO            
  D:0027H         SYMBOL        _dev
  D:0028H         SYMBOL        _pg
  D:0029H         SYMBOL        _addr
  D:002AH         SYMBOL        _rdat
  -------         ENDDO         
  C:7EE0H         LINE#         229
  C:7EE0H         LINE#         230
  C:7EE0H         LINE#         231
  C:7EE3H         LINE#         232
  C:7EE5H         LINE#         233
BL51 BANKED LINKER/LOCATER V6.22                                                      06/13/2018  13:54:00  PAGE 23


  C:7EE7H         LINE#         234
  C:7EE9H         LINE#         236
  C:7F0EH         LINE#         237
  C:7F19H         LINE#         238
  -------         ENDPROC       _MONIREADASICBYTE
  C:661EH         SYMBOL        L?0268
  C:6634H         SYMBOL        L?0281
  C:664AH         SYMBOL        L?0284
  -------         PROC          _MONIAUDIOMIXING
  X:00A4H         SYMBOL        szParam
  -------         DO            
  D:0027H         SYMBOL        selch0
  D:0028H         SYMBOL        selch1
  D:0029H         SYMBOL        selch2
  D:002AH         SYMBOL        selch3
  D:002BH         SYMBOL        selch4
  D:002CH         SYMBOL        valch0
  D:002DH         SYMBOL        valch1
  D:002EH         SYMBOL        valch2
  D:002FH         SYMBOL        valch3
  D:0030H         SYMBOL        valch4
  X:00A7H         SYMBOL        getStr
  C:585EH         SYMBOL        chaddr
  -------         ENDDO         
  C:64E3H         LINE#         246
  C:64E5H         LINE#         247
  C:64E5H         LINE#         258
  C:64F8H         LINE#         260
  C:6500H         LINE#         266
  C:6529H         LINE#         267
  C:6529H         LINE#         268
  C:653EH         LINE#         269
  C:6547H         LINE#         270
  C:654DH         LINE#         271
  C:6550H         LINE#         273
  C:6550H         LINE#         274
  C:6572H         LINE#         276
  C:6572H         LINE#         277
  C:6575H         LINE#         278
  C:6578H         LINE#         279
  C:657BH         LINE#         281
  C:657BH         LINE#         282
  C:6592H         LINE#         284
  C:6592H         LINE#         285
  C:6595H         LINE#         286
  C:6599H         LINE#         287
  C:659CH         LINE#         288
  C:659FH         LINE#         290
  C:659FH         LINE#         291
  C:65B9H         LINE#         293
  C:65B9H         LINE#         294
  C:65B9H         LINE#         295
  C:65B9H         LINE#         296
  C:65BCH         LINE#         298
  C:65C4H         LINE#         299
  C:65C7H         LINE#         301
  C:65C7H         LINE#         302
BL51 BANKED LINKER/LOCATER V6.22                                                      06/13/2018  13:54:00  PAGE 24


  C:65F2H         LINE#         304
  C:65F2H         LINE#         305
  C:65F2H         LINE#         306
  C:65F2H         LINE#         307
  C:65FAH         LINE#         308
  C:6603H         LINE#         310
  C:661DH         LINE#         311
  C:661DH         LINE#         313
  C:661DH         LINE#         314
  C:661DH         LINE#         315
  C:661DH         LINE#         316
  -------         ENDPROC       _MONIAUDIOMIXING
  -------         PROC          MONIAUDIOMUTE
  C:8799H         LINE#         323
  C:8799H         LINE#         324
  C:8799H         LINE#         325
  C:87A1H         LINE#         330
  -------         ENDPROC       MONIAUDIOMUTE
  C:6BA3H         SYMBOL        L?0276
  C:6BBDH         SYMBOL        L?0303
  C:6BCEH         SYMBOL        L?0320
  -------         PROC          _MONIAUDIOGAIN
  X:00A4H         SYMBOL        szParam
  -------         DO            
  D:0027H         SYMBOL        selch0
  D:0028H         SYMBOL        selch1
  D:0029H         SYMBOL        selch2
  D:002AH         SYMBOL        selch3
  D:002BH         SYMBOL        selch4
  D:002CH         SYMBOL        ch0val
  D:002DH         SYMBOL        ch1val
  D:002EH         SYMBOL        ch2val
  D:002FH         SYMBOL        ch3val
  D:0030H         SYMBOL        ch4val
  X:00A7H         SYMBOL        getStr
  -------         ENDDO         
  C:6A9BH         LINE#         338
  C:6A9DH         LINE#         339
  C:6A9DH         LINE#         344
  C:6AB0H         LINE#         346
  C:6AD6H         LINE#         347
  C:6AD6H         LINE#         348
  C:6AEBH         LINE#         349
  C:6AEFH         LINE#         350
  C:6AF2H         LINE#         352
  C:6AF2H         LINE#         353
  C:6B14H         LINE#         355
  C:6B14H         LINE#         356
  C:6B17H         LINE#         357
  C:6B1AH         LINE#         359
  C:6B1AH         LINE#         360
  C:6B31H         LINE#         362
  C:6B31H         LINE#         363
  C:6B31H         LINE#         364
  C:6B34H         LINE#         365
  C:6B37H         LINE#         367
  C:6B37H         LINE#         368
BL51 BANKED LINKER/LOCATER V6.22                                                      06/13/2018  13:54:00  PAGE 25


  C:6B51H         LINE#         370
  C:6B51H         LINE#         371
  C:6B51H         LINE#         372
  C:6B54H         LINE#         373
  C:6B57H         LINE#         374
  C:6B5AH         LINE#         376
  C:6B5AH         LINE#         377
  C:6B85H         LINE#         379
  C:6B85H         LINE#         380
  C:6B8DH         LINE#         381
  C:6B91H         LINE#         382
  C:6B99H         LINE#         383
  C:6BA2H         LINE#         384
  C:6BA2H         LINE#         386
  C:6BA2H         LINE#         387
  C:6BA2H         LINE#         388
  C:6BA2H         LINE#         389
  -------         ENDPROC       _MONIAUDIOGAIN
  -------         PROC          _MONIAUDIOLIVE
  D:0001H         SYMBOL        szParam
  -------         DO            
  D:0027H         SYMBOL        chan
  -------         ENDDO         
  C:86F7H         LINE#         396
  C:86F7H         LINE#         397
  C:86F7H         LINE#         400
  C:8704H         LINE#         402
  -------         ENDPROC       _MONIAUDIOLIVE
  -------         PROC          MONIREGISTERDUMP
  -------         DO            
  D:0027H         SYMBOL        addr
  D:0028H         SYMBOL        page
  -------         ENDDO         
  C:7E97H         LINE#         409
  C:7E97H         LINE#         410
  C:7E97H         LINE#         414
  C:7E9AH         LINE#         415
  C:7EA8H         LINE#         416
  C:7EABH         LINE#         417
  C:7EABH         LINE#         418
  C:7EC1H         LINE#         419
  C:7EC3H         LINE#         420
  C:7ED2H         LINE#         421
  C:7ED6H         LINE#         422
  C:7EDFH         LINE#         423
  -------         ENDPROC       MONIREGISTERDUMP
  -------         PROC          _MONIVIDEOMIXWIN
  D:0001H         SYMBOL        szParam
  -------         DO            
  D:0027H         SYMBOL        chose
  D:0028H         SYMBOL        wintp
  -------         ENDDO         
  C:7C6BH         LINE#         429
  C:7C6BH         LINE#         430
  C:7C6BH         LINE#         433
  C:7CADH         LINE#         435
  C:7CBAH         LINE#         436
BL51 BANKED LINKER/LOCATER V6.22                                                      06/13/2018  13:54:00  PAGE 26


  -------         ENDPROC       _MONIVIDEOMIXWIN
  C:5F49H         SYMBOL        L?0275
  C:5F50H         SYMBOL        L?0279
  C:5F57H         SYMBOL        L?0283
  C:5F5EH         SYMBOL        L?0289
  C:5F65H         SYMBOL        L?0290
  C:5F76H         SYMBOL        L?0293
  C:5F7DH         SYMBOL        L?0296
  C:5F84H         SYMBOL        L?0313
  -------         PROC          _MONIVIDEOMIXATTR
  X:00A4H         SYMBOL        szParam
  -------         DO            
  D:0027H         SYMBOL        chose
  D:0029H         SYMBOL        attrsel
  D:002AH         SYMBOL        setval
  D:002BH         SYMBOL        winNm
  D:002FH         SYMBOL        wincnt
  D:0030H         SYMBOL        division
  X:00A7H         SYMBOL        getStr
  -------         ENDDO         
  C:5D7BH         LINE#         443
  C:5D80H         LINE#         444
  C:5D80H         LINE#         447
  C:5D83H         LINE#         451
  C:5D89H         LINE#         452
  C:5D93H         LINE#         454
  C:5D99H         LINE#         455
  C:5DA5H         LINE#         457
  C:5DB3H         LINE#         458
  C:5DB6H         LINE#         459
  C:5DB6H         LINE#         460
  C:5DC7H         LINE#         461
  C:5DCAH         LINE#         462
  C:5DCAH         LINE#         463
  C:5DDBH         LINE#         464
  C:5DDEH         LINE#         465
  C:5DDEH         LINE#         466
  C:5DEEH         LINE#         467
  C:5DF1H         LINE#         468
  C:5DF1H         LINE#         469
  C:5E01H         LINE#         470
  C:5E04H         LINE#         471
  C:5E04H         LINE#         472
  C:5E14H         LINE#         473
  C:5E17H         LINE#         474
  C:5E17H         LINE#         475
  C:5E27H         LINE#         476
  C:5E2AH         LINE#         477
  C:5E2AH         LINE#         478
  C:5E3AH         LINE#         479
  C:5E3DH         LINE#         480
  C:5E40H         LINE#         481
  C:5E51H         LINE#         482
  C:5E54H         LINE#         483
  C:5E54H         LINE#         484
  C:5E65H         LINE#         485
  C:5E68H         LINE#         486
BL51 BANKED LINKER/LOCATER V6.22                                                      06/13/2018  13:54:00  PAGE 27


  C:5E68H         LINE#         487
  C:5E78H         LINE#         488
  C:5E7BH         LINE#         489
  C:5E7BH         LINE#         490
  C:5E8BH         LINE#         491
  C:5E8EH         LINE#         492
  C:5E8EH         LINE#         493
  C:5E9EH         LINE#         494
  C:5EA1H         LINE#         495
  C:5EA1H         LINE#         496
  C:5EB1H         LINE#         497
  C:5EB4H         LINE#         498
  C:5EB4H         LINE#         499
  C:5EC7H         LINE#         500
  C:5ECAH         LINE#         501
  C:5ECDH         LINE#         502
  C:5EE2H         LINE#         503
  C:5EE5H         LINE#         504
  C:5EE7H         LINE#         505
  C:5EE7H         LINE#         507
  C:5EE7H         LINE#         509
  C:5EFDH         LINE#         510
  C:5F1AH         LINE#         511
  C:5F1AH         LINE#         512
  C:5F2BH         LINE#         513
  C:5F2DH         LINE#         514
  C:5F2DH         LINE#         515
  C:5F2FH         LINE#         516
  C:5F33H         LINE#         517
  C:5F3DH         LINE#         518
  C:5F44H         LINE#         519
  C:5F44H         LINE#         520
  C:5F48H         LINE#         521
  -------         ENDPROC       _MONIVIDEOMIXATTR
  -------         PROC          _MONIYVIDEOMIX
  D:0001H         SYMBOL        szParam
  -------         DO            
  D:0027H         SYMBOL        chan
  -------         ENDDO         
  C:8759H         LINE#         528
  C:8759H         LINE#         529
  C:8759H         LINE#         532
  C:8766H         LINE#         533
  -------         ENDPROC       _MONIYVIDEOMIX
  -------         PROC          MONIVIDEOAUTODETECT
  C:83A5H         LINE#         540
  C:83A5H         LINE#         541
  C:83A5H         LINE#         542
  -------         ENDPROC       MONIVIDEOAUTODETECT
  C:7167H         SYMBOL        L?0270
  C:7185H         SYMBOL        L?0316
  -------         PROC          _MONISETVIDEOFORMAT
  X:00A4H         SYMBOL        szParam
  -------         DO            
  D:0027H         SYMBOL        selch0
  D:0028H         SYMBOL        selch1
  D:0029H         SYMBOL        selch2
BL51 BANKED LINKER/LOCATER V6.22                                                      06/13/2018  13:54:00  PAGE 28


  D:002AH         SYMBOL        selch3
  D:002BH         SYMBOL        valch0
  D:002CH         SYMBOL        valch1
  D:002DH         SYMBOL        valch2
  D:002EH         SYMBOL        valch3
  X:00A7H         SYMBOL        getStr
  -------         ENDDO         
  C:707AH         LINE#         554
  C:707CH         LINE#         555
  C:707CH         LINE#         560
  C:708FH         LINE#         562
  C:70AFH         LINE#         563
  C:70AFH         LINE#         564
  C:70C6H         LINE#         565
  C:70C9H         LINE#         566
  C:70CCH         LINE#         568
  C:70CCH         LINE#         569
  C:70E3H         LINE#         571
  C:70EBH         LINE#         572
  C:70F3H         LINE#         573
  C:70F6H         LINE#         575
  C:70F6H         LINE#         576
  C:7110H         LINE#         578
  C:7110H         LINE#         579
  C:7113H         LINE#         580
  C:711BH         LINE#         581
  C:711EH         LINE#         583
  C:711EH         LINE#         584
  C:7149H         LINE#         586
  C:7149H         LINE#         587
  C:714CH         LINE#         588
  C:7159H         LINE#         589
  C:7166H         LINE#         590
  C:7166H         LINE#         592
  C:7166H         LINE#         593
  C:7166H         LINE#         594
  C:7166H         LINE#         595
  -------         ENDPROC       _MONISETVIDEOFORMAT
  C:7BA6H         SYMBOL        L?0297
  -------         PROC          _MONISHOWSODSTR
  X:00A4H         SYMBOL        szParam
  -------         DO            
  D:0027H         SYMBOL        addrx
  D:0028H         SYMBOL        addry
  X:00A7H         SYMBOL        getStr
  -------         ENDDO         
  C:7B5CH         LINE#         601
  C:7B5EH         LINE#         602
  C:7B5EH         LINE#         606
  C:7B61H         LINE#         607
  C:7B6CH         LINE#         608
  C:7B6FH         LINE#         609
  C:7B7AH         LINE#         611
  C:7B7FH         LINE#         612
  C:7B84H         LINE#         613
  C:7B89H         LINE#         614
  C:7BA1H         LINE#         615
BL51 BANKED LINKER/LOCATER V6.22                                                      06/13/2018  13:54:00  PAGE 29


  C:7BA6H         LINE#         616
  -------         ENDPROC       _MONISHOWSODSTR
  -------         PROC          PCT_AUDIOACTIONFORHS
  -------         DO            
  D:0027H         SYMBOL        winid
  D:0028H         SYMBOL        muteFlage
  -------         ENDDO         
  C:81C1H         LINE#         622
  C:81C1H         LINE#         623
  C:81C1H         LINE#         625
  C:81C4H         LINE#         628
  C:81C7H         LINE#         629
  C:81D0H         LINE#         630
  C:81DCH         LINE#         631
  C:81DFH         LINE#         632
  C:81DFH         LINE#         633
  C:81E8H         LINE#         635
  C:81ECH         LINE#         637
  C:81F4H         LINE#         642
  C:81FBH         LINE#         643
  C:81FBH         LINE#         645
  -------         ENDPROC       PCT_AUDIOACTIONFORHS
  -------         PROC          _MONIHSCOMM
  D:0001H         SYMBOL        szParam
  -------         DO            
  D:0027H         SYMBOL        winid
  D:0028H         SYMBOL        chose
  D:0029H         SYMBOL        wintp
  -------         ENDDO         
  C:6BD8H         LINE#         652
  C:6BD8H         LINE#         656
  C:6C42H         LINE#         659
  C:6C5CH         LINE#         663
  C:6C64H         LINE#         664
  C:6C6CH         LINE#         665
  C:6C75H         LINE#         666
  C:6C7EH         LINE#         668
  C:6C88H         LINE#         669
  C:6C92H         LINE#         670
  C:6C9CH         LINE#         671
  C:6CA6H         LINE#         676
  C:6CAFH         LINE#         677
  C:6CB7H         LINE#         679
  C:6CC1H         LINE#         681
  C:6CC4H         LINE#         682
  C:6CDAH         LINE#         686
  C:6CDFH         LINE#         687
  C:6CE4H         LINE#         688
  C:6CE9H         LINE#         689
  C:6CF0H         LINE#         690
  C:6CF5H         LINE#         691
  C:6CFAH         LINE#         692
  C:6CFDH         LINE#         693
  C:6D06H         LINE#         694
  C:6D0DH         LINE#         696
  -------         ENDPROC       _MONIHSCOMM
  -------         PROC          PCT_CHECKSYSTEM
BL51 BANKED LINKER/LOCATER V6.22                                                      06/13/2018  13:54:00  PAGE 30


  -------         DO            
  D:0007H         SYMBOL        TempSystem
  -------         ENDDO         
  C:7977H         LINE#         702
  C:7977H         LINE#         703
  C:7977H         LINE#         706
  C:797CH         LINE#         708
  C:7980H         LINE#         709
  C:7982H         LINE#         710
  C:7988H         LINE#         711
  C:798AH         LINE#         713
  C:798EH         LINE#         716
  C:799DH         LINE#         718
  C:79A2H         LINE#         720
  C:79A9H         LINE#         721
  C:79B2H         LINE#         722
  C:79BAH         LINE#         724
  C:79C4H         LINE#         727
  C:79C9H         LINE#         728
  C:79CCH         LINE#         729
  C:79D5H         LINE#         730
  C:79D8H         LINE#         732
  C:79D9H         LINE#         733
  -------         ENDPROC       PCT_CHECKSYSTEM
  -------         PROC          _MONIHSCOMMSJMODE
  D:0001H         SYMBOL        szParam
  C:86B5H         LINE#         739
  C:86B5H         LINE#         740
  C:86B5H         LINE#         741
  -------         ENDPROC       _MONIHSCOMMSJMODE
  -------         PROC          MONIHSCOMMDISSCROLL
  C:87F4H         LINE#         748
  C:87F4H         LINE#         749
  C:87F4H         LINE#         750
  -------         ENDPROC       MONIHSCOMMDISSCROLL
  C:8489H         SYMBOL        L?0314
  -------         PROC          MONIHSCOMMVERSION
  -------         DO            
  X:00A4H         SYMBOL        version
  -------         ENDDO         
  C:8469H         LINE#         758
  C:8469H         LINE#         759
  C:8469H         LINE#         760
  C:846DH         LINE#         763
  C:8472H         LINE#         770
  C:8475H         LINE#         771
  C:8479H         LINE#         772
  C:8484H         LINE#         773
  C:8489H         LINE#         775
  -------         ENDPROC       MONIHSCOMMVERSION
  C:5AA2H         SYMBOL        L?0259
  C:5AA9H         SYMBOL        L?0263
  C:5AB0H         SYMBOL        L?0269
  C:5AB7H         SYMBOL        L?0274
  C:5ABEH         SYMBOL        L?0278
  C:5AC5H         SYMBOL        L?0282
  C:5ACCH         SYMBOL        L?0286
BL51 BANKED LINKER/LOCATER V6.22                                                      06/13/2018  13:54:00  PAGE 31


  C:5AD3H         SYMBOL        L?0292
  C:5ADAH         SYMBOL        L?0295
  C:5AE1H         SYMBOL        L?0309
  C:5AE8H         SYMBOL        L?0321
  -------         PROC          _PCT_RUNCOMMSHELL
  X:009EH         SYMBOL        strptr
  -------         DO            
  D:0025H         SYMBOL        commcode
  X:00A1H         SYMBOL        getStr
  -------         ENDDO         
  C:5863H         LINE#         789
  C:5865H         LINE#         790
  C:5865H         LINE#         796
  C:5878H         LINE#         799
  C:5884H         LINE#         801
  C:5892H         LINE#         803
  C:5898H         LINE#         804
  C:58A9H         LINE#         806
  C:58AFH         LINE#         807
  C:58C0H         LINE#         809
  C:58C6H         LINE#         810
  C:58D7H         LINE#         813
  C:58DDH         LINE#         814
  C:58EEH         LINE#         817
  C:58F4H         LINE#         818
  C:5905H         LINE#         821
  C:590BH         LINE#         822
  C:591CH         LINE#         825
  C:591FH         LINE#         826
  C:5930H         LINE#         829
  C:5933H         LINE#         830
  C:5944H         LINE#         833
  C:594AH         LINE#         834
  C:595BH         LINE#         837
  C:5961H         LINE#         838
  C:5972H         LINE#         841
  C:5975H         LINE#         842
  C:5986H         LINE#         845
  C:598BH         LINE#         846
  C:5991H         LINE#         847
  C:5994H         LINE#         848
  C:59A5H         LINE#         851
  C:59ABH         LINE#         852
  C:59BCH         LINE#         855
  C:59C2H         LINE#         856
  C:59D3H         LINE#         858
  C:59D6H         LINE#         860
  C:59DCH         LINE#         861
  C:59EDH         LINE#         864
  C:59F0H         LINE#         865
  C:5A01H         LINE#         868
  C:5A04H         LINE#         869
  C:5A15H         LINE#         872
  C:5A1BH         LINE#         873
  C:5A2CH         LINE#         876
  C:5A32H         LINE#         878
  C:5A43H         LINE#         879
BL51 BANKED LINKER/LOCATER V6.22                                                      06/13/2018  13:54:00  PAGE 32


  C:5A46H         LINE#         881
  C:5A4CH         LINE#         883
  C:5A4FH         LINE#         884
  C:5A52H         LINE#         885
  C:5A57H         LINE#         893
  C:5A67H         LINE#         894
  C:5A6AH         LINE#         896
  C:5A70H         LINE#         897
  C:5A80H         LINE#         898
  C:5A83H         LINE#         900
  C:5A86H         LINE#         901
  C:5A99H         LINE#         902
  C:5A9CH         LINE#         904
  C:5A9FH         LINE#         907
  C:5A9FH         LINE#         908
  C:5A9FH         LINE#         911
  C:5AA1H         LINE#         912
  -------         ENDPROC       _PCT_RUNCOMMSHELL
  -------         ENDMOD        COMMANDSHELL

  -------         MODULE        MAIN
  C:0000H         SYMBOL        _ICE_DUMMY_
  C:826CH         PUBLIC        _PutsP
  D:00B1H         PUBLIC        P3M0
  D:0090H         PUBLIC        P1
  D:00B2H         PUBLIC        P3M1
  D:00B0H         PUBLIC        P3
  B:00A8H.7       PUBLIC        EA
  X:006BH         PUBLIC        RScommand
  D:00A8H         PUBLIC        IE
  B:0024H.1       PUBLIC        VlossFlag
  D:00B8H         PUBLIC        IP
  B:0098H.1       PUBLIC        TI
  D:00D8H         PUBLIC        CCON
  C:7836H         PUBLIC        main
  C:86CBH         PUBLIC        ResetCommSell
  D:0020H         PUBLIC        commFlag
  D:0087H         PUBLIC        PCON
  D:00C0H         PUBLIC        WDTC
  D:0098H         PUBLIC        SCON
  D:0089H         PUBLIC        TMOD
  D:0088H         PUBLIC        TCON
  C:87CCH         PUBLIC        NewLine
  C:87D5H         PUBLIC        _PCT_FlashOSDCtrl
  C:7D15H         PUBLIC        CommandShell
  C:85F7H         PUBLIC        InitialMPU
  B:0020H.0       PUBLIC        comm_chk_flag
  D:00E8H         PUBLIC        IEA
  C:8493H         PUBLIC        _chkStartCommShell
  C:7F6EH         PUBLIC        _Wait_ms
  C:87B7H         PUBLIC        InitialCommShell
  D:00F8H         PUBLIC        IPA
  B:0020H.1       PUBLIC        osd_chk_flag
  D:00C8H         PUBLIC        T2CON
  X:0096H         PUBLIC        _delay
  D:00D0H         PUBLIC        PSW
  -------         PROC          COMMANDSHELL
BL51 BANKED LINKER/LOCATER V6.22                                                      06/13/2018  13:54:00  PAGE 33


  -------         DO            
  D:0025H         SYMBOL        ch
  -------         ENDDO         
  C:7D15H         LINE#         74
  C:7D15H         LINE#         79
  C:7D22H         LINE#         80
  C:7D27H         LINE#         81
  C:7D2DH         LINE#         83
  C:7D37H         LINE#         84
  C:7D37H         LINE#         85
  C:7D3FH         LINE#         86
  C:7D43H         LINE#         87
  C:7D4CH         LINE#         88
  C:7D52H         LINE#         89
  C:7D52H         LINE#         91
  C:7D52H         LINE#         92
  C:7D57H         LINE#         93
  C:7D58H         LINE#         95
  C:7D58H         LINE#         96
  C:7D61H         LINE#         97
  C:7D66H         LINE#         98
  C:7D66H         LINE#         99
  C:7D66H         LINE#         100
  C:7D66H         LINE#         102
  -------         ENDPROC       COMMANDSHELL
  -------         PROC          NEWLINE
  C:87CCH         LINE#         108
  C:87CCH         LINE#         109
  C:87CCH         LINE#         110
  -------         ENDPROC       NEWLINE
  -------         PROC          _PUTSP
  X:009EH         SYMBOL        ptr
  -------         DO            
  D:0025H         SYMBOL        ch
  -------         ENDDO         
  C:826CH         LINE#         117
  C:8276H         LINE#         118
  C:8276H         LINE#         121
  C:8285H         LINE#         122
  C:829BH         LINE#         123
  C:829FH         LINE#         124
  C:82A1H         LINE#         125
  -------         ENDPROC       _PUTSP
  -------         PROC          RESETCOMMSELL
  C:86CBH         LINE#         131
  C:86CBH         LINE#         132
  C:86CBH         LINE#         133
  C:86D7H         LINE#         135
  C:86DBH         LINE#         136
  C:86DDH         LINE#         137
  C:86E0H         LINE#         138
  -------         ENDPROC       RESETCOMMSELL
  -------         PROC          _PCT_FLASHOSDCTRL
  D:0007H         SYMBOL        _on
  C:87D5H         LINE#         144
  C:87D5H         LINE#         145
  C:87D5H         LINE#         146
BL51 BANKED LINKER/LOCATER V6.22                                                      06/13/2018  13:54:00  PAGE 34


  C:87DBH         LINE#         147
  C:87DDH         LINE#         148
  -------         ENDPROC       _PCT_FLASHOSDCTRL
  -------         PROC          INITIALCOMMSHELL
  C:87B7H         LINE#         154
  C:87B7H         LINE#         155
  C:87B7H         LINE#         156
  C:87B9H         LINE#         157
  C:87BBH         LINE#         160
  C:87BDH         LINE#         161
  C:87C1H         LINE#         162
  -------         ENDPROC       INITIALCOMMSHELL
  -------         PROC          _CHKSTARTCOMMSHELL
  X:009EH         SYMBOL        ptr
  C:8493H         LINE#         168
  C:849DH         LINE#         169
  C:849DH         LINE#         170
  C:84A0H         LINE#         171
  C:84BCH         LINE#         172
  -------         ENDPROC       _CHKSTARTCOMMSHELL
  -------         PROC          _WAIT_MS
  X:00A4H         SYMBOL        Tms
  -------         DO            
  X:00A6H         SYMBOL        count
  -------         ENDDO         
  C:7F6EH         LINE#         174
  C:7F75H         LINE#         175
  C:7F75H         LINE#         187
  C:7F7EH         LINE#         188
  C:7F7EH         LINE#         189
  C:7FA6H         LINE#         190
  C:7FB1H         LINE#         191
  C:7FB3H         LINE#         192
  -------         ENDPROC       _WAIT_MS
  -------         PROC          MAIN
  -------         DO            
  X:009BH         SYMBOL        Counter
  X:009CH         SYMBOL        OsdCount1
  X:009DH         SYMBOL        OsdCount2
  -------         ENDDO         
  C:7836H         LINE#         198
  C:7836H         LINE#         199
  C:7836H         LINE#         200
  C:783AH         LINE#         201
  C:783EH         LINE#         202
  C:7842H         LINE#         205
  C:7845H         LINE#         206
  C:7848H         LINE#         207
  C:784BH         LINE#         208
  C:784EH         LINE#         210
  C:7851H         LINE#         213
  C:7851H         LINE#         214
  C:7854H         LINE#         215
  C:7863H         LINE#         216
  C:786CH         LINE#         237
  C:786FH         LINE#         238
  C:786FH         LINE#         239
BL51 BANKED LINKER/LOCATER V6.22                                                      06/13/2018  13:54:00  PAGE 35


  C:7874H         LINE#         240
  C:7876H         LINE#         241
  C:7876H         LINE#         244
  C:7884H         LINE#         245
  C:788CH         LINE#         249
  C:7890H         LINE#         250
  C:7898H         LINE#         251
  C:7898H         LINE#         252
  C:78A0H         LINE#         253
  C:78A3H         LINE#         254
  C:78A9H         LINE#         255
  C:78A9H         LINE#         256
  -------         ENDPROC       MAIN
  -------         PROC          INITIALMPU
  C:85F7H         LINE#         265
  C:85F7H         LINE#         267
  C:85FAH         LINE#         268
  C:85FCH         LINE#         271
  C:85FFH         LINE#         278
  C:8601H         LINE#         279
  C:8604H         LINE#         282
  C:8606H         LINE#         284
  C:8609H         LINE#         288
  C:860BH         LINE#         289
  C:860EH         LINE#         291
  C:8611H         LINE#         292
  C:8614H         LINE#         294
  C:8616H         LINE#         295
  C:8618H         LINE#         296
  C:8619H         LINE#         297
  -------         ENDPROC       INITIALMPU
  -------         ENDMOD        MAIN

  -------         MODULE        OSD_GRAPH
  C:0000H         SYMBOL        _ICE_DUMMY_
  D:0090H         PUBLIC        P1
  D:00B0H         PUBLIC        P3
  D:00A8H         PUBLIC        IE
  D:00B8H         PUBLIC        IP
  D:00D8H         PUBLIC        CCON
  C:2168H         PUBLIC        GRAPH16_TABLE
  D:00C0H         PUBLIC        WDTC
  D:0098H         PUBLIC        SCON
  D:0088H         PUBLIC        TCON
  C:0026H         PUBLIC        GRAPH_TABLE
  C:666DH         PUBLIC        _PCT_OSD16x16GraphX
  C:87F9H         PUBLIC        PCT_ClearGraphAttr
  D:00E8H         PUBLIC        IEA
  X:0098H         PUBLIC        graphattr
  D:00F8H         PUBLIC        IPA
  C:7AFDH         PUBLIC        _PCT_ShowGraphString
  D:00C8H         PUBLIC        T2CON
  D:00D0H         PUBLIC        PSW
  C:8103H         SYMBOL        Com001A
  C:8103H         SYMBOL        L?0027
  C:810DH         SYMBOL        L?0028
  C:8110H         SYMBOL        L?0029
BL51 BANKED LINKER/LOCATER V6.22                                                      06/13/2018  13:54:00  PAGE 36


  C:8119H         SYMBOL        L?0031
  C:812EH         SYMBOL        L?0032
  C:8130H         SYMBOL        L?0033
  C:8139H         SYMBOL        L?0034
  C:813CH         SYMBOL        L?0035
  -------         PROC          COM001A
  -------         ENDPROC       COM001A
  -------         PROC          PCT_CLEARGRAPHATTR
  C:87F9H         LINE#         72
  C:87F9H         LINE#         73
  C:87F9H         LINE#         74
  C:87FDH         LINE#         75
  -------         ENDPROC       PCT_CLEARGRAPHATTR
  C:6790H         SYMBOL        L?0025
  C:67B7H         SYMBOL        L?0030
  C:67BFH         SYMBOL        L?0036
  C:67C7H         SYMBOL        L?0037
  C:67D2H         SYMBOL        L?0038
  -------         PROC          _PCT_OSD16X16GRAPHX
  X:00AEH         SYMBOL        _posx
  X:00AFH         SYMBOL        _posy
  D:0003H         SYMBOL        _indx
  -------         DO            
  X:00B1H         SYMBOL        row
  X:00B2H         SYMBOL        column
  X:00B3H         SYMBOL        cntr
  X:00B4H         SYMBOL        cntc
  X:00B5H         SYMBOL        posx
  X:00B6H         SYMBOL        graph
  -------         ENDDO         
  C:666DH         LINE#         96
  C:6677H         LINE#         97
  C:6677H         LINE#         101
  C:667EH         LINE#         102
  C:6685H         LINE#         103
  C:669AH         LINE#         104
  C:66A2H         LINE#         105
  C:66BFH         LINE#         106
  C:66C4H         LINE#         107
  C:66CAH         LINE#         109
  C:66DBH         LINE#         110
  C:66ECH         LINE#         111
  C:66FDH         LINE#         112
  C:6708H         LINE#         113
  C:6713H         LINE#         114
  C:6721H         LINE#         115
  C:672BH         LINE#         116
  C:6733H         LINE#         118
  C:673BH         LINE#         119
  C:6745H         LINE#         121
  C:6754H         LINE#         122
  C:6757H         LINE#         123
  C:675DH         LINE#         125
  C:6766H         LINE#         126
  C:6769H         LINE#         127
  C:676FH         LINE#         129
  C:6774H         LINE#         130
BL51 BANKED LINKER/LOCATER V6.22                                                      06/13/2018  13:54:00  PAGE 37


  C:677CH         LINE#         131
  C:6782H         LINE#         132
  C:6787H         LINE#         133
  C:678FH         LINE#         134
  -------         ENDPROC       _PCT_OSD16X16GRAPHX
  -------         PROC          _PCT_SHOWGRAPHSTRING
  X:00A7H         SYMBOL        _path
  X:00A8H         SYMBOL        _addrx
  X:00A9H         SYMBOL        _addry
  X:00AAH         SYMBOL        _strptr
  -------         DO            
  X:00ADH         SYMBOL        slen
  -------         ENDDO         
  C:7AFDH         LINE#         140
  C:7B07H         LINE#         141
  C:7B07H         LINE#         144
  C:7B12H         LINE#         145
  C:7B19H         LINE#         147
  C:7B1FH         LINE#         151
  C:7B1FH         LINE#         152
  C:7B1FH         LINE#         153
  C:7B33H         LINE#         154
  C:7B38H         LINE#         155
  C:7B3CH         LINE#         156
  C:7B42H         LINE#         157
  C:7B4CH         LINE#         158
  C:7B4EH         LINE#         159
  C:7B4EH         LINE#         160
  C:7B58H         LINE#         161
  C:7B58H         LINE#         162
  C:7B5BH         LINE#         164
  -------         ENDPROC       _PCT_SHOWGRAPHSTRING
  -------         ENDMOD        OSD_GRAPH

  -------         MODULE        OSDACTION
  C:0000H         SYMBOL        _ICE_DUMMY_
  C:7E4DH         PUBLIC        PCT_InitialOSD
  C:7FB4H         PUBLIC        PCT_ShowModeIcon
  D:0090H         PUBLIC        P1
  D:00B0H         PUBLIC        P3
  C:87E6H         PUBLIC        PCT_EnfalshVLoss
  C:85D2H         PUBLIC        camstr
  D:00A8H         PUBLIC        IE
  D:00B8H         PUBLIC        IP
  C:5AEFH         PUBLIC        _PCT_ShowIndicateIcon
  C:85EFH         PUBLIC        SPEAKICON
  D:00D8H         PUBLIC        CCON
  X:0099H         PUBLIC        VlossCount
  D:00C0H         PUBLIC        WDTC
  D:0098H         PUBLIC        SCON
  D:0088H         PUBLIC        TCON
  B:0021H.0       PUBLIC        OSDPAGE2
  B:0021H.1       PUBLIC        OSDPAGE3
  B:0021H.2       PUBLIC        OSDPAGE4
  B:0021H.3       PUBLIC        OSDPAGE5
  D:0021H         PUBLIC        osdflage
  D:00E8H         PUBLIC        IEA
BL51 BANKED LINKER/LOCATER V6.22                                                      06/13/2018  13:54:00  PAGE 38


  C:82A2H         PUBLIC        PCT_GetVideoSignalStatus
  C:85E7H         PUBLIC        indicate_icon
  C:85ADH         PUBLIC        PCT_OSDActionForHS
  D:00F8H         PUBLIC        IPA
  C:85F1H         PUBLIC        msgVLOSS
  D:00C8H         PUBLIC        T2CON
  C:3C2BH         PUBLIC        _PCT_ShowSpeakIcon
  C:37FFH         PUBLIC        _PCT_ShowMirrorIcon
  C:4F16H         PUBLIC        _PCT_OSD_ActionPthX
  D:00D0H         PUBLIC        PSW
  C:7714H         SYMBOL        Com017D
  C:7714H         SYMBOL        L?0382
  C:7714H         SYMBOL        L?0383
  C:7716H         SYMBOL        L?0384
  C:7722H         SYMBOL        L?0385
  C:7727H         SYMBOL        L?0386
  C:772FH         SYMBOL        L?0387
  C:772FH         SYMBOL        L?0388
  C:7731H         SYMBOL        L?0389
  C:7734H         SYMBOL        L?0390
  C:773FH         SYMBOL        L?0391
  C:773FH         SYMBOL        L?0392
  C:7741H         SYMBOL        L?0393
  C:774AH         SYMBOL        L?0394
  C:774AH         SYMBOL        L?0395
  C:7758H         SYMBOL        L?0396
  C:7758H         SYMBOL        L?0397
  C:7766H         SYMBOL        L?0398
  C:7766H         SYMBOL        L?0399
  C:7768H         SYMBOL        L?0400
  C:776FH         SYMBOL        L?0410
  C:776FH         SYMBOL        L?0411
  C:7775H         SYMBOL        L?0419
  C:7775H         SYMBOL        L?0420
  C:7778H         SYMBOL        L?0421
  C:7781H         SYMBOL        L?0427
  C:7781H         SYMBOL        L?0428
  C:7788H         SYMBOL        L?0433
  C:7788H         SYMBOL        L?0434
  C:778FH         SYMBOL        L?0443
  C:778FH         SYMBOL        L?0444
  C:7795H         SYMBOL        L?0455
  C:7795H         SYMBOL        L?0456
  C:779CH         SYMBOL        L?0457
  C:77A3H         SYMBOL        L?0458
  C:77A3H         SYMBOL        L?0459
  -------         PROC          COM017D
  -------         ENDPROC       COM017D
  C:7E82H         SYMBOL        L?0441
  -------         PROC          PCT_INITIALOSD
  -------         DO            
  D:0027H         SYMBOL        page
  -------         ENDDO         
  C:7E4DH         LINE#         107
  C:7E4DH         LINE#         108
  C:7E4DH         LINE#         111
  C:7E50H         LINE#         112
BL51 BANKED LINKER/LOCATER V6.22                                                      06/13/2018  13:54:00  PAGE 39


  C:7E53H         LINE#         114
  C:7E58H         LINE#         115
  C:7E5DH         LINE#         116
  C:7E60H         LINE#         117
  C:7E62H         LINE#         118
  C:7E65H         LINE#         119
  C:7E6EH         LINE#         120
  C:7E73H         LINE#         121
  C:7E78H         LINE#         122
  C:7E7AH         LINE#         123
  C:7E7DH         LINE#         125
  C:7E81H         LINE#         126
  -------         ENDPROC       PCT_INITIALOSD
  C:520CH         SYMBOL        L?0407
  C:5216H         SYMBOL        L?0412
  C:5220H         SYMBOL        L?0417
  C:522AH         SYMBOL        L?0423
  C:5234H         SYMBOL        L?0431
  C:523EH         SYMBOL        L?0436
  C:5248H         SYMBOL        L?0439
  C:5250H         SYMBOL        L?0445
  C:525AH         SYMBOL        L?0450
  C:5264H         SYMBOL        L?0460
  -------         PROC          _PCT_OSD_ACTIONPTHX
  X:00A4H         SYMBOL        _attr
  C:4F16H         LINE#         133
  C:4F1CH         LINE#         134
  C:4F1CH         LINE#         135
  C:4F21H         LINE#         136
  C:4F26H         LINE#         137
  C:4F5AH         LINE#         140
  C:4F5AH         LINE#         141
  C:4F6DH         LINE#         142
  C:4F70H         LINE#         144
  C:4F70H         LINE#         145
  C:4F83H         LINE#         146
  C:4F93H         LINE#         147
  C:4F96H         LINE#         149
  C:4F96H         LINE#         150
  C:4FA7H         LINE#         151
  C:4FB7H         LINE#         152
  C:4FBAH         LINE#         154
  C:4FBAH         LINE#         155
  C:4FD1H         LINE#         156
  C:4FDFH         LINE#         157
  C:4FF4H         LINE#         158
  C:4FF7H         LINE#         160
  C:4FF7H         LINE#         161
  C:4FF7H         LINE#         163
  C:4FF7H         LINE#         164
  C:5008H         LINE#         165
  C:5016H         LINE#         166
  C:502BH         LINE#         167
  C:502EH         LINE#         169
  C:502EH         LINE#         170
  C:503FH         LINE#         171
  C:504DH         LINE#         172
BL51 BANKED LINKER/LOCATER V6.22                                                      06/13/2018  13:54:00  PAGE 40


  C:5062H         LINE#         173
  C:5065H         LINE#         175
  C:5065H         LINE#         176
  C:5076H         LINE#         177
  C:5086H         LINE#         178
  C:5099H         LINE#         179
  C:50AEH         LINE#         180
  C:50B1H         LINE#         183
  C:50B1H         LINE#         184
  C:50C4H         LINE#         185
  C:50C6H         LINE#         187
  C:50C6H         LINE#         188
  C:50D7H         LINE#         189
  C:50E9H         LINE#         190
  C:50ECH         LINE#         192
  C:50ECH         LINE#         193
  C:50FDH         LINE#         194
  C:510FH         LINE#         195
  C:5112H         LINE#         197
  C:5112H         LINE#         198
  C:5123H         LINE#         199
  C:5131H         LINE#         200
  C:5148H         LINE#         201
  C:514BH         LINE#         203
  C:514BH         LINE#         204
  C:514BH         LINE#         206
  C:514BH         LINE#         207
  C:515CH         LINE#         208
  C:516AH         LINE#         209
  C:5181H         LINE#         210
  C:5184H         LINE#         212
  C:5184H         LINE#         213
  C:5195H         LINE#         214
  C:51A3H         LINE#         215
  C:51B7H         LINE#         216
  C:51BAH         LINE#         218
  C:51BAH         LINE#         219
  C:51CBH         LINE#         220
  C:51DFH         LINE#         221
  C:51F2H         LINE#         222
  C:520BH         LINE#         223
  C:520BH         LINE#         312
  C:520BH         LINE#         313
  C:520BH         LINE#         314
  C:520BH         LINE#         315
  -------         ENDPROC       _PCT_OSD_ACTIONPTHX
  -------         PROC          PCT_ENFALSHVLOSS
  C:87E6H         LINE#         321
  C:87E6H         LINE#         322
  C:87E6H         LINE#         323
  C:87ECH         LINE#         324
  -------         ENDPROC       PCT_ENFALSHVLOSS
  -------         PROC          PCT_GETVIDEOSIGNALSTATUS
  C:82A2H         LINE#         330
  C:82A2H         LINE#         331
  C:82A2H         LINE#         336
  C:82B2H         LINE#         338
BL51 BANKED LINKER/LOCATER V6.22                                                      06/13/2018  13:54:00  PAGE 41


  C:82B8H         LINE#         341
  C:82BAH         LINE#         342
  C:82D0H         LINE#         360
  C:82D6H         LINE#         401
  -------         ENDPROC       PCT_GETVIDEOSIGNALSTATUS
  C:5CF7H         SYMBOL        L?0401
  C:5D18H         SYMBOL        L?0404
  C:5D35H         SYMBOL        L?0413
  C:5D56H         SYMBOL        L?0424
  C:5D73H         SYMBOL        L?0453
  -------         PROC          _PCT_SHOWINDICATEICON
  X:00A4H         SYMBOL        _attr
  -------         DO            
  D:0027H         SYMBOL        iconid
  -------         ENDDO         
  C:5AEFH         LINE#         422
  C:5AF5H         LINE#         423
  C:5AF5H         LINE#         427
  C:5AFAH         LINE#         428
  C:5B28H         LINE#         430
  C:5B28H         LINE#         431
  C:5B28H         LINE#         432
  C:5B30H         LINE#         434
  C:5B32H         LINE#         435
  C:5B32H         LINE#         436
  C:5B32H         LINE#         437
  C:5B35H         LINE#         438
  C:5B35H         LINE#         439
  C:5B3DH         LINE#         441
  C:5B48H         LINE#         442
  C:5B48H         LINE#         443
  C:5B48H         LINE#         444
  C:5B48H         LINE#         445
  C:5B4BH         LINE#         447
  C:5B4BH         LINE#         448
  C:5B53H         LINE#         449
  C:5B53H         LINE#         450
  C:5B53H         LINE#         452
  C:5B53H         LINE#         453
  C:5B56H         LINE#         455
  C:5B56H         LINE#         456
  C:5B56H         LINE#         458
  C:5B5EH         LINE#         460
  C:5B60H         LINE#         461
  C:5B60H         LINE#         462
  C:5B69H         LINE#         463
  C:5B6BH         LINE#         464
  C:5B6BH         LINE#         465
  C:5B6EH         LINE#         467
  C:5B7AH         LINE#         468
  C:5B7AH         LINE#         469
  C:5B7AH         LINE#         470
  C:5B82H         LINE#         471
  C:5B84H         LINE#         473
  C:5B84H         LINE#         474
  C:5B89H         LINE#         475
  C:5B92H         LINE#         476
BL51 BANKED LINKER/LOCATER V6.22                                                      06/13/2018  13:54:00  PAGE 42


  C:5B92H         LINE#         478
  C:5B92H         LINE#         481
  C:5B9AH         LINE#         482
  C:5B9EH         LINE#         483
  C:5B9EH         LINE#         484
  C:5B9EH         LINE#         485
  C:5BA1H         LINE#         486
  C:5BA1H         LINE#         487
  C:5BA1H         LINE#         488
  C:5BA1H         LINE#         489
  C:5BA4H         LINE#         491
  C:5BA4H         LINE#         492
  C:5BA4H         LINE#         494
  C:5BACH         LINE#         496
  C:5BAEH         LINE#         497
  C:5BAEH         LINE#         498
  C:5BB7H         LINE#         499
  C:5BB9H         LINE#         500
  C:5BB9H         LINE#         501
  C:5BBCH         LINE#         503
  C:5BC8H         LINE#         504
  C:5BC8H         LINE#         505
  C:5BC8H         LINE#         506
  C:5BD0H         LINE#         507
  C:5BD2H         LINE#         509
  C:5BD2H         LINE#         510
  C:5BD7H         LINE#         511
  C:5BE0H         LINE#         512
  C:5BE0H         LINE#         514
  C:5BE0H         LINE#         517
  C:5BE8H         LINE#         518
  C:5BEAH         LINE#         519
  C:5BEFH         LINE#         520
  C:5BEFH         LINE#         521
  C:5BF2H         LINE#         522
  C:5BF2H         LINE#         523
  C:5BF9H         LINE#         524
  C:5BF9H         LINE#         525
  C:5BFCH         LINE#         527
  C:5BFCH         LINE#         528
  C:5BFCH         LINE#         530
  C:5C04H         LINE#         532
  C:5C06H         LINE#         533
  C:5C06H         LINE#         534
  C:5C12H         LINE#         535
  C:5C15H         LINE#         536
  C:5C15H         LINE#         537
  C:5C1DH         LINE#         539
  C:5C28H         LINE#         540
  C:5C28H         LINE#         541
  C:5C28H         LINE#         542
  C:5C2BH         LINE#         543
  C:5C2EH         LINE#         545
  C:5C2EH         LINE#         546
  C:5C36H         LINE#         547
  C:5C3CH         LINE#         548
  C:5C3CH         LINE#         550
BL51 BANKED LINKER/LOCATER V6.22                                                      06/13/2018  13:54:00  PAGE 43


  C:5C3CH         LINE#         551
  C:5C3FH         LINE#         553
  C:5C3FH         LINE#         554
  C:5C3FH         LINE#         555
  C:5C3FH         LINE#         557
  C:5C3FH         LINE#         558
  C:5C3FH         LINE#         560
  C:5C47H         LINE#         562
  C:5C49H         LINE#         563
  C:5C49H         LINE#         564
  C:5C52H         LINE#         565
  C:5C55H         LINE#         566
  C:5C55H         LINE#         567
  C:5C5DH         LINE#         569
  C:5C68H         LINE#         570
  C:5C68H         LINE#         571
  C:5C68H         LINE#         572
  C:5C6BH         LINE#         573
  C:5C6EH         LINE#         575
  C:5C6EH         LINE#         576
  C:5C76H         LINE#         577
  C:5C7CH         LINE#         578
  C:5C7CH         LINE#         580
  C:5C7CH         LINE#         581
  C:5C7FH         LINE#         583
  C:5C7FH         LINE#         584
  C:5C7FH         LINE#         586
  C:5C87H         LINE#         588
  C:5C89H         LINE#         589
  C:5C96H         LINE#         590
  C:5CAEH         LINE#         591
  C:5CB0H         LINE#         592
  C:5CB0H         LINE#         593
  C:5CB8H         LINE#         595
  C:5CC3H         LINE#         596
  C:5CC3H         LINE#         597
  C:5CD0H         LINE#         598
  C:5CE8H         LINE#         599
  C:5CE8H         LINE#         601
  C:5CE8H         LINE#         602
  C:5CEDH         LINE#         603
  C:5CF6H         LINE#         604
  C:5CF6H         LINE#         606
  C:5CF6H         LINE#         607
  C:5CF6H         LINE#         609
  C:5CF6H         LINE#         610
  C:5CF6H         LINE#         611
  C:5CF6H         LINE#         613
  C:5CF6H         LINE#         614
  C:5CF6H         LINE#         615
  C:5CF6H         LINE#         616
  -------         ENDPROC       _PCT_SHOWINDICATEICON
  C:3B93H         SYMBOL        L?0402
  C:3B9FH         SYMBOL        L?0405
  C:3BABH         SYMBOL        L?0408
  C:3BB5H         SYMBOL        L?0414
  C:3BBFH         SYMBOL        L?0418
BL51 BANKED LINKER/LOCATER V6.22                                                      06/13/2018  13:54:00  PAGE 44


  C:3BCBH         SYMBOL        L?0422
  C:3BD6H         SYMBOL        L?0429
  C:3BE1H         SYMBOL        L?0430
  C:3BEDH         SYMBOL        L?0437
  C:3BF7H         SYMBOL        L?0438
  C:3C02H         SYMBOL        L?0446
  C:3C0CH         SYMBOL        L?0448
  C:3C16H         SYMBOL        L?0451
  C:3C21H         SYMBOL        L?0461
  -------         PROC          _PCT_SHOWMIRRORICON
  X:00A4H         SYMBOL        _attr
  C:37FFH         LINE#         825
  C:3805H         LINE#         826
  C:3805H         LINE#         827
  C:380AH         LINE#         828
  C:383EH         LINE#         831
  C:383EH         LINE#         833
  C:3847H         LINE#         834
  C:384BH         LINE#         835
  C:384EH         LINE#         836
  C:3853H         LINE#         837
  C:3853H         LINE#         838
  C:3856H         LINE#         840
  C:3856H         LINE#         842
  C:385FH         LINE#         843
  C:3865H         LINE#         844
  C:3867H         LINE#         845
  C:386AH         LINE#         846
  C:386AH         LINE#         848
  C:3872H         LINE#         849
  C:3872H         LINE#         850
  C:3875H         LINE#         851
  C:3878H         LINE#         852
  C:3878H         LINE#         853
  C:387BH         LINE#         855
  C:387BH         LINE#         857
  C:3884H         LINE#         858
  C:388AH         LINE#         859
  C:388CH         LINE#         860
  C:388FH         LINE#         861
  C:388FH         LINE#         864
  C:3897H         LINE#         865
  C:389BH         LINE#         866
  C:389EH         LINE#         867
  C:38A3H         LINE#         868
  C:38A3H         LINE#         870
  C:38A6H         LINE#         872
  C:38A6H         LINE#         874
  C:38AFH         LINE#         875
  C:38B5H         LINE#         876
  C:38B7H         LINE#         877
  C:38BAH         LINE#         878
  C:38BAH         LINE#         881
  C:38C2H         LINE#         882
  C:38C8H         LINE#         883
  C:38CAH         LINE#         884
  C:38D2H         LINE#         885
BL51 BANKED LINKER/LOCATER V6.22                                                      06/13/2018  13:54:00  PAGE 45


  C:38D2H         LINE#         888
  C:38DBH         LINE#         889
  C:38DBH         LINE#         890
  C:38DEH         LINE#         891
  C:38E1H         LINE#         892
  C:38E1H         LINE#         893
  C:38E4H         LINE#         895
  C:38E4H         LINE#         896
  C:38E4H         LINE#         898
  C:38E4H         LINE#         900
  C:38EDH         LINE#         901
  C:38F3H         LINE#         902
  C:38F5H         LINE#         903
  C:38F8H         LINE#         904
  C:38F8H         LINE#         907
  C:3900H         LINE#         908
  C:3906H         LINE#         909
  C:3908H         LINE#         910
  C:390BH         LINE#         911
  C:390BH         LINE#         914
  C:3914H         LINE#         915
  C:3914H         LINE#         916
  C:3917H         LINE#         917
  C:391AH         LINE#         918
  C:391AH         LINE#         919
  C:391DH         LINE#         921
  C:391DH         LINE#         923
  C:3926H         LINE#         924
  C:392CH         LINE#         925
  C:392EH         LINE#         926
  C:3931H         LINE#         927
  C:3931H         LINE#         930
  C:3939H         LINE#         931
  C:393FH         LINE#         932
  C:3941H         LINE#         933
  C:3944H         LINE#         934
  C:3944H         LINE#         937
  C:394DH         LINE#         938
  C:3952H         LINE#         939
  C:3955H         LINE#         940
  C:3959H         LINE#         941
  C:3959H         LINE#         942
  C:395CH         LINE#         944
  C:395CH         LINE#         946
  C:3965H         LINE#         947
  C:396BH         LINE#         948
  C:396DH         LINE#         949
  C:3970H         LINE#         950
  C:3970H         LINE#         953
  C:3978H         LINE#         954
  C:3984H         LINE#         955
  C:3986H         LINE#         956
  C:3990H         LINE#         957
  C:3990H         LINE#         960
  C:3999H         LINE#         961
  C:399FH         LINE#         962
  C:39A1H         LINE#         963
BL51 BANKED LINKER/LOCATER V6.22                                                      06/13/2018  13:54:00  PAGE 46


  C:39A9H         LINE#         964
  C:39A9H         LINE#         967
  C:39B2H         LINE#         968
  C:39B7H         LINE#         969
  C:39BAH         LINE#         970
  C:39BDH         LINE#         971
  C:39BDH         LINE#         972
  C:39C0H         LINE#         975
  C:39C0H         LINE#         977
  C:39C9H         LINE#         978
  C:39D0H         LINE#         979
  C:39D2H         LINE#         980
  C:39D5H         LINE#         981
  C:39D5H         LINE#         982
  C:39D7H         LINE#         984
  C:39D7H         LINE#         986
  C:39E0H         LINE#         987
  C:39E6H         LINE#         988
  C:39E8H         LINE#         989
  C:39F0H         LINE#         990
  C:39F0H         LINE#         992
  C:39F8H         LINE#         993
  C:39FFH         LINE#         994
  C:3A02H         LINE#         995
  C:3A07H         LINE#         996
  C:3A07H         LINE#         997
  C:3A0AH         LINE#         999
  C:3A0AH         LINE#         1001
  C:3A13H         LINE#         1002
  C:3A19H         LINE#         1003
  C:3A1BH         LINE#         1004
  C:3A23H         LINE#         1005
  C:3A23H         LINE#         1008
  C:3A2BH         LINE#         1009
  C:3A34H         LINE#         1010
  C:3A37H         LINE#         1011
  C:3A3CH         LINE#         1012
  C:3A3CH         LINE#         1014
  C:3A3FH         LINE#         1016
  C:3A3FH         LINE#         1018
  C:3A48H         LINE#         1019
  C:3A4EH         LINE#         1020
  C:3A50H         LINE#         1021
  C:3A58H         LINE#         1022
  C:3A58H         LINE#         1025
  C:3A60H         LINE#         1026
  C:3A66H         LINE#         1027
  C:3A68H         LINE#         1028
  C:3A70H         LINE#         1029
  C:3A70H         LINE#         1032
  C:3A79H         LINE#         1033
  C:3A80H         LINE#         1034
  C:3A83H         LINE#         1035
  C:3A88H         LINE#         1036
  C:3A88H         LINE#         1037
  C:3A8BH         LINE#         1039
  C:3A8BH         LINE#         1040
BL51 BANKED LINKER/LOCATER V6.22                                                      06/13/2018  13:54:00  PAGE 47


  C:3A8BH         LINE#         1042
  C:3A8BH         LINE#         1044
  C:3A94H         LINE#         1045
  C:3A9AH         LINE#         1046
  C:3A9CH         LINE#         1047
  C:3AA4H         LINE#         1048
  C:3AA4H         LINE#         1051
  C:3AACH         LINE#         1052
  C:3AB2H         LINE#         1053
  C:3AB4H         LINE#         1054
  C:3ABCH         LINE#         1055
  C:3ABCH         LINE#         1058
  C:3AC5H         LINE#         1059
  C:3ACCH         LINE#         1060
  C:3ACFH         LINE#         1061
  C:3AD4H         LINE#         1062
  C:3AD4H         LINE#         1063
  C:3AD7H         LINE#         1065
  C:3AD7H         LINE#         1067
  C:3AE0H         LINE#         1068
  C:3AE6H         LINE#         1069
  C:3AE8H         LINE#         1070
  C:3AF0H         LINE#         1071
  C:3AF0H         LINE#         1074
  C:3AF8H         LINE#         1075
  C:3AFEH         LINE#         1076
  C:3B00H         LINE#         1077
  C:3B08H         LINE#         1078
  C:3B08H         LINE#         1081
  C:3B11H         LINE#         1082
  C:3B18H         LINE#         1083
  C:3B1BH         LINE#         1084
  C:3B23H         LINE#         1085
  C:3B23H         LINE#         1086
  C:3B26H         LINE#         1088
  C:3B26H         LINE#         1090
  C:3B2FH         LINE#         1091
  C:3B35H         LINE#         1092
  C:3B37H         LINE#         1093
  C:3B3FH         LINE#         1094
  C:3B3FH         LINE#         1097
  C:3B47H         LINE#         1098
  C:3B52H         LINE#         1099
  C:3B54H         LINE#         1100
  C:3B5CH         LINE#         1101
  C:3B5CH         LINE#         1104
  C:3B65H         LINE#         1105
  C:3B6BH         LINE#         1106
  C:3B6DH         LINE#         1107
  C:3B75H         LINE#         1108
  C:3B75H         LINE#         1111
  C:3B7EH         LINE#         1112
  C:3B8AH         LINE#         1113
  C:3B8AH         LINE#         1114
  C:3B92H         LINE#         1115
  C:3B92H         LINE#         1116
  C:3B92H         LINE#         1407
BL51 BANKED LINKER/LOCATER V6.22                                                      06/13/2018  13:54:00  PAGE 48


  C:3B92H         LINE#         1408
  C:3B92H         LINE#         1409
  C:3B92H         LINE#         1410
  -------         ENDPROC       _PCT_SHOWMIRRORICON
  C:3FADH         SYMBOL        L?0403
  C:3FB9H         SYMBOL        L?0406
  C:3FC5H         SYMBOL        L?0409
  C:3FCFH         SYMBOL        L?0415
  C:3FD9H         SYMBOL        L?0416
  C:3FE4H         SYMBOL        L?0425
  C:3FEFH         SYMBOL        L?0426
  C:3FFBH         SYMBOL        L?0432
  C:4005H         SYMBOL        L?0435
  C:4010H         SYMBOL        L?0440
  C:401AH         SYMBOL        L?0442
  C:4025H         SYMBOL        L?0447
  C:402FH         SYMBOL        L?0452
  C:4039H         SYMBOL        L?0454
  C:4044H         SYMBOL        L?0462
  -------         PROC          _PCT_SHOWSPEAKICON
  X:00A4H         SYMBOL        _attr
  C:3C2BH         LINE#         2011
  C:3C31H         LINE#         2012
  C:3C31H         LINE#         2013
  C:3C36H         LINE#         2014
  C:3C67H         LINE#         2017
  C:3C67H         LINE#         2018
  C:3C72H         LINE#         2019
  C:3C72H         LINE#         2020
  C:3C74H         LINE#         2021
  C:3C79H         LINE#         2022
  C:3C79H         LINE#         2023
  C:3C7CH         LINE#         2025
  C:3C7CH         LINE#         2026
  C:3C87H         LINE#         2027
  C:3C8DH         LINE#         2028
  C:3C8FH         LINE#         2029
  C:3C92H         LINE#         2030
  C:3C92H         LINE#         2031
  C:3C9DH         LINE#         2032
  C:3CA1H         LINE#         2033
  C:3CA4H         LINE#         2034
  C:3CA7H         LINE#         2035
  C:3CA7H         LINE#         2036
  C:3CAAH         LINE#         2038
  C:3CAAH         LINE#         2039
  C:3CB5H         LINE#         2040
  C:3CBBH         LINE#         2041
  C:3CBDH         LINE#         2042
  C:3CC0H         LINE#         2043
  C:3CC0H         LINE#         2044
  C:3CC8H         LINE#         2045
  C:3CCCH         LINE#         2046
  C:3CCFH         LINE#         2047
  C:3CD4H         LINE#         2048
  C:3CD4H         LINE#         2049
  C:3CD7H         LINE#         2051
BL51 BANKED LINKER/LOCATER V6.22                                                      06/13/2018  13:54:00  PAGE 49


  C:3CD7H         LINE#         2052
  C:3CE2H         LINE#         2053
  C:3CE8H         LINE#         2054
  C:3CEAH         LINE#         2055
  C:3CEDH         LINE#         2056
  C:3CEDH         LINE#         2057
  C:3CF5H         LINE#         2058
  C:3CFBH         LINE#         2059
  C:3CFDH         LINE#         2060
  C:3D05H         LINE#         2061
  C:3D05H         LINE#         2062
  C:3D10H         LINE#         2063
  C:3D10H         LINE#         2064
  C:3D13H         LINE#         2065
  C:3D16H         LINE#         2066
  C:3D16H         LINE#         2067
  C:3D19H         LINE#         2069
  C:3D19H         LINE#         2070
  C:3D19H         LINE#         2072
  C:3D19H         LINE#         2073
  C:3D24H         LINE#         2074
  C:3D2AH         LINE#         2075
  C:3D2CH         LINE#         2076
  C:3D2FH         LINE#         2077
  C:3D2FH         LINE#         2078
  C:3D37H         LINE#         2079
  C:3D3DH         LINE#         2080
  C:3D3FH         LINE#         2081
  C:3D42H         LINE#         2082
  C:3D42H         LINE#         2083
  C:3D4DH         LINE#         2084
  C:3D4DH         LINE#         2085
  C:3D50H         LINE#         2086
  C:3D53H         LINE#         2087
  C:3D53H         LINE#         2088
  C:3D56H         LINE#         2090
  C:3D56H         LINE#         2091
  C:3D61H         LINE#         2092
  C:3D67H         LINE#         2093
  C:3D69H         LINE#         2094
  C:3D6CH         LINE#         2095
  C:3D6CH         LINE#         2096
  C:3D74H         LINE#         2097
  C:3D7AH         LINE#         2098
  C:3D7CH         LINE#         2099
  C:3D7FH         LINE#         2100
  C:3D7FH         LINE#         2101
  C:3D8AH         LINE#         2102
  C:3D8FH         LINE#         2103
  C:3D92H         LINE#         2104
  C:3D96H         LINE#         2105
  C:3D96H         LINE#         2106
  C:3D99H         LINE#         2108
  C:3D99H         LINE#         2109
  C:3DA4H         LINE#         2110
  C:3DAAH         LINE#         2111
  C:3DACH         LINE#         2112
BL51 BANKED LINKER/LOCATER V6.22                                                      06/13/2018  13:54:00  PAGE 50


  C:3DAFH         LINE#         2113
  C:3DAFH         LINE#         2114
  C:3DB7H         LINE#         2115
  C:3DBDH         LINE#         2116
  C:3DBFH         LINE#         2117
  C:3DC2H         LINE#         2118
  C:3DC2H         LINE#         2119
  C:3DCDH         LINE#         2120
  C:3DD3H         LINE#         2121
  C:3DD5H         LINE#         2122
  C:3DDDH         LINE#         2123
  C:3DDDH         LINE#         2124
  C:3DE8H         LINE#         2125
  C:3DEDH         LINE#         2126
  C:3DF0H         LINE#         2127
  C:3DF3H         LINE#         2128
  C:3DF3H         LINE#         2129
  C:3DF6H         LINE#         2132
  C:3DF6H         LINE#         2133
  C:3E01H         LINE#         2134
  C:3E0AH         LINE#         2135
  C:3E0DH         LINE#         2136
  C:3E12H         LINE#         2137
  C:3E12H         LINE#         2138
  C:3E15H         LINE#         2140
  C:3E15H         LINE#         2141
  C:3E15H         LINE#         2143
  C:3E15H         LINE#         2144
  C:3E20H         LINE#         2145
  C:3E26H         LINE#         2146
  C:3E28H         LINE#         2147
  C:3E30H         LINE#         2148
  C:3E30H         LINE#         2149
  C:3E38H         LINE#         2150
  C:3E41H         LINE#         2151
  C:3E44H         LINE#         2152
  C:3E49H         LINE#         2153
  C:3E49H         LINE#         2154
  C:3E4CH         LINE#         2156
  C:3E4CH         LINE#         2157
  C:3E57H         LINE#         2158
  C:3E62H         LINE#         2159
  C:3E64H         LINE#         2160
  C:3E6CH         LINE#         2161
  C:3E6CH         LINE#         2162
  C:3E74H         LINE#         2163
  C:3E7AH         LINE#         2164
  C:3E7CH         LINE#         2165
  C:3E84H         LINE#         2166
  C:3E84H         LINE#         2167
  C:3E8FH         LINE#         2168
  C:3E96H         LINE#         2169
  C:3E99H         LINE#         2170
  C:3E9EH         LINE#         2171
  C:3E9EH         LINE#         2172
  C:3EA1H         LINE#         2174
  C:3EA1H         LINE#         2175
BL51 BANKED LINKER/LOCATER V6.22                                                      06/13/2018  13:54:00  PAGE 51


  C:3EA1H         LINE#         2177
  C:3EA1H         LINE#         2178
  C:3EACH         LINE#         2179
  C:3EB2H         LINE#         2180
  C:3EB4H         LINE#         2181
  C:3EBCH         LINE#         2182
  C:3EBCH         LINE#         2183
  C:3EC4H         LINE#         2184
  C:3ECAH         LINE#         2185
  C:3ECCH         LINE#         2186
  C:3ED4H         LINE#         2187
  C:3ED4H         LINE#         2188
  C:3EDFH         LINE#         2189
  C:3EE6H         LINE#         2190
  C:3EE9H         LINE#         2191
  C:3EEEH         LINE#         2192
  C:3EEEH         LINE#         2193
  C:3EF1H         LINE#         2195
  C:3EF1H         LINE#         2196
  C:3EFCH         LINE#         2197
  C:3F02H         LINE#         2198
  C:3F04H         LINE#         2199
  C:3F0CH         LINE#         2200
  C:3F0CH         LINE#         2201
  C:3F14H         LINE#         2202
  C:3F1AH         LINE#         2203
  C:3F1CH         LINE#         2204
  C:3F1FH         LINE#         2205
  C:3F1FH         LINE#         2206
  C:3F2AH         LINE#         2207
  C:3F31H         LINE#         2208
  C:3F34H         LINE#         2209
  C:3F3CH         LINE#         2210
  C:3F3CH         LINE#         2211
  C:3F3FH         LINE#         2213
  C:3F3FH         LINE#         2214
  C:3F4AH         LINE#         2215
  C:3F50H         LINE#         2216
  C:3F52H         LINE#         2217
  C:3F5AH         LINE#         2218
  C:3F5AH         LINE#         2219
  C:3F62H         LINE#         2220
  C:3F68H         LINE#         2221
  C:3F6AH         LINE#         2222
  C:3F72H         LINE#         2223
  C:3F72H         LINE#         2224
  C:3F7DH         LINE#         2225
  C:3F83H         LINE#         2226
  C:3F85H         LINE#         2227
  C:3F8DH         LINE#         2228
  C:3F8DH         LINE#         2229
  C:3F98H         LINE#         2230
  C:3FA4H         LINE#         2231
  C:3FA4H         LINE#         2232
  C:3FACH         LINE#         2233
  C:3FACH         LINE#         2234
  C:3FACH         LINE#         2457
BL51 BANKED LINKER/LOCATER V6.22                                                      06/13/2018  13:54:00  PAGE 52


  C:3FACH         LINE#         2458
  C:3FACH         LINE#         2459
  C:3FACH         LINE#         2460
  -------         ENDPROC       _PCT_SHOWSPEAKICON
  C:7FE9H         SYMBOL        L?0449
  -------         PROC          PCT_SHOWMODEICON
  C:7FB4H         LINE#         3151
  C:7FB4H         LINE#         3152
  C:7FB4H         LINE#         3153
  C:7FB9H         LINE#         3155
  C:7FC3H         LINE#         3156
  C:7FC3H         LINE#         3157
  C:7FC3H         LINE#         3158
  C:7FC3H         LINE#         3159
  C:7FC3H         LINE#         3160
  C:7FCCH         LINE#         3161
  C:7FCCH         LINE#         3162
  C:7FCEH         LINE#         3164
  C:7FCEH         LINE#         3165
  C:7FCEH         LINE#         3166
  C:7FCEH         LINE#         3167
  C:7FE3H         LINE#         3168
  C:7FE8H         LINE#         3169
  C:7FE8H         LINE#         3171
  C:7FE8H         LINE#         3172
  C:7FE8H         LINE#         3173
  C:7FE8H         LINE#         3174
  -------         ENDPROC       PCT_SHOWMODEICON
  -------         PROC          PCT_OSDACTIONFORHS
  C:85ADH         LINE#         3205
  C:85ADH         LINE#         3206
  C:85ADH         LINE#         3207
  C:85B2H         LINE#         3209
  C:85B8H         LINE#         3213
  C:85B8H         LINE#         3215
  C:85BEH         LINE#         3218
  C:85C4H         LINE#         3220
  C:85CAH         LINE#         3221
  C:85CAH         LINE#         3222
  C:85CDH         LINE#         3223
  -------         ENDPROC       PCT_OSDACTIONFORHS
  -------         ENDMOD        OSDACTION

  -------         MODULE        OSDCTRL
  C:0000H         SYMBOL        _ICE_DUMMY_
  D:0090H         PUBLIC        P1
  C:250CH         PUBLIC        FONT_TABLE
  D:00B0H         PUBLIC        P3
  C:75DFH         PUBLIC        _PCT_FullColorOnOSD
  C:82D7H         PUBLIC        _PCT_EnShowOSDPage
  D:00A8H         PUBLIC        IE
  D:0016H         PUBLIC        backColor
  D:00B8H         PUBLIC        IP
  D:00D8H         PUBLIC        CCON
  C:8801H         PUBLIC        _PCT_PreSetBackgroundColor
  C:753EH         PUBLIC        _PCT_ClearWordsPathX
  D:0017H         PUBLIC        foreColor
BL51 BANKED LINKER/LOCATER V6.22                                                      06/13/2018  13:54:00  PAGE 53


  D:00C0H         PUBLIC        WDTC
  D:0098H         PUBLIC        SCON
  D:0088H         PUBLIC        TCON
  C:7295H         PUBLIC        _PCT_WriteOSDFntX
  C:738CH         PUBLIC        _PCT_WriteOSDFntY
  C:87FEH         PUBLIC        _PCT_PreSetForegroundColor
  C:6D0EH         PUBLIC        PCT_InitOSDColor
  B:0022H.0       PUBLIC        DAT_BIT0
  B:0022H.1       PUBLIC        DAT_BIT1
  B:0022H.2       PUBLIC        DAT_BIT2
  B:0022H.3       PUBLIC        DAT_BIT3
  B:0022H.4       PUBLIC        DAT_BIT4
  B:0022H.5       PUBLIC        DAT_BIT5
  C:7A9DH         PUBLIC        _PCT_ShowOSDString
  D:00E8H         PUBLIC        IEA
  B:0022H.6       PUBLIC        DAT_BIT6
  B:0022H.7       PUBLIC        DAT_BIT7
  D:00F8H         PUBLIC        IPA
  C:7D67H         PUBLIC        _PCT_SetOSDColor
  D:00C8H         PUBLIC        T2CON
  C:861AH         PUBLIC        _PCT_SetOSDDrawPage
  C:67DCH         PUBLIC        _PCT_WriteOSDDataBufferX
  C:866DH         PUBLIC        _PCT_ClearOSDPageX
  C:6F5DH         PUBLIC        _PCT_WriteOSDDataBufferY
  C:8637H         PUBLIC        _PCT_DisShowOSDPage
  D:00D0H         PUBLIC        PSW
  D:0022H         PUBLIC        bitdat
  C:6945H         SYMBOL        Com0080
  C:6945H         SYMBOL        L?0129
  C:6951H         SYMBOL        L?0130
  C:6959H         SYMBOL        L?0131
  C:695CH         SYMBOL        L?0132
  C:6965H         SYMBOL        L?0133
  C:6965H         SYMBOL        L?0134
  C:696AH         SYMBOL        L?0135
  C:696CH         SYMBOL        L?0136
  C:696DH         SYMBOL        L?0137
  C:6974H         SYMBOL        L?0142
  C:6981H         SYMBOL        L?0143
  C:6983H         SYMBOL        L?0144
  C:698AH         SYMBOL        L?0146
  C:6993H         SYMBOL        L?0147
  C:699DH         SYMBOL        L?0149
  C:69A4H         SYMBOL        L?0150
  C:69B0H         SYMBOL        L?0151
  C:69B2H         SYMBOL        L?0152
  C:69B4H         SYMBOL        L?0153
  C:69BCH         SYMBOL        L?0154
  C:69BEH         SYMBOL        L?0155
  C:69C0H         SYMBOL        L?0156
  C:69C8H         SYMBOL        L?0157
  C:69CAH         SYMBOL        L?0158
  C:69CCH         SYMBOL        L?0159
  C:69D4H         SYMBOL        L?0160
  C:69D4H         SYMBOL        L?0161
  C:69E0H         SYMBOL        L?0162
  C:69E4H         SYMBOL        L?0163
BL51 BANKED LINKER/LOCATER V6.22                                                      06/13/2018  13:54:00  PAGE 54


  C:69ECH         SYMBOL        L?0165
  C:69EFH         SYMBOL        L?0166
  C:69FCH         SYMBOL        L?0167
  C:6A14H         SYMBOL        L?0168
  C:6A14H         SYMBOL        L?0169
  C:6A16H         SYMBOL        L?0170
  C:6A1DH         SYMBOL        L?0171
  C:6A33H         SYMBOL        L?0172
  C:6A36H         SYMBOL        L?0173
  C:6A3DH         SYMBOL        L?0174
  C:6A3DH         SYMBOL        L?0175
  C:6A3FH         SYMBOL        L?0176
  C:6A47H         SYMBOL        L?0179
  C:6A49H         SYMBOL        L?0180
  C:6A51H         SYMBOL        L?0182
  C:6A60H         SYMBOL        L?0183
  C:6A62H         SYMBOL        L?0184
  C:6A6AH         SYMBOL        L?0185
  C:6A6BH         SYMBOL        L?0186
  C:6A73H         SYMBOL        L?0187
  C:6A7FH         SYMBOL        L?0188
  C:6A8AH         SYMBOL        L?0189
  C:6A95H         SYMBOL        L?0190
  C:6A95H         SYMBOL        L?0191
  -------         PROC          COM0080
  -------         ENDPROC       COM0080
  -------         PROC          _PCT_PRESETFOREGROUNDCOLOR
  D:0007H         SYMBOL        _color
  C:87FEH         LINE#         81
  C:87FEH         LINE#         82
  C:87FEH         LINE#         83
  C:8800H         LINE#         85
  -------         ENDPROC       _PCT_PRESETFOREGROUNDCOLOR
  -------         PROC          _PCT_PRESETBACKGROUNDCOLOR
  D:0007H         SYMBOL        _color
  C:8801H         LINE#         91
  C:8801H         LINE#         92
  C:8801H         LINE#         93
  C:8803H         LINE#         95
  -------         ENDPROC       _PCT_PRESETBACKGROUNDCOLOR
  C:7DAFH         SYMBOL        L?0181
  -------         PROC          _PCT_SETOSDCOLOR
  X:00A4H         SYMBOL        _pth
  X:00A5H         SYMBOL        _col_num
  D:0003H         SYMBOL        _y
  X:00A7H         SYMBOL        _cb
  X:00A8H         SYMBOL        _cr
  C:7D67H         LINE#         101
  C:7D6EH         LINE#         102
  C:7D6EH         LINE#         103
  C:7D77H         LINE#         104
  C:7D82H         LINE#         105
  C:7D91H         LINE#         107
  C:7D97H         LINE#         111
  C:7D9DH         LINE#         113
  C:7DAEH         LINE#         114
  -------         ENDPROC       _PCT_SETOSDCOLOR
BL51 BANKED LINKER/LOCATER V6.22                                                      06/13/2018  13:54:00  PAGE 55


  C:6E09H         SYMBOL        L?0139
  C:6E13H         SYMBOL        L?0141
  C:6E1DH         SYMBOL        L?0145
  C:6E25H         SYMBOL        L?0148
  C:6E2DH         SYMBOL        L?0164
  C:6E35H         SYMBOL        L?0177
  -------         PROC          PCT_INITOSDCOLOR
  C:6D0EH         LINE#         120
  C:6D0EH         LINE#         121
  C:6D0EH         LINE#         122
  C:6D1CH         LINE#         123
  C:6D26H         LINE#         124
  C:6D2BH         LINE#         125
  C:6D39H         LINE#         126
  C:6D45H         LINE#         128
  C:6D50H         LINE#         129
  C:6D58H         LINE#         130
  C:6D66H         LINE#         131
  C:6D72H         LINE#         132
  C:6D7EH         LINE#         133
  C:6D8AH         LINE#         134
  C:6D96H         LINE#         135
  C:6DA2H         LINE#         136
  C:6DB0H         LINE#         137
  C:6DC2H         LINE#         138
  C:6DD4H         LINE#         139
  C:6DE6H         LINE#         140
  C:6DF7H         LINE#         141
  C:6E03H         LINE#         143
  C:6E06H         LINE#         144
  C:6E08H         LINE#         145
  -------         ENDPROC       PCT_INITOSDCOLOR
  -------         PROC          _PCT_SETOSDDRAWPAGE
  X:00AAH         SYMBOL        _page
  C:861AH         LINE#         151
  C:861DH         LINE#         152
  C:861DH         LINE#         153
  C:8631H         LINE#         154
  -------         ENDPROC       _PCT_SETOSDDRAWPAGE
  C:82F8H         SYMBOL        L?0178
  -------         PROC          _PCT_ENSHOWOSDPAGE
  X:00AAH         SYMBOL        _page
  C:82D7H         LINE#         161
  C:82DBH         LINE#         162
  C:82DBH         LINE#         163
  C:82E3H         LINE#         164
  C:82E6H         LINE#         165
  C:82E8H         LINE#         166
  C:82EAH         LINE#         167
  C:82EEH         LINE#         168
  C:82F7H         LINE#         169
  C:82F7H         LINE#         170
  -------         ENDPROC       _PCT_ENSHOWOSDPAGE
  -------         PROC          _PCT_DISSHOWOSDPAGE
  X:00A4H         SYMBOL        _bit
  -------         DO            
  D:0006H         SYMBOL        dat
BL51 BANKED LINKER/LOCATER V6.22                                                      06/13/2018  13:54:00  PAGE 56


  -------         ENDDO         
  C:8637H         LINE#         176
  C:863AH         LINE#         177
  C:863AH         LINE#         179
  C:8646H         LINE#         180
  -------         ENDPROC       _PCT_DISSHOWOSDPAGE
  -------         PROC          _PCT_FULLCOLORONOSD
  X:00A4H         SYMBOL        _posx
  X:00A5H         SYMBOL        _posy
  X:00A7H         SYMBOL        _wide
  X:00A8H         SYMBOL        _high
  C:75DFH         LINE#         189
  C:75E1H         LINE#         190
  C:75E1H         LINE#         191
  C:75E7H         LINE#         192
  C:75EDH         LINE#         193
  C:75F3H         LINE#         194
  C:75F9H         LINE#         196
  C:75FFH         LINE#         197
  C:7613H         LINE#         198
  C:7620H         LINE#         199
  C:7639H         LINE#         201
  C:7640H         LINE#         202
  C:7648H         LINE#         203
  C:7650H         LINE#         204
  C:7658H         LINE#         205
  C:7663H         LINE#         207
  C:7672H         LINE#         208
  C:767CH         LINE#         209
  -------         ENDPROC       _PCT_FULLCOLORONOSD
  -------         PROC          _PCT_CLEAROSDPAGEX
  D:0007H         SYMBOL        _page
  C:866DH         LINE#         211
  C:866DH         LINE#         212
  C:866DH         LINE#         213
  C:8670H         LINE#         215
  C:8675H         LINE#         216
  -------         ENDPROC       _PCT_CLEAROSDPAGEX
  C:6903H         SYMBOL        L?0127
  C:6922H         SYMBOL        L?0138
  C:6930H         SYMBOL        L?0140
  C:693EH         SYMBOL        L?0192
  -------         PROC          _PCT_WRITEOSDDATABUFFERX
  X:00C4H         SYMBOL        _index
  X:00C5H         SYMBOL        _dat
  C:67DCH         LINE#         223
  C:67E1H         LINE#         224
  C:67E1H         LINE#         225
  C:67EBH         LINE#         226
  C:67FBH         LINE#         227
  C:6807H         LINE#         228
  C:6813H         LINE#         229
  C:681CH         LINE#         230
  C:681FH         LINE#         231
  C:6824H         LINE#         233
  C:6836H         LINE#         234
  C:6842H         LINE#         235
BL51 BANKED LINKER/LOCATER V6.22                                                      06/13/2018  13:54:00  PAGE 57


  C:684EH         LINE#         236
  C:6857H         LINE#         237
  C:685AH         LINE#         238
  C:685FH         LINE#         240
  C:6868H         LINE#         241
  C:687AH         LINE#         242
  C:688AH         LINE#         243
  C:689AH         LINE#         244
  C:68A7H         LINE#         245
  C:68ADH         LINE#         246
  C:68B2H         LINE#         248
  C:68C4H         LINE#         249
  C:68D6H         LINE#         250
  C:68E8H         LINE#         251
  C:68FAH         LINE#         252
  C:6903H         LINE#         253
  -------         ENDPROC       _PCT_WRITEOSDDATABUFFERX
  -------         PROC          _PCT_WRITEOSDFNTX
  D:0007H         SYMBOL        _posx
  X:00B2H         SYMBOL        _posy
  X:00B4H         SYMBOL        _len
  X:00B5H         SYMBOL        _indx
  -------         DO            
  D:0029H         SYMBOL        i
  D:002AH         SYMBOL        j
  D:002BH         SYMBOL        posx
  X:00B8H         SYMBOL        charPtr
  -------         ENDDO         
  C:7295H         LINE#         263
  C:729AH         LINE#         264
  C:729AH         LINE#         268
  C:729DH         LINE#         269
  C:72A2H         LINE#         270
  C:72B4H         LINE#         271
  C:72BEH         LINE#         272
  C:72C8H         LINE#         273
  C:72D0H         LINE#         274
  C:72DBH         LINE#         275
  C:72EBH         LINE#         277
  C:72F6H         LINE#         278
  C:7303H         LINE#         279
  C:732FH         LINE#         280
  C:7337H         LINE#         281
  C:733FH         LINE#         283
  C:7348H         LINE#         284
  C:7354H         LINE#         285
  C:735EH         LINE#         287
  C:7369H         LINE#         288
  C:7375H         LINE#         289
  C:737FH         LINE#         291
  C:7384H         LINE#         292
  C:738BH         LINE#         293
  -------         ENDPROC       _PCT_WRITEOSDFNTX
  -------         PROC          _PCT_CLEARWORDSPATHX
  X:00A7H         SYMBOL        _posx
  X:00A8H         SYMBOL        _posy
  X:00AAH         SYMBOL        _len
BL51 BANKED LINKER/LOCATER V6.22                                                      06/13/2018  13:54:00  PAGE 58


  -------         DO            
  X:00ABH         SYMBOL        wide
  X:00ACH         SYMBOL        high
  -------         ENDDO         
  C:753EH         LINE#         302
  C:7540H         LINE#         303
  C:7540H         LINE#         307
  C:7546H         LINE#         308
  C:754CH         LINE#         309
  C:7552H         LINE#         310
  C:7558H         LINE#         312
  C:755FH         LINE#         313
  C:7562H         LINE#         314
  C:7572H         LINE#         315
  C:757AH         LINE#         317
  C:758BH         LINE#         318
  C:7599H         LINE#         320
  C:75A2H         LINE#         321
  C:75AAH         LINE#         322
  C:75B2H         LINE#         323
  C:75BAH         LINE#         324
  C:75C5H         LINE#         326
  C:75D4H         LINE#         327
  C:75DEH         LINE#         328
  -------         ENDPROC       _PCT_CLEARWORDSPATHX
  -------         PROC          _PCT_WRITEOSDDATABUFFERY
  X:00D0H         SYMBOL        _index
  X:00D1H         SYMBOL        _dat
  C:6F5DH         LINE#         334
  C:6F62H         LINE#         335
  C:6F62H         LINE#         336
  C:6F6CH         LINE#         337
  C:6F8BH         LINE#         338
  C:6FAAH         LINE#         339
  C:6FC9H         LINE#         340
  C:6FE8H         LINE#         341
  C:6FEEH         LINE#         343
  C:6FF8H         LINE#         344
  C:7017H         LINE#         345
  C:7036H         LINE#         346
  C:7055H         LINE#         347
  C:7074H         LINE#         348
  -------         ENDPROC       _PCT_WRITEOSDDATABUFFERY
  -------         PROC          _PCT_WRITEOSDFNTY
  X:00B1H         SYMBOL        _posx
  X:00B2H         SYMBOL        _posy
  X:00B4H         SYMBOL        _len
  X:00B5H         SYMBOL        _indx
  -------         DO            
  D:0029H         SYMBOL        i
  D:002AH         SYMBOL        j
  X:00B8H         SYMBOL        charPtr
  -------         ENDDO         
  C:738CH         LINE#         359
  C:7394H         LINE#         360
  C:7394H         LINE#         364
  C:739BH         LINE#         365
BL51 BANKED LINKER/LOCATER V6.22                                                      06/13/2018  13:54:00  PAGE 59


  C:739EH         LINE#         366
  C:73AEH         LINE#         367
  C:73B6H         LINE#         369
  C:73C1H         LINE#         370
  C:73CEH         LINE#         371
  C:73EDH         LINE#         373
  C:73F7H         LINE#         374
  C:7421H         LINE#         375
  C:742AH         LINE#         376
  C:7432H         LINE#         377
  C:744BH         LINE#         378
  C:7457H         LINE#         379
  C:7461H         LINE#         380
  C:7466H         LINE#         381
  C:746DH         LINE#         382
  -------         ENDPROC       _PCT_WRITEOSDFNTY
  -------         PROC          _PCT_SHOWOSDSTRING
  X:00AAH         SYMBOL        _path
  X:00ABH         SYMBOL        _addrx
  X:00ACH         SYMBOL        _addry
  X:00ADH         SYMBOL        _strptr
  -------         DO            
  X:00B0H         SYMBOL        slen
  -------         ENDDO         
  C:7A9DH         LINE#         388
  C:7AA3H         LINE#         389
  C:7AA3H         LINE#         392
  C:7AAEH         LINE#         393
  C:7AB5H         LINE#         395
  C:7ABBH         LINE#         399
  C:7ABBH         LINE#         400
  C:7ABBH         LINE#         401
  C:7AC7H         LINE#         402
  C:7ACDH         LINE#         403
  C:7AD4H         LINE#         404
  C:7AD4H         LINE#         405
  C:7AD9H         LINE#         406
  C:7ADBH         LINE#         407
  C:7ADBH         LINE#         408
  C:7AE7H         LINE#         409
  C:7AEDH         LINE#         410
  C:7AF4H         LINE#         411
  C:7AF4H         LINE#         412
  C:7AF9H         LINE#         413
  C:7AF9H         LINE#         414
  C:7AFCH         LINE#         415
  -------         ENDPROC       _PCT_SHOWOSDSTRING
  -------         ENDMOD        OSDCTRL

  -------         MODULE        TIMER
  C:0000H         SYMBOL        _ICE_DUMMY_
  D:0090H         PUBLIC        P1
  D:00B0H         PUBLIC        P3
  C:86E1H         PUBLIC        InitialTimer0
  B:00A8H.7       PUBLIC        EA
  C:7CC1H         PUBLIC        Timer0_interrupt
  D:00A8H         PUBLIC        IE
BL51 BANKED LINKER/LOCATER V6.22                                                      06/13/2018  13:54:00  PAGE 60


  D:00B8H         PUBLIC        IP
  D:00D8H         PUBLIC        CCON
  D:00C0H         PUBLIC        WDTC
  D:0098H         PUBLIC        SCON
  D:0088H         PUBLIC        TCON
  D:0010H         PUBLIC        user_timer
  B:00A8H.1       PUBLIC        ET0
  B:0088H.5       PUBLIC        TF0
  D:008CH         PUBLIC        TH0
  D:00E8H         PUBLIC        IEA
  D:008AH         PUBLIC        TL0
  B:00B8H.1       PUBLIC        PT0
  B:0088H.4       PUBLIC        TR0
  D:00F8H         PUBLIC        IPA
  D:00C8H         PUBLIC        T2CON
  D:00D0H         PUBLIC        PSW
  -------         PROC          INITIALTIMER0
  -------         DO            
  D:0007H         SYMBOL        i
  -------         ENDDO         
  C:86E1H         LINE#         63
  C:86E1H         LINE#         66
  C:86E3H         LINE#         67
  C:86E5H         LINE#         68
  C:86E8H         LINE#         69
  C:86EBH         LINE#         70
  C:86EDH         LINE#         72
  C:86EDH         LINE#         73
  C:86F6H         LINE#         74
  -------         ENDPROC       INITIALTIMER0
  -------         PROC          TIMER0_INTERRUPT
  C:7CC1H         LINE#         80
  C:7CC5H         LINE#         82
  C:7CC7H         LINE#         83
  C:7CCAH         LINE#         84
  C:7CCDH         LINE#         85
  C:7CCFH         LINE#         87
  C:7CE4H         LINE#         88
  C:7CF9H         LINE#         89
  C:7D0EH         LINE#         91
  C:7D10H         LINE#         92
  -------         ENDPROC       TIMER0_INTERRUPT
  -------         ENDMOD        TIMER

  -------         MODULE        TW28XX_AUDIO
  C:0000H         SYMBOL        _ICE_DUMMY_
  D:0090H         PUBLIC        P1
  D:00B0H         PUBLIC        P3
  C:7A3CH         PUBLIC        _PCT_AudioMixCtrl
  C:83D8H         PUBLIC        _PCT_AudioMixMute
  D:00A8H         PUBLIC        IE
  D:00B8H         PUBLIC        IP
  D:00D8H         PUBLIC        CCON
  D:00C0H         PUBLIC        WDTC
  D:0098H         PUBLIC        SCON
  D:0088H         PUBLIC        TCON
  D:00E8H         PUBLIC        IEA
BL51 BANKED LINKER/LOCATER V6.22                                                      06/13/2018  13:54:00  PAGE 61


  C:7BB9H         PUBLIC        _PCT_AudioGainCtrl
  D:00F8H         PUBLIC        IPA
  D:00C8H         PUBLIC        T2CON
  C:850FH         PUBLIC        _PCT_AudioSelLive
  D:00D0H         PUBLIC        PSW
  C:6196H         PUBLIC        PCT_AudioRegList
  C:80C2H         SYMBOL        Com0017
  C:80C2H         SYMBOL        L?0024
  C:80C4H         SYMBOL        L?0025
  C:80D0H         SYMBOL        L?0026
  C:80DCH         SYMBOL        L?0028
  C:80DFH         SYMBOL        L?0029
  C:80EBH         SYMBOL        L?0031
  C:80F7H         SYMBOL        L?0032
  -------         PROC          COM0017
  -------         ENDPROC       COM0017
  C:6288H         SYMBOL        L?0014
  C:629AH         SYMBOL        L?0015
  C:62ACH         SYMBOL        L?0016
  C:62BEH         SYMBOL        L?0017
  C:62D0H         SYMBOL        L?0018
  C:62E2H         SYMBOL        L?0019
  C:62F4H         SYMBOL        L?0020
  C:6306H         SYMBOL        L?0021
  C:6318H         SYMBOL        L?0022
  C:632AH         SYMBOL        L?0027
  C:633CH         SYMBOL        L?0030
  -------         PROC          PCT_AUDIOREGLIST
  C:6196H         LINE#         60
  C:6196H         LINE#         61
  C:6196H         LINE#         62
  C:61A1H         LINE#         63
  C:61ACH         LINE#         64
  C:61B7H         LINE#         65
  C:61C2H         LINE#         66
  C:61CDH         LINE#         68
  C:61D8H         LINE#         69
  C:61E3H         LINE#         70
  C:61EEH         LINE#         71
  C:61F9H         LINE#         72
  C:6204H         LINE#         73
  C:620FH         LINE#         74
  C:621AH         LINE#         75
  C:6225H         LINE#         77
  C:6230H         LINE#         78
  C:623BH         LINE#         79
  C:6246H         LINE#         80
  C:6251H         LINE#         81
  C:625CH         LINE#         83
  C:6267H         LINE#         84
  C:6272H         LINE#         85
  C:627DH         LINE#         86
  C:6288H         LINE#         87
  -------         ENDPROC       PCT_AUDIOREGLIST
  -------         PROC          _PCT_AUDIOGAINCTRL
  D:0007H         SYMBOL        _dvc
  X:00AAH         SYMBOL        _channel
BL51 BANKED LINKER/LOCATER V6.22                                                      06/13/2018  13:54:00  PAGE 62


  X:00ABH         SYMBOL        _gain
  -------         DO            
  D:0004H         SYMBOL        dat
  X:00ACH         SYMBOL        result
  C:815BH         SYMBOL        chanData
  -------         ENDDO         
  C:7BB9H         LINE#         93
  C:7BC0H         LINE#         94
  C:7BC0H         LINE#         110
  C:7BC2H         LINE#         111
  C:7BCFH         LINE#         113
  C:7BDEH         LINE#         114
  C:7BF3H         LINE#         116
  C:7C02H         LINE#         117
  C:7C11H         LINE#         118
  C:7C13H         LINE#         119
  -------         ENDPROC       _PCT_AUDIOGAINCTRL
  -------         PROC          _PCT_AUDIOMIXCTRL
  X:00AAH         SYMBOL        _dvc
  X:00ABH         SYMBOL        _channel
  X:00ACH         SYMBOL        _gain
  -------         DO            
  D:0004H         SYMBOL        dat
  X:00ADH         SYMBOL        result
  C:816FH         SYMBOL        chanData
  -------         ENDDO         
  C:7A3CH         LINE#         126
  C:7A46H         LINE#         127
  C:7A46H         LINE#         143
  C:7A4AH         LINE#         144
  C:7A55H         LINE#         146
  C:7A64H         LINE#         147
  C:7A79H         LINE#         149
  C:7A85H         LINE#         150
  C:7A91H         LINE#         152
  C:7A9AH         LINE#         153
  C:7A9CH         LINE#         154
  -------         ENDPROC       _PCT_AUDIOMIXCTRL
  -------         PROC          _PCT_AUDIOMIXMUTE
  D:0007H         SYMBOL        _dvc
  X:00AAH         SYMBOL        _ch
  X:00ABH         SYMBOL        _ctrl
  -------         DO            
  D:0031H         SYMBOL        dat
  -------         ENDDO         
  C:83D8H         LINE#         160
  C:83DFH         LINE#         161
  C:83DFH         LINE#         167
  C:83E1H         LINE#         168
  C:83E9H         LINE#         169
  C:83EFH         LINE#         170
  C:83F4H         LINE#         171
  C:83F6H         LINE#         172
  C:83FBH         LINE#         173
  C:83FBH         LINE#         174
  C:8408H         LINE#         176
  C:840AH         LINE#         177
BL51 BANKED LINKER/LOCATER V6.22                                                      06/13/2018  13:54:00  PAGE 63


  -------         ENDPROC       _PCT_AUDIOMIXMUTE
  -------         PROC          _PCT_AUDIOSELLIVE
  D:0007H         SYMBOL        _dvc
  X:00AEH         SYMBOL        _chan
  C:850FH         LINE#         183
  C:8513H         LINE#         184
  C:8513H         LINE#         188
  C:8515H         LINE#         189
  C:8518H         LINE#         190
  C:8521H         LINE#         191
  C:8523H         LINE#         192
  C:8523H         LINE#         194
  C:8529H         LINE#         195
  C:8534H         LINE#         196
  C:8536H         LINE#         197
  -------         ENDPROC       _PCT_AUDIOSELLIVE
  -------         ENDMOD        TW28XX_AUDIO

  -------         MODULE        TW28XX_VIDEO
  C:0000H         SYMBOL        _ICE_DUMMY_
  C:8234H         PUBLIC        _PCT_WinAttrClear
  D:0090H         PUBLIC        P1
  D:00B0H         PUBLIC        P3
  C:3716H         PUBLIC        VidoW2_ModifyACHM
  C:81FCH         PUBLIC        _PCT_WinAttrCtrlY
  C:370AH         PUBLIC        VidoW2_ModifyACNM
  C:7F27H         PUBLIC        _PCT_DetectVideoFormat
  D:00A8H         PUBLIC        IE
  C:36FAH         PUBLIC        Video_HDelay
  C:372EH         PUBLIC        VidoW2_ModifyRBHM
  C:6E3DH         PUBLIC        _PCT_RecompenseYHdelay
  D:00B8H         PUBLIC        IP
  C:3722H         PUBLIC        VidoW2_ModifyRBNM
  C:37C7H         PUBLIC        XWinAttr_RegAddr
  D:00D8H         PUBLIC        CCON
  C:37E7H         PUBLIC        YWinAttr_RegAddr
  C:36DCH         PUBLIC        Video_HDelayInit
  C:4854H         PUBLIC        _PCT_SetVideoHDelay
  C:840BH         PUBLIC        _PCT_WinAttrCtrl
  C:767DH         PUBLIC        _PCT_SetChanelScale
  D:00C0H         PUBLIC        WDTC
  D:0098H         PUBLIC        SCON
  D:0088H         PUBLIC        TCON
  C:634EH         PUBLIC        _PCT_SetXVideoMixing
  C:870BH         PUBLIC        _PCT_SetYVideoMixing
  C:3746H         PUBLIC        Init_Vido_Y
  C:373AH         PUBLIC        VidoW2_ModifyACHM_PAL
  D:00E8H         PUBLIC        IEA
  D:00F8H         PUBLIC        IPA
  C:8537H         PUBLIC        _PCT_SetVideoFormat
  D:00C8H         PUBLIC        T2CON
  C:33ACH         PUBLIC        Init_Vido_W1
  C:341EH         PUBLIC        Init_Vido_W2
  C:34A2H         PUBLIC        Init_Vido_W3
  C:37D7H         PUBLIC        XWinPOP_RegAddr
  C:366AH         PUBLIC        Init_Vido_W4
  D:00D0H         PUBLIC        PSW
BL51 BANKED LINKER/LOCATER V6.22                                                      06/13/2018  13:54:00  PAGE 64


  C:7191H         SYMBOL        Com006B
  C:7191H         SYMBOL        L?0108
  C:7191H         SYMBOL        L?0109
  C:7196H         SYMBOL        L?0110
  C:719DH         SYMBOL        L?0111
  C:71A7H         SYMBOL        L?0112
  C:71B0H         SYMBOL        L?0113
  C:71B2H         SYMBOL        L?0114
  C:71B3H         SYMBOL        L?0115
  C:71B5H         SYMBOL        L?0116
  C:71BEH         SYMBOL        L?0128
  C:71C1H         SYMBOL        L?0129
  C:71CFH         SYMBOL        L?0131
  C:71D0H         SYMBOL        L?0132
  C:71D9H         SYMBOL        L?0133
  C:71E5H         SYMBOL        L?0135
  C:71E5H         SYMBOL        L?0136
  C:71E9H         SYMBOL        L?0137
  C:71ECH         SYMBOL        L?0138
  C:71F4H         SYMBOL        L?0139
  C:71F4H         SYMBOL        L?0140
  C:71F7H         SYMBOL        L?0141
  C:71FAH         SYMBOL        L?0142
  C:7208H         SYMBOL        L?0145
  C:7208H         SYMBOL        L?0146
  C:7212H         SYMBOL        L?0147
  C:7212H         SYMBOL        L?0148
  C:7215H         SYMBOL        L?0149
  C:721DH         SYMBOL        L?0150
  C:721DH         SYMBOL        L?0151
  C:7223H         SYMBOL        L?0153
  C:7240H         SYMBOL        L?0154
  C:7240H         SYMBOL        L?0155
  C:7246H         SYMBOL        L?0158
  C:724BH         SYMBOL        L?0159
  C:7252H         SYMBOL        L?0161
  C:7252H         SYMBOL        L?0162
  C:725DH         SYMBOL        L?0163
  C:7264H         SYMBOL        L?0164
  C:726BH         SYMBOL        L?0165
  C:726BH         SYMBOL        L?0166
  C:7271H         SYMBOL        L?0167
  C:7271H         SYMBOL        L?0168
  C:7279H         SYMBOL        L?0171
  C:7284H         SYMBOL        L?0173
  C:7284H         SYMBOL        L?0174
  C:728BH         SYMBOL        L?0175
  -------         PROC          COM006B
  -------         ENDPROC       COM006B
  -------         PROC          _PCT_DETECTVIDEOFORMAT
  X:00A4H         SYMBOL        _ch
  -------         DO            
  X:00A5H         SYMBOL        tmpSta
  -------         ENDDO         
  C:7F27H         LINE#         75
  C:7F2BH         LINE#         76
  C:7F2BH         LINE#         82
BL51 BANKED LINKER/LOCATER V6.22                                                      06/13/2018  13:54:00  PAGE 65


  C:7F2EH         LINE#         84
  C:7F3CH         LINE#         85
  C:7F4DH         LINE#         87
  C:7F53H         LINE#         88
  C:7F56H         LINE#         90
  C:7F5CH         LINE#         91
  C:7F62H         LINE#         92
  C:7F6DH         LINE#         103
  -------         ENDPROC       _PCT_DETECTVIDEOFORMAT
  -------         PROC          _PCT_SETVIDEOFORMAT
  D:0007H         SYMBOL        _dvc
  D:0005H         SYMBOL        _ch
  X:00AAH         SYMBOL        _fmat
  -------         DO            
  D:0007H         SYMBOL        tmpSta
  X:00ABH         SYMBOL        addr
  -------         ENDDO         
  C:8537H         LINE#         109
  C:853BH         LINE#         110
  C:853BH         LINE#         113
  C:853BH         LINE#         114
  C:8546H         LINE#         115
  C:854CH         LINE#         118
  C:8550H         LINE#         120
  C:8555H         LINE#         121
  -------         ENDPROC       _PCT_SETVIDEOFORMAT
  C:76DBH         SYMBOL        L?0127
  -------         PROC          _PCT_SETCHANELSCALE
  D:0007H         SYMBOL        _ch
  X:00ABH         SYMBOL        datptr
  -------         DO            
  C:37EFH         SYMBOL        ScaleRgeAddr
  X:00AEH         SYMBOL        addrptr
  X:00B1H         SYMBOL        value
  -------         ENDDO         
  C:767DH         LINE#         130
  C:7683H         LINE#         131
  C:7683H         LINE#         143
  C:7693H         LINE#         144
  C:76A5H         LINE#         145
  C:76AAH         LINE#         146
  C:76AAH         LINE#         147
  C:76B5H         LINE#         148
  C:76C0H         LINE#         149
  C:76D0H         LINE#         150
  C:76D0H         LINE#         151
  C:76DBH         LINE#         152
  -------         ENDPROC       _PCT_SETCHANELSCALE
  C:4A64H         SYMBOL        L?0117
  C:4A80H         SYMBOL        L?0118
  C:4A9CH         SYMBOL        L?0119
  C:4AB8H         SYMBOL        L?0120
  C:4AD1H         SYMBOL        L?0121
  C:4AEDH         SYMBOL        L?0122
  C:4B04H         SYMBOL        L?0123
  C:4B1DH         SYMBOL        L?0124
  C:4B31H         SYMBOL        L?0125
BL51 BANKED LINKER/LOCATER V6.22                                                      06/13/2018  13:54:00  PAGE 66


  C:4B45H         SYMBOL        L?0126
  C:4B61H         SYMBOL        L?0130
  C:4B78H         SYMBOL        L?0134
  C:4B91H         SYMBOL        L?0143
  C:4BA5H         SYMBOL        L?0157
  -------         PROC          _PCT_SETVIDEOHDELAY
  D:0007H         SYMBOL        _typ
  X:00A5H         SYMBOL        _winch
  X:00A8H         SYMBOL        _cattr
  -------         DO            
  X:00ABH         SYMBOL        hdelay
  -------         ENDDO         
  C:4854H         LINE#         155
  C:485AH         LINE#         156
  C:485AH         LINE#         164
  C:488CH         LINE#         165
  C:488CH         LINE#         166
  C:488CH         LINE#         171
  C:4891H         LINE#         172
  C:489AH         LINE#         173
  C:48A6H         LINE#         174
  C:48ACH         LINE#         176
  C:48AEH         LINE#         177
  C:48B7H         LINE#         178
  C:48BDH         LINE#         179
  C:48C0H         LINE#         181
  C:48C0H         LINE#         182
  C:48C0H         LINE#         184
  C:48C0H         LINE#         185
  C:48C9H         LINE#         186
  C:48D1H         LINE#         187
  C:48D7H         LINE#         189
  C:48DCH         LINE#         190
  C:48DCH         LINE#         191
  C:48E7H         LINE#         192
  C:48EDH         LINE#         194
  C:48F0H         LINE#         196
  C:48F0H         LINE#         197
  C:48F0H         LINE#         199
  C:48F0H         LINE#         200
  C:48FAH         LINE#         201
  C:4902H         LINE#         202
  C:4908H         LINE#         204
  C:4908H         LINE#         205
  C:4908H         LINE#         206
  C:4913H         LINE#         207
  C:4919H         LINE#         208
  C:491CH         LINE#         210
  C:491CH         LINE#         211
  C:491CH         LINE#         213
  C:491CH         LINE#         214
  C:4925H         LINE#         215
  C:492DH         LINE#         216
  C:4933H         LINE#         218
  C:4933H         LINE#         219
  C:493FH         LINE#         220
  C:4947H         LINE#         221
BL51 BANKED LINKER/LOCATER V6.22                                                      06/13/2018  13:54:00  PAGE 67


  C:494DH         LINE#         223
  C:4956H         LINE#         224
  C:4959H         LINE#         225
  C:4964H         LINE#         226
  C:496AH         LINE#         227
  C:496DH         LINE#         229
  C:496DH         LINE#         230
  C:496DH         LINE#         231
  C:496DH         LINE#         233
  C:496DH         LINE#         234
  C:496DH         LINE#         237
  C:496DH         LINE#         238
  C:4977H         LINE#         239
  C:497FH         LINE#         240
  C:4985H         LINE#         242
  C:4985H         LINE#         243
  C:4985H         LINE#         244
  C:498DH         LINE#         245
  C:4993H         LINE#         247
  C:4998H         LINE#         248
  C:49A1H         LINE#         249
  C:49ACH         LINE#         250
  C:49B2H         LINE#         251
  C:49B5H         LINE#         253
  C:49B5H         LINE#         254
  C:49B5H         LINE#         257
  C:49B5H         LINE#         258
  C:49BFH         LINE#         259
  C:49C7H         LINE#         260
  C:49CDH         LINE#         262
  C:49CDH         LINE#         263
  C:49CDH         LINE#         264
  C:49D5H         LINE#         265
  C:49DBH         LINE#         267
  C:49DBH         LINE#         268
  C:49E7H         LINE#         269
  C:49EFH         LINE#         270
  C:49F5H         LINE#         271
  C:49F8H         LINE#         273
  C:49F8H         LINE#         274
  C:49F8H         LINE#         277
  C:49F8H         LINE#         278
  C:4A02H         LINE#         279
  C:4A0AH         LINE#         280
  C:4A10H         LINE#         282
  C:4A10H         LINE#         283
  C:4A10H         LINE#         284
  C:4A18H         LINE#         285
  C:4A1EH         LINE#         287
  C:4A1EH         LINE#         288
  C:4A2AH         LINE#         289
  C:4A32H         LINE#         290
  C:4A3EH         LINE#         292
  C:4A43H         LINE#         293
  C:4A4CH         LINE#         294
  C:4A57H         LINE#         295
  C:4A63H         LINE#         296
BL51 BANKED LINKER/LOCATER V6.22                                                      06/13/2018  13:54:00  PAGE 68


  C:4A63H         LINE#         298
  C:4A63H         LINE#         299
  C:4A63H         LINE#         300
  C:4A63H         LINE#         301
  -------         ENDPROC       _PCT_SETVIDEOHDELAY
  C:64CEH         SYMBOL        L?0156
  C:64DBH         SYMBOL        L?0169
  -------         PROC          _PCT_SETXVIDEOMIXING
  X:00A4H         SYMBOL        _typ
  X:00A5H         SYMBOL        _winch
  -------         DO            
  X:00A8H         SYMBOL        wregptr
  -------         ENDDO         
  C:634EH         LINE#         304
  C:6357H         LINE#         305
  C:6357H         LINE#         308
  C:6367H         LINE#         309
  C:6377H         LINE#         310
  C:638BH         LINE#         311
  C:639FH         LINE#         313
  C:63D5H         LINE#         314
  C:63D5H         LINE#         315
  C:63D5H         LINE#         319
  C:63E4H         LINE#         320
  C:63EEH         LINE#         321
  C:63EEH         LINE#         322
  C:63F1H         LINE#         324
  C:63F1H         LINE#         325
  C:63F1H         LINE#         326
  C:63F1H         LINE#         327
  C:63F1H         LINE#         328
  C:6400H         LINE#         329
  C:6402H         LINE#         331
  C:6413H         LINE#         332
  C:641EH         LINE#         333
  C:641EH         LINE#         334
  C:6421H         LINE#         336
  C:6421H         LINE#         337
  C:6421H         LINE#         338
  C:6421H         LINE#         339
  C:6421H         LINE#         340
  C:6421H         LINE#         341
  C:6421H         LINE#         342
  C:6421H         LINE#         343
  C:6421H         LINE#         344
  C:6430H         LINE#         345
  C:6432H         LINE#         347
  C:6443H         LINE#         348
  C:6457H         LINE#         349
  C:6468H         LINE#         350
  C:646DH         LINE#         351
  C:6470H         LINE#         353
  C:6470H         LINE#         354
  C:6470H         LINE#         355
  C:647FH         LINE#         356
  C:648FH         LINE#         357
  C:64A0H         LINE#         358
BL51 BANKED LINKER/LOCATER V6.22                                                      06/13/2018  13:54:00  PAGE 69


  C:64B1H         LINE#         359
  C:64BFH         LINE#         360
  C:64CDH         LINE#         361
  C:64CDH         LINE#         363
  C:64CDH         LINE#         364
  C:64CDH         LINE#         365
  C:64CDH         LINE#         366
  -------         ENDPROC       _PCT_SETXVIDEOMIXING
  -------         PROC          _PCT_SETYVIDEOMIXING
  D:0007H         SYMBOL        _typ
  C:870BH         LINE#         372
  C:870BH         LINE#         373
  C:870BH         LINE#         374
  -------         ENDPROC       _PCT_SETYVIDEOMIXING
  C:6F2AH         SYMBOL        L?0144
  C:6F35H         SYMBOL        L?0152
  C:6F40H         SYMBOL        L?0160
  C:6F4BH         SYMBOL        L?0170
  C:6F52H         SYMBOL        L?0172
  -------         PROC          _PCT_RECOMPENSEYHDELAY
  X:00A4H         SYMBOL        _chmiro
  C:6E3DH         LINE#         378
  C:6E43H         LINE#         379
  C:6E43H         LINE#         380
  C:6E6DH         LINE#         381
  C:6E6DH         LINE#         383
  C:6E7BH         LINE#         384
  C:6E84H         LINE#         385
  C:6E95H         LINE#         386
  C:6E9EH         LINE#         387
  C:6EACH         LINE#         388
  C:6EB8H         LINE#         389
  C:6EC9H         LINE#         390
  C:6EC9H         LINE#         391
  C:6ECCH         LINE#         393
  C:6ECCH         LINE#         394
  C:6EDAH         LINE#         395
  C:6EE0H         LINE#         396
  C:6EE3H         LINE#         398
  C:6EE3H         LINE#         399
  C:6EF1H         LINE#         400
  C:6EF7H         LINE#         401
  C:6EF9H         LINE#         403
  C:6EF9H         LINE#         404
  C:6F07H         LINE#         405
  C:6F0DH         LINE#         406
  C:6F0FH         LINE#         408
  C:6F0FH         LINE#         409
  C:6F1DH         LINE#         410
  C:6F29H         LINE#         411
  C:6F29H         LINE#         412
  C:6F29H         LINE#         413
  -------         ENDPROC       _PCT_RECOMPENSEYHDELAY
  -------         PROC          _PCT_WINATTRCTRL
  X:00AAH         SYMBOL        _wid
  X:00ABH         SYMBOL        _attrsel
  X:00ACH         SYMBOL        _setval
BL51 BANKED LINKER/LOCATER V6.22                                                      06/13/2018  13:54:00  PAGE 70


  -------         DO            
  D:0004H         SYMBOL        dat
  -------         ENDDO         
  C:840BH         LINE#         464
  C:8416H         LINE#         465
  C:8416H         LINE#         471
  C:8420H         LINE#         472
  C:8431H         LINE#         473
  -------         ENDPROC       _PCT_WINATTRCTRL
  -------         PROC          _PCT_WINATTRCTRLY
  X:00A4H         SYMBOL        _wid
  X:00A5H         SYMBOL        _attrsel
  X:00A6H         SYMBOL        _setval
  -------         DO            
  D:0004H         SYMBOL        dat
  -------         ENDDO         
  C:81FCH         LINE#         482
  C:8207H         LINE#         483
  C:8207H         LINE#         488
  C:8214H         LINE#         489
  C:8225H         LINE#         490
  -------         ENDPROC       _PCT_WINATTRCTRLY
  -------         PROC          _PCT_WINATTRCLEAR
  X:00A4H         SYMBOL        _attrsel
  -------         DO            
  X:00A5H         SYMBOL        _wid
  X:00A6H         SYMBOL        dat
  -------         ENDDO         
  C:8234H         LINE#         499
  C:8238H         LINE#         500
  C:8238H         LINE#         507
  C:8244H         LINE#         508
  C:8251H         LINE#         509
  C:825AH         LINE#         510
  C:8264H         LINE#         511
  C:826BH         LINE#         512
  -------         ENDPROC       _PCT_WINATTRCLEAR
  -------         ENDMOD        TW28XX_VIDEO

  -------         MODULE        TW2835_INIT
  C:0000H         SYMBOL        _ICE_DUMMY_
  D:0090H         PUBLIC        P1
  D:00B0H         PUBLIC        P3
  D:00A8H         PUBLIC        IE
  C:4454H         PUBLIC        TW2835_Page0
  C:4654H         PUBLIC        TW2835_Page1
  C:7FFAH         PUBLIC        PCT_InitialTW2835
  D:00B8H         PUBLIC        IP
  C:8733H         PUBLIC        PCT_TW2835ResetN
  D:00D8H         PUBLIC        CCON
  D:00C0H         PUBLIC        WDTC
  D:0098H         PUBLIC        SCON
  D:0088H         PUBLIC        TCON
  C:79DAH         PUBLIC        _PCT_ChangeSystemType
  D:00E8H         PUBLIC        IEA
  D:00F8H         PUBLIC        IPA
  D:00C8H         PUBLIC        T2CON
BL51 BANKED LINKER/LOCATER V6.22                                                      06/13/2018  13:54:00  PAGE 71


  B:00B0H.4       PUBLIC        RSTn
  C:7913H         PUBLIC        PCT_TW2835_Initial
  D:00D0H         PUBLIC        PSW
  C:8686H         SYMBOL        Com000C
  C:8686H         SYMBOL        L?0013
  C:868FH         SYMBOL        L?0014
  -------         PROC          COM000C
  -------         ENDPROC       COM000C
  -------         PROC          PCT_INITIALTW2835
  C:7FFAH         LINE#         72
  C:7FFAH         LINE#         73
  C:7FFAH         LINE#         74
  C:7FFDH         LINE#         75
  C:8002H         LINE#         78
  C:8008H         LINE#         79
  C:8010H         LINE#         80
  C:801FH         LINE#         81
  C:8028H         LINE#         82
  C:802AH         LINE#         83
  C:802AH         LINE#         84
  C:8031H         LINE#         85
  C:8033H         LINE#         86
  C:8038H         LINE#         88
  C:803BH         LINE#         89
  -------         ENDPROC       PCT_INITIALTW2835
  -------         PROC          PCT_TW2835RESETN
  -------         DO            
  D:0006H         SYMBOL        _delay
  -------         ENDDO         
  C:8733H         LINE#         96
  C:8733H         LINE#         97
  C:8733H         LINE#         112
  C:8735H         LINE#         113
  C:8743H         LINE#         114
  C:8745H         LINE#         116
  -------         ENDPROC       PCT_TW2835RESETN
  C:796CH         SYMBOL        L?0015
  -------         PROC          PCT_TW2835_INITIAL
  -------         DO            
  X:00A4H         SYMBOL        offset
  -------         ENDDO         
  C:7913H         LINE#         122
  C:7913H         LINE#         123
  C:7913H         LINE#         126
  C:791EH         LINE#         127
  C:7929H         LINE#         128
  C:793BH         LINE#         130
  C:7952H         LINE#         132
  C:796CH         LINE#         133
  -------         ENDPROC       PCT_TW2835_INITIAL
  C:7A31H         SYMBOL        L?0016
  -------         PROC          _PCT_CHANGESYSTEMTYPE
  D:0007H         SYMBOL        _sys
  -------         DO            
  X:009EH         SYMBOL        offset
  -------         ENDDO         
  C:79DAH         LINE#         139
BL51 BANKED LINKER/LOCATER V6.22                                                      06/13/2018  13:54:00  PAGE 72


  C:79DAH         LINE#         140
  C:79DAH         LINE#         143
  C:79E3H         LINE#         144
  C:79EEH         LINE#         146
  C:7A01H         LINE#         148
  C:7A17H         LINE#         149
  C:7A31H         LINE#         150
  -------         ENDPROC       _PCT_CHANGESYSTEMTYPE
  -------         ENDMOD        TW2835_INIT

  -------         MODULE        ?C?CLDPTR
  C:404EH         PUBLIC        ?C?CLDPTR
  -------         ENDMOD        ?C?CLDPTR

  -------         MODULE        ?C?CLDOPTR
  C:4067H         PUBLIC        ?C?CLDOPTR
  -------         ENDMOD        ?C?CLDOPTR

  -------         MODULE        ?C?CSTPTR
  C:4094H         PUBLIC        ?C?CSTPTR
  -------         ENDMOD        ?C?CSTPTR

  -------         MODULE        ?C?IMUL
  C:40A6H         PUBLIC        ?C?IMUL
  -------         ENDMOD        ?C?IMUL

  -------         MODULE        ?C?ILDPTR
  C:40B8H         PUBLIC        ?C?ILDPTR
  -------         ENDMOD        ?C?ILDPTR

  -------         MODULE        ?C?IILDOPTR
  C:40E3H         PUBLIC        ?C?IILDOPTR
  -------         ENDMOD        ?C?IILDOPTR

  -------         MODULE        ?C?ULCMP
  C:4130H         PUBLIC        ?C?ULCMP
  -------         ENDMOD        ?C?ULCMP

  -------         MODULE        ?C?PLDPTR
  C:4141H         PUBLIC        ?C?PLDPTR
  -------         ENDMOD        ?C?PLDPTR

  -------         MODULE        ?C?PSTPTR
  C:4161H         PUBLIC        ?C?PSTPTR
  -------         ENDMOD        ?C?PSTPTR

  -------         MODULE        ?C?CCASE
  C:41B0H         PUBLIC        ?C?CCASE
  -------         ENDMOD        ?C?CCASE

  -------         MODULE        PRINTF
  X:00A4H         PUBLIC        ?_PRINTF517?BYTE
  X:00A4H         PUBLIC        ?_PRINTF?BYTE
  X:00A4H         PUBLIC        ?_SPRINTF517?BYTE
  X:00A4H         PUBLIC        ?_SPRINTF?BYTE
  C:4C1DH         PUBLIC        _PRINTF
  C:4C1DH         PUBLIC        _PRINTF517
BL51 BANKED LINKER/LOCATER V6.22                                                      06/13/2018  13:54:00  PAGE 73


  C:4C17H         PUBLIC        _SPRINTF
  C:4C17H         PUBLIC        _SPRINTF517
  -------         ENDMOD        PRINTF

  -------         MODULE        PUTS
  C:84BDH         PUBLIC        _PUTS
  -------         ENDMOD        PUTS

  -------         MODULE        SCANF
  X:00AAH         PUBLIC        ?_SCANF517?BYTE
  X:00AAH         PUBLIC        ?_SCANF?BYTE
  X:00AAH         PUBLIC        ?_SSCANF517?BYTE
  X:00AAH         PUBLIC        ?_SSCANF?BYTE
  C:52F0H         PUBLIC        _SCANF
  C:52F0H         PUBLIC        _SCANF517
  C:52ECH         PUBLIC        _SSCANF
  C:52ECH         PUBLIC        _SSCANF517
  -------         ENDMOD        SCANF

  -------         MODULE        ?C?STRCMP
  C:4354H         PUBLIC        ?C?STRCMP
  -------         ENDMOD        ?C?STRCMP

  -------         MODULE        STRLEN
  C:000EH         PUBLIC        _STRLEN
  -------         ENDMOD        STRLEN

  -------         MODULE        ATOI
  C:746EH         PUBLIC        _atoi
  -------         ENDMOD        ATOI

  -------         MODULE        ?C?IILDX
  C:4371H         PUBLIC        ?C?IILDX
  -------         ENDMOD        ?C?IILDX

  -------         MODULE        ?C?ISTPTR
  C:4387H         PUBLIC        ?C?ISTPTR
  -------         ENDMOD        ?C?ISTPTR

  -------         MODULE        ?C?LNEG
  C:43A6H         PUBLIC        ?C?LNEG
  -------         ENDMOD        ?C?LNEG

  -------         MODULE        ?C?LSTPTR
  C:43B4H         PUBLIC        ?C?LSTPTR
  -------         ENDMOD        ?C?LSTPTR

  -------         MODULE        ?C?PLDIDATA
  C:43CEH         PUBLIC        ?C?PLDIDATA
  -------         ENDMOD        ?C?PLDIDATA

  -------         MODULE        ?C?PSTIDATA
  C:43D7H         PUBLIC        ?C?PSTIDATA
  -------         ENDMOD        ?C?PSTIDATA

  -------         MODULE        ?C?PLDXDATA
  C:43E0H         PUBLIC        ?C?PLDXDATA
BL51 BANKED LINKER/LOCATER V6.22                                                      06/13/2018  13:54:00  PAGE 74


  -------         ENDMOD        ?C?PLDXDATA

  -------         MODULE        ?C?PSTXDATA
  C:43E9H         PUBLIC        ?C?PSTXDATA
  -------         ENDMOD        ?C?PSTXDATA

  -------         MODULE        ?C?PLDPDATA
  C:43F2H         PUBLIC        ?C?PLDPDATA
  -------         ENDMOD        ?C?PLDPDATA

  -------         MODULE        ?C?PLDIPDATA
  C:43FBH         PUBLIC        ?C?PLDIPDATA
  -------         ENDMOD        ?C?PLDIPDATA

  -------         MODULE        ?C?PILDPDATA
  C:440BH         PUBLIC        ?C?PILDPDATA
  -------         ENDMOD        ?C?PILDPDATA

  -------         MODULE        ?C?PSTPDATA
  C:441BH         PUBLIC        ?C?PSTPDATA
  -------         ENDMOD        ?C?PSTPDATA

  -------         MODULE        ?C?PLDCODE
  C:4424H         PUBLIC        ?C?PLDCODE
  -------         ENDMOD        ?C?PLDCODE

  -------         MODULE        PUTCHAR
  C:8586H         PUBLIC        _PUTCHAR
  -------         ENDMOD        PUTCHAR

  -------         MODULE        GETCHAR
  B:0024H.2       PUBLIC        ?C?CHARLOADED
  X:009AH         PUBLIC        ?_UNGETCHAR?BYTE
  C:8746H         PUBLIC        GETCHAR
  -------         ENDMOD        GETCHAR

  -------         MODULE        UNGETC
  C:87EDH         PUBLIC        _UNGETCHAR
  -------         ENDMOD        UNGETC

  -------         MODULE        ISDIGIT
  C:87A8H         PUBLIC        _isdigit
  -------         ENDMOD        ISDIGIT

  -------         MODULE        ISSPACE
  C:871FH         PUBLIC        _isspace
  -------         ENDMOD        ISSPACE

  -------         MODULE        ?C?LSTIDATA
  C:4430H         PUBLIC        ?C?LSTIDATA
  -------         ENDMOD        ?C?LSTIDATA

  -------         MODULE        ?C?LSTXDATA
  C:443CH         PUBLIC        ?C?LSTXDATA
  -------         ENDMOD        ?C?LSTXDATA

  -------         MODULE        ?C?LSTPDATA
BL51 BANKED LINKER/LOCATER V6.22                                                      06/13/2018  13:54:00  PAGE 75


  C:4448H         PUBLIC        ?C?LSTPDATA
  -------         ENDMOD        ?C?LSTPDATA

  -------         MODULE        _GETKEY
  C:87C2H         PUBLIC        _GETKEY
  -------         ENDMOD        _GETKEY

Program Size: data=46.3 xdata=217 code=34821
LINK/LOCATE RUN COMPLETE.  0 WARNING(S),  0 ERROR(S)
