BL51 BANKED LINKER/LOCATER V6.22.2.0                                                    07/13/2021  11:06:07  PAGE 1


BL51 BANKED LINKER/LOCATER V6.22.2.0, INVOKED BY:
C:\KEIL_V5\C51\BIN\BL51.EXE .\OBJ\STARTUP.obj, .\OBJ\UART.obj, .\OBJ\BusCtrl.obj, .\OBJ\CommandShell.obj, .\OBJ\Main.obj
>> , .\OBJ\OSD_Graph.obj, .\OBJ\OSDAction.obj, .\OBJ\OSDCtrl.obj, .\OBJ\Timer.obj, .\OBJ\TW28xx_Audio.obj, .\OBJ\TW28xx_
>> Video.obj, .\OBJ\TW2835_Init.obj TO .\OBJ\TW2835 PRINT (.\OBJ\TW2835.m51) RAMSIZE (256)


MEMORY MODEL: COMPACT


INPUT MODULES INCLUDED:
  .\OBJ\STARTUP.obj (?C_STARTUP)
  .\OBJ\UART.obj (UART)
  .\OBJ\BusCtrl.obj (BUSCTRL)
  .\OBJ\CommandShell.obj (COMMANDSHELL)
  .\OBJ\Main.obj (MAIN)
  .\OBJ\OSD_Graph.obj (OSD_GRAPH)
  .\OBJ\OSDAction.obj (OSDACTION)
  .\OBJ\OSDCtrl.obj (OSDCTRL)
  .\OBJ\Timer.obj (TIMER)
  .\OBJ\TW28xx_Audio.obj (TW28XX_AUDIO)
  .\OBJ\TW28xx_Video.obj (TW28XX_VIDEO)
  .\OBJ\TW2835_Init.obj (TW2835_INIT)
  C:\KEIL_V5\C51\LIB\C51C.LIB (?C_INIT)
  C:\KEIL_V5\C51\LIB\C51C.LIB (?C?CLDPTR)
  C:\KEIL_V5\C51\LIB\C51C.LIB (?C?CLDOPTR)
  C:\KEIL_V5\C51\LIB\C51C.LIB (?C?CSTPTR)
  C:\KEIL_V5\C51\LIB\C51C.LIB (?C?IMUL)
  C:\KEIL_V5\C51\LIB\C51C.LIB (?C?ILDPTR)
  C:\KEIL_V5\C51\LIB\C51C.LIB (?C?IILDOPTR)
  C:\KEIL_V5\C51\LIB\C51C.LIB (?C?ULCMP)
  C:\KEIL_V5\C51\LIB\C51C.LIB (?C?PLDPTR)
  C:\KEIL_V5\C51\LIB\C51C.LIB (?C?PSTPTR)
  C:\KEIL_V5\C51\LIB\C51C.LIB (?C?CCASE)
  C:\KEIL_V5\C51\LIB\C51C.LIB (PRINTF)
  C:\KEIL_V5\C51\LIB\C51C.LIB (PUTS)
  C:\KEIL_V5\C51\LIB\C51C.LIB (SCANF)
  C:\KEIL_V5\C51\LIB\C51C.LIB (?C?STRCMP)
  C:\KEIL_V5\C51\LIB\C51C.LIB (STRLEN)
  C:\KEIL_V5\C51\LIB\C51C.LIB (ATOI)
  C:\KEIL_V5\C51\LIB\C51C.LIB (?C?IILDX)
  C:\KEIL_V5\C51\LIB\C51C.LIB (?C?ISTPTR)
  C:\KEIL_V5\C51\LIB\C51C.LIB (?C?LNEG)
  C:\KEIL_V5\C51\LIB\C51C.LIB (?C?LSTPTR)
  C:\KEIL_V5\C51\LIB\C51C.LIB (?C?PLDIDATA)
  C:\KEIL_V5\C51\LIB\C51C.LIB (?C?PSTIDATA)
  C:\KEIL_V5\C51\LIB\C51C.LIB (?C?PLDXDATA)
  C:\KEIL_V5\C51\LIB\C51C.LIB (?C?PSTXDATA)
  C:\KEIL_V5\C51\LIB\C51C.LIB (?C?PLDPDATA)
  C:\KEIL_V5\C51\LIB\C51C.LIB (?C?PLDIPDATA)
  C:\KEIL_V5\C51\LIB\C51C.LIB (?C?PILDPDATA)
  C:\KEIL_V5\C51\LIB\C51C.LIB (?C?PSTPDATA)
  C:\KEIL_V5\C51\LIB\C51C.LIB (?C?PLDCODE)
  C:\KEIL_V5\C51\LIB\C51C.LIB (PUTCHAR)
  C:\KEIL_V5\C51\LIB\C51C.LIB (GETCHAR)
  C:\KEIL_V5\C51\LIB\C51C.LIB (UNGETC)
  C:\KEIL_V5\C51\LIB\C51C.LIB (ISDIGIT)
  C:\KEIL_V5\C51\LIB\C51C.LIB (ISSPACE)
  C:\KEIL_V5\C51\LIB\C51C.LIB (?C?LSTIDATA)
BL51 BANKED LINKER/LOCATER V6.22.2.0                                                  07/13/2021  11:06:07  PAGE 2


  C:\KEIL_V5\C51\LIB\C51C.LIB (?C?LSTXDATA)
  C:\KEIL_V5\C51\LIB\C51C.LIB (?C?LSTPDATA)
  C:\KEIL_V5\C51\LIB\C51C.LIB (_GETKEY)


LINK MAP OF MODULE:  .\OBJ\TW2835 (?C_STARTUP)


            TYPE    BASE      LENGTH    RELOCATION   SEGMENT NAME
            -----------------------------------------------------

            * * * * * * *   D A T A   M E M O R Y   * * * * * * *
            REG     0000H     0008H     ABSOLUTE     "REG BANK 0"
            REG     0008H     0008H     ABSOLUTE     "REG BANK 1"
            DATA    0010H     0006H     UNIT         ?DT?TIMER
            DATA    0016H     0002H     UNIT         ?DT?OSDCTRL
                    0018H     0008H                  *** GAP ***
            DATA    0020H     0001H     BIT_ADDR     ?BA?MAIN
            DATA    0021H     0001H     BIT_ADDR     ?BA?OSDACTION
            DATA    0022H     0001H     BIT_ADDR     ?BA?OSDCTRL
            BIT     0023H.0   0001H.1   UNIT         _BIT_GROUP_
            BIT     0024H.1   0000H.1   UNIT         ?BI?MAIN
            BIT     0024H.2   0000H.1   UNIT         ?BI?GETCHAR
                    0024H.3   0000H.5                *** GAP ***
            DATA    0025H     0011H     UNIT         _DATA_GROUP_
            IDATA   0036H     0001H     UNIT         ?STACK

            * * * * * * *  X D A T A   M E M O R Y  * * * * * * *
            XDATA   0000H     0052H     INPAGE       ?PD?UART
            XDATA   0052H     0019H     INPAGE       ?PD?COMMANDSHELL
            XDATA   006BH     002DH     INPAGE       ?PD?MAIN
            XDATA   0098H     0001H     INPAGE       ?PD?OSD_GRAPH
            XDATA   0099H     0001H     INPAGE       ?PD?OSDACTION
            XDATA   009AH     0001H     INPAGE       ?PD?TW2835_INIT
            XDATA   009BH     0001H     INPAGE       ?PD?GETCHAR
            XDATA   009CH     003EH     INPAGE       _PDATA_GROUP_
            XDATA   00DAH     0001H     UNIT         ?XD?COMMANDSHELL

            * * * * * * *   C O D E   M E M O R Y   * * * * * * *
            CODE    0000H     0003H     ABSOLUTE     
            CODE    0003H     0008H     UNIT         ?PR?_RS_TX?UART
            CODE    000BH     0003H     ABSOLUTE     
            CODE    000EH     0015H     UNIT         ?PR?_STRLEN?STRLEN
            CODE    0023H     0003H     ABSOLUTE     
            CODE    0026H     24E6H     UNIT         ?CO?OSD_GRAPH
            CODE    250CH     0EA0H     UNIT         ?CO?OSDCTRL
            CODE    33ACH     0910H     UNIT         ?CO?TW2835_INIT
            CODE    3CBCH     0565H     UNIT         ?PR?PCT_SHOWVLOSS?OSDACTION
            CODE    4221H     04C2H     UNIT         ?PR?_PCT_SHOWMIRRORICON?OSDACTION
            CODE    46E3H     04ADH     UNIT         ?PR?_PCT_SHOWSPEAKICON?OSDACTION
            CODE    4B90H     0463H     UNIT         ?CO?TW28XX_VIDEO
            CODE    4FF3H     0406H     UNIT         ?C?LIB_CODE
            CODE    53F9H     0404H     UNIT         ?PR?_PCT_SETVIDEOHDELAY?TW28XX_VIDEO
            CODE    57FDH     03C8H     UNIT         ?PR?_PCT_OSD_ACTIONPTHX?OSDACTION
            CODE    5BC5H     035BH     UNIT         ?PR?PRINTF?PRINTF
            CODE    5F20H     0316H     UNIT         ?PR?SCANF?SCANF
            CODE    6236H     02DFH     UNIT         ?CO?COMMANDSHELL
BL51 BANKED LINKER/LOCATER V6.22.2.0                                                  07/13/2021  11:06:07  PAGE 3


            CODE    6515H     0296H     UNIT         ?PR?_PCT_RUNCOMMSHELL?COMMANDSHELL
            CODE    67ABH     027EH     UNIT         ?PR?_PCT_SHOWINDICATEICON?OSDACTION
            CODE    6A29H     0210H     UNIT         ?PR?_MONIVIDEOMIXATTR?COMMANDSHELL
            CODE    6C39H     020BH     UNIT         ?PR?COMMANDSHELL
            CODE    6E44H     01DDH     UNIT         ?PR?PCT_TW2835_INITIAL?TW2835_INIT
            CODE    7021H     01BCH     UNIT         ?PR?_PCT_OSD16X16GRAPHX?OSD_GRAPH
            CODE    71DDH     01B8H     UNIT         ?PR?PCT_AUDIOREGLIST?TW28XX_AUDIO
            CODE    7395H     0195H     UNIT         ?PR?_PCT_SETXVIDEOMIXING?TW28XX_VIDEO
            CODE    752AH     018AH     UNIT         ?PR?_MONIAUDIOMIXING?COMMANDSHELL
            CODE    76B4H     0169H     UNIT         ?PR?_PCT_WRITEOSDDATABUFFERX?OSDCTRL
            CODE    781DH     0165H     UNIT         ?PR?OSDCTRL
            CODE    7982H     013DH     UNIT         ?PR?_MONIAUDIOGAIN?COMMANDSHELL
            CODE    7ABFH     013CH     UNIT         ?PR?_MONIHSCOMM?COMMANDSHELL
            CODE    7BFBH     012FH     UNIT         ?PR?PCT_INITOSDCOLOR?OSDCTRL
            CODE    7D2AH     0120H     UNIT         ?PR?_PCT_RECOMPENSEYHDELAY?TW28XX_VIDEO
            CODE    7E4AH     011DH     UNIT         ?PR?_PCT_WRITEOSDDATABUFFERY?OSDCTRL
            CODE    7F67H     011AH     UNIT         ?PR?TW28XX_VIDEO
            CODE    8081H     0117H     UNIT         ?PR?_MONISETVIDEOFORMAT?COMMANDSHELL
            CODE    8198H     00FFH     UNIT         ?PR?_PCT_WRITEOSDFNTX?OSDCTRL
            CODE    8297H     00FAH     UNIT         ?PR?OSDACTION
            CODE    8391H     00EAH     UNIT         ?PR?_PCT_WRITEOSDFNTY?OSDCTRL
            CODE    847BH     00D0H     UNIT         ?PR?_ATOI?ATOI
            CODE    854BH     00ADH     UNIT         ?PR?_PCT_CLEARWORDSPATHX?OSDCTRL
            CODE    85F8H     009EH     UNIT         ?PR?_PCT_FULLCOLORONOSD?OSDCTRL
            CODE    8696H     0097H     UNIT         ?PR?_PCT_SETCHANELSCALE?TW28XX_VIDEO
            CODE    872DH     0097H     UNIT         ?PR?_PCT_CHANGESYSTEMTYPE?TW2835_INIT
            CODE    87C4H     0090H     UNIT         ?PR?_PCT_DETECTVIDEOFORMAT?TW28XX_VIDEO
            CODE    8854H     008CH     UNIT         ?C_C51STARTUP
            CODE    88E0H     007CH     UNIT         ?PR?_PCT_WRITEASICTABLE?BUSCTRL
            CODE    895CH     0077H     UNIT         ?PR?MAIN?MAIN
            CODE    89D3H     006BH     UNIT         ?PR?PCT_CHECKSYSTEM?COMMANDSHELL
            CODE    8A3EH     0068H     UNIT         ?PR?_PCT_GETFIRSTSTR?COMMANDSHELL
            CODE    8AA6H     0065H     UNIT         ?PR?_PCT_READASICBYTE?BUSCTRL
            CODE    8B0BH     0064H     UNIT         ?PR?_PCT_WRITEASICBYTE?BUSCTRL
            CODE    8B6FH     0061H     UNIT         ?PR?_PCT_AUDIOMIXCTRL?TW28XX_AUDIO
            CODE    8BD0H     0061H     UNIT         ?PR?PCT_INITIALTW2835?TW2835_INIT
            CODE    8C31H     0060H     UNIT         ?PR?_PCT_SHOWOSDSTRING?OSDCTRL
            CODE    8C91H     005DH     UNIT         ?PR?_MONISHOWSODSTR?COMMANDSHELL
            CODE    8CEEH     005BH     UNIT         ?PR?_PCT_SHOWGRAPHSTRING?OSD_GRAPH
            CODE    8D49H     005BH     UNIT         ?PR?_PCT_AUDIOGAINCTRL?TW28XX_AUDIO
            CODE    8DA4H     0057H     UNIT         ?PR?_PCT_WRITESTABLE?BUSCTRL
            CODE    8DFBH     0056H     UNIT         ?PR?_MONIVIDEOMIXWIN?COMMANDSHELL
            CODE    8E51H     0054H     UNIT         ?PR?TIMER0_INTERRUPT?TIMER
            CODE    8EA5H     0053H     UNIT         ?PR?_PCT_SETOSDCOLOR?OSDCTRL
            CODE    8EF8H     0052H     UNIT         ?PR?COMMANDSHELL?MAIN
            CODE    8F4AH     0052H     UNIT         ?PR?OSD_GRAPH
            CODE    8F9CH     0050H     UNIT         ?PR?PCT_INITIALOSD?OSDACTION
            CODE    8FECH     004FH     UNIT         ?PR?MONIREGISTERDUMP?COMMANDSHELL
            CODE    903BH     004CH     UNIT         ?PR?_MONIWRITEASICBYTE?COMMANDSHELL
            CODE    9087H     0047H     UNIT         ?PR?_MONIREADASICBYTE?COMMANDSHELL
            CODE    90CEH     0046H     UNIT         ?PR?_WAIT_MS?MAIN
            CODE    9114H     0046H     UNIT         ?PR?PCT_SHOWMODEICON?OSDACTION
            CODE    915AH     0043H     UNIT         ?PR?_MONIREADPAGEBUFFER?COMMANDSHELL
            CODE    919DH     0043H     UNIT         ?PR?MONIHSCOMMVERSION?COMMANDSHELL
            CODE    91E0H     0041H     UNIT         ?PR?_PCT_CHECKVMIXTYPE?COMMANDSHELL
            CODE    9221H     0041H     UNIT         ?PR?PCT_AUDIOACTIONFORHS?COMMANDSHELL
            CODE    9262H     0041H     UNIT         ?PR?TW28XX_AUDIO
BL51 BANKED LINKER/LOCATER V6.22.2.0                                                  07/13/2021  11:06:07  PAGE 4


            CODE    92A3H     0040H     UNIT         ?CO?TW28XX_AUDIO
            CODE    92E3H     003EH     UNIT         ?PR?_PCT_STRTOCOMMCODE?COMMANDSHELL
            CODE    9321H     003CH     UNIT         ?PR?_PCT_WINATTRCLEAR?TW28XX_VIDEO
            CODE    935DH     0038H     UNIT         ?PR?PCT_GETVIDEOSIGNALSTATUS?OSDACTION
            CODE    9395H     0038H     UNIT         ?PR?_PCT_WINATTRCTRLY?TW28XX_VIDEO
            CODE    93CDH     0036H     UNIT         ?PR?_PUTSP?MAIN
            CODE    9403H     0035H     UNIT         ?PR?_PCT_ENSHOWOSDPAGE?OSDCTRL
            CODE    9438H     0034H     UNIT         ?PR?_PCT_AUDIOMIXMUTE?TW28XX_AUDIO
            CODE    946CH     0033H     UNIT         ?PR?_MONIREADONEBUFFER?COMMANDSHELL
            CODE    949FH     0033H     UNIT         ?PR?_MONIWRITEONEBUFFER?COMMANDSHELL
            CODE    94D2H     0033H     UNIT         ?PR?MONIVIDEOAUTODETECT?COMMANDSHELL
            CODE    9505H     0031H     UNIT         ?PR?_PCT_WINATTRCTRL?TW28XX_VIDEO
            CODE    9536H     002EH     UNIT         ?PR?_CHKSTARTCOMMSHELL?MAIN
            CODE    9564H     002EH     UNIT         ?PR?TW2835_INIT
            CODE    9592H     002AH     UNIT         ?PR?_PUTS?PUTS
            CODE    95BCH     0029H     UNIT         ?PR?_PCT_AUDIOSELLIVE?TW28XX_AUDIO
            CODE    95E5H     0028H     UNIT         ?PR?PCT_OSDACTIONFORHS?OSDACTION
            CODE    960DH     0028H     UNIT         ?PR?_PCT_SETVIDEOFORMAT?TW28XX_VIDEO
            CODE    9635H     0027H     UNIT         ?PR?PUTCHAR?PUTCHAR
            CODE    965CH     0026H     UNIT         ?PR?INITIALTIMER0?TIMER
            CODE    9682H     0025H     UNIT         ?PR?_PCT_PAGECHANGE?BUSCTRL
            CODE    96A7H     0025H     UNIT         ?CO?OSDACTION
            CODE    96CCH     0023H     UNIT         ?PR?RS_INTERRUPT?UART
            CODE    96EFH     0023H     UNIT         ?PR?BUSCTRL
            CODE    9712H     0023H     UNIT         ?PR?INITIALMPU?MAIN
            CODE    9735H     001DH     UNIT         ?PR?_PCT_SETOSDDRAWPAGE?OSDCTRL
            CODE    9752H     001CH     UNIT         ?PR?_PCT_DISSHOWOSDPAGE?OSDCTRL
            CODE    976EH     0019H     UNIT         ?PR?_PCT_CLEAROSDPAGEX?OSDCTRL
            CODE    9787H     0019H     UNIT         ?PR?PCT_TW2837IDCHECK?TW2835_INIT
            CODE    97A0H     0017H     UNIT         ?CO?MAIN
            CODE    97B7H     0016H     UNIT         ?PR?RS_RX?UART
            CODE    97CDH     0016H     UNIT         ?PR?_MONIHSCOMMSJMODE?COMMANDSHELL
            CODE    97E3H     0016H     UNIT         ?PR?RESETCOMMSELL?MAIN
            CODE    97F9H     0014H     UNIT         ?PR?_MONIAUDIOLIVE?COMMANDSHELL
            CODE    980DH     0014H     UNIT         ?PR?_PCT_SETYVIDEOMIXING?TW28XX_VIDEO
            CODE    9821H     0014H     UNIT         ?PR?_ISSPACE?ISSPACE
            CODE    9835H     0013H     UNIT         ?PR?PCT_TW2835RESETN?TW2835_INIT
            CODE    9848H     0013H     UNIT         ?PR?GETCHAR?GETCHAR
            CODE    985BH     0012H     UNIT         ?PR?_MONIYVIDEOMIX?COMMANDSHELL
            CODE    986DH     0010H     UNIT         ?PR?INITIALUART?UART
            CODE    987DH     000FH     UNIT         ?PR?RS_RXREADY?UART
            CODE    988CH     000FH     UNIT         ?PR?PCT_SENDACK?COMMANDSHELL
            CODE    989BH     000FH     UNIT         ?PR?MONIAUDIOMUTE?COMMANDSHELL
            CODE    98AAH     000FH     UNIT         ?PR?_ISDIGIT?ISDIGIT
            CODE    98B9H     000CH     UNIT         ?PR?UART
            CODE    98C5H     000BH     UNIT         ?C_INITSEG
            CODE    98D0H     000BH     UNIT         ?PR?INITIALCOMMSHELL?MAIN
            CODE    98DBH     000AH     UNIT         ?PR?_GETKEY?_GETKEY
            CODE    98E5H     0009H     UNIT         ?PR?NEWLINE?MAIN
            CODE    98EEH     0009H     UNIT         ?PR?_PCT_FLASHOSDCTRL?MAIN
            CODE    98F7H     0007H     UNIT         ?PR?PCT_ENFALSHVLOSS?OSDACTION
            CODE    98FEH     0007H     UNIT         ?PR?GETCHAR?UNGETCHAR
            CODE    9905H     0005H     UNIT         ?PR?MONIHSCOMMDISSCROLL?COMMANDSHELL
            CODE    990AH     0005H     UNIT         ?PR?PCT_CLEARGRAPHATTR?OSD_GRAPH
            CODE    990FH     0003H     UNIT         ?PR?_PCT_PRESETFOREGROUNDCOLOR?OSDCTRL
            CODE    9912H     0003H     UNIT         ?PR?_PCT_PRESETBACKGROUNDCOLOR?OSDCTRL
            CODE    9915H     0001H     UNIT         ?PR?PTC_SWITCHTOI2CMODE?BUSCTRL
BL51 BANKED LINKER/LOCATER V6.22.2.0                                                  07/13/2021  11:06:07  PAGE 5





OVERLAY MAP OF MODULE:   .\OBJ\TW2835 (?C_STARTUP)


SEGMENT                                            BIT_GROUP          DATA_GROUP          PDATA_GROUP
  +--> CALLED SEGMENT                           START    LENGTH     START    LENGTH     START    LENGTH
-------------------------------------------------------------------------------------------------------
?C_C51STARTUP                                   -----    -----      -----    -----      -----    -----
  +--> ?PR?MAIN?MAIN
  +--> ?C_INITSEG

?PR?MAIN?MAIN                                   -----    -----      -----    -----      009CH    0003H
  +--> ?PR?INITIALMPU?MAIN
  +--> ?PR?INITIALCOMMSHELL?MAIN
  +--> ?PR?PTC_SWITCHTOI2CMODE?BUSCTRL
  +--> ?PR?PCT_INITIALTW2835?TW2835_INIT
  +--> ?PR?RESETCOMMSELL?MAIN
  +--> ?PR?COMMANDSHELL?MAIN
  +--> ?PR?_PCT_RUNCOMMSHELL?COMMANDSHELL
  +--> ?PR?PCT_CHECKSYSTEM?COMMANDSHELL
  +--> ?PR?RS_RXREADY?UART
  +--> ?PR?PCT_GETVIDEOSIGNALSTATUS?OSDACTION

?PR?INITIALMPU?MAIN                             -----    -----      -----    -----      -----    -----
  +--> ?PR?INITIALUART?UART
  +--> ?PR?INITIALTIMER0?TIMER

?PR?PCT_INITIALTW2835?TW2835_INIT               -----    -----      -----    -----      -----    -----
  +--> ?PR?PCT_TW2835RESETN?TW2835_INIT
  +--> ?PR?PCT_TW2837IDCHECK?TW2835_INIT
  +--> ?PR?_WAIT_MS?MAIN
  +--> ?PR?_PCT_DETECTVIDEOFORMAT?TW28XX_VIDEO
  +--> ?PR?PCT_TW2835_INITIAL?TW2835_INIT
  +--> ?PR?PCT_INITIALOSD?OSDACTION
  +--> ?PR?_PCT_READASICBYTE?BUSCTRL

?PR?PCT_TW2837IDCHECK?TW2835_INIT               -----    -----      -----    -----      -----    -----
  +--> ?PR?_PCT_READASICBYTE?BUSCTRL

?PR?_PCT_READASICBYTE?BUSCTRL                   -----    -----      -----    -----      -----    -----
  +--> ?PR?BUSCTRL
  +--> ?PR?_PCT_PAGECHANGE?BUSCTRL

?PR?_PCT_PAGECHANGE?BUSCTRL                     -----    -----      -----    -----      00D9H    0001H
  +--> ?PR?BUSCTRL

?PR?_WAIT_MS?MAIN                               -----    -----      -----    -----      00A5H    0004H

?PR?_PCT_DETECTVIDEOFORMAT?TW28XX_VIDEO         -----    -----      -----    -----      00A5H    0002H
  +--> ?PR?_PCT_READASICBYTE?BUSCTRL

?PR?PCT_TW2835_INITIAL?TW2835_INIT              -----    -----      -----    -----      00A5H    0002H
  +--> ?PR?TW2835_INIT
  +--> ?CO?TW2835_INIT
  +--> ?PR?_PCT_WRITEASICTABLE?BUSCTRL
BL51 BANKED LINKER/LOCATER V6.22.2.0                                                  07/13/2021  11:06:07  PAGE 6


  +--> ?PR?_PCT_WRITEASICBYTE?BUSCTRL

?PR?TW2835_INIT                                 -----    -----      -----    -----      -----    -----
  +--> ?CO?TW2835_INIT

?PR?_PCT_WRITEASICTABLE?BUSCTRL                 -----    -----      -----    -----      00A7H    0007H
  +--> ?PR?BUSCTRL
  +--> ?PR?_PCT_PAGECHANGE?BUSCTRL

?PR?_PCT_WRITEASICBYTE?BUSCTRL                  -----    -----      -----    -----      00D5H    0004H
  +--> ?PR?BUSCTRL
  +--> ?PR?_PCT_PAGECHANGE?BUSCTRL

?PR?PCT_INITIALOSD?OSDACTION                    -----    -----      0027H    0001H      -----    -----
  +--> ?PR?PCT_INITOSDCOLOR?OSDCTRL
  +--> ?PR?PCT_CLEARGRAPHATTR?OSD_GRAPH
  +--> ?PR?_PCT_PRESETFOREGROUNDCOLOR?OSDCTRL
  +--> ?PR?_PCT_PRESETBACKGROUNDCOLOR?OSDCTRL
  +--> ?PR?_PCT_ENSHOWOSDPAGE?OSDCTRL
  +--> ?PR?_PCT_SETOSDDRAWPAGE?OSDCTRL
  +--> ?PR?_PCT_FULLCOLORONOSD?OSDCTRL

?PR?PCT_INITOSDCOLOR?OSDCTRL                    -----    -----      -----    -----      -----    -----
  +--> ?PR?_PCT_WRITEASICBYTE?BUSCTRL
  +--> ?PR?OSDCTRL
  +--> ?PR?_PCT_SETOSDCOLOR?OSDCTRL

?PR?OSDCTRL                                     -----    -----      -----    -----      -----    -----
  +--> ?CO?OSDCTRL

?PR?_PCT_SETOSDCOLOR?OSDCTRL                    -----    -----      -----    -----      00A5H    0005H
  +--> ?PR?_PCT_WRITEASICBYTE?BUSCTRL

?PR?_PCT_ENSHOWOSDPAGE?OSDCTRL                  -----    -----      -----    -----      00ABH    0001H
  +--> ?PR?OSDCTRL
  +--> ?PR?_PCT_WRITEASICBYTE?BUSCTRL
  +--> ?PR?_PCT_READASICBYTE?BUSCTRL

?PR?_PCT_SETOSDDRAWPAGE?OSDCTRL                 -----    -----      -----    -----      00ABH    0001H
  +--> ?PR?OSDCTRL
  +--> ?PR?_PCT_READASICBYTE?BUSCTRL
  +--> ?PR?_PCT_WRITEASICBYTE?BUSCTRL

?PR?_PCT_FULLCOLORONOSD?OSDCTRL                 -----    -----      -----    -----      00A5H    0006H
  +--> ?PR?OSDCTRL
  +--> ?PR?_PCT_WRITEASICBYTE?BUSCTRL
  +--> ?PR?_PCT_READASICBYTE?BUSCTRL

?PR?RESETCOMMSELL?MAIN                          -----    -----      -----    -----      -----    -----
  +--> ?CO?MAIN
  +--> ?PR?_PUTSP?MAIN

?PR?_PUTSP?MAIN                                 -----    -----      0025H    0001H      009FH    0003H
  +--> ?PR?_RS_TX?UART

?PR?COMMANDSHELL?MAIN                           -----    -----      0025H    0001H      -----    -----
  +--> ?PR?RS_RXREADY?UART
BL51 BANKED LINKER/LOCATER V6.22.2.0                                                  07/13/2021  11:06:07  PAGE 7


  +--> ?PR?RS_RX?UART
  +--> ?PR?_RS_TX?UART
  +--> ?PR?_CHKSTARTCOMMSHELL?MAIN
  +--> ?PR?NEWLINE?MAIN

?PR?RS_RX?UART                                  -----    -----      -----    -----      -----    -----
  +--> ?PR?UART

?PR?_CHKSTARTCOMMSHELL?MAIN                     -----    -----      -----    -----      009FH    0003H
  +--> ?CO?MAIN

?PR?NEWLINE?MAIN                                -----    -----      -----    -----      -----    -----
  +--> ?CO?MAIN
  +--> ?PR?_PUTS?PUTS

?PR?_PUTS?PUTS                                  -----    -----      -----    -----      -----    -----
  +--> ?PR?PUTCHAR?PUTCHAR

?PR?_PCT_RUNCOMMSHELL?COMMANDSHELL              -----    -----      0025H    0002H      009FH    0006H
  +--> ?PR?COMMANDSHELL
  +--> ?PR?_PCT_GETFIRSTSTR?COMMANDSHELL
  +--> ?PR?_PCT_STRTOCOMMCODE?COMMANDSHELL
  +--> ?CO?COMMANDSHELL
  +--> ?PR?_MONIREADPAGEBUFFER?COMMANDSHELL
  +--> ?PR?_MONIREADONEBUFFER?COMMANDSHELL
  +--> ?PR?_MONIWRITEONEBUFFER?COMMANDSHELL
  +--> ?PR?_MONIWRITEASICBYTE?COMMANDSHELL
  +--> ?PR?_MONIREADASICBYTE?COMMANDSHELL
  +--> ?PR?_MONIAUDIOMIXING?COMMANDSHELL
  +--> ?PR?MONIAUDIOMUTE?COMMANDSHELL
  +--> ?PR?PCT_AUDIOREGLIST?TW28XX_AUDIO
  +--> ?PR?_MONIAUDIOGAIN?COMMANDSHELL
  +--> ?PR?_MONIAUDIOLIVE?COMMANDSHELL
  +--> ?PR?MONIREGISTERDUMP?COMMANDSHELL
  +--> ?PR?_PCT_WINATTRCLEAR?TW28XX_VIDEO
  +--> ?PR?_MONIVIDEOMIXWIN?COMMANDSHELL
  +--> ?PR?PCT_SENDACK?COMMANDSHELL
  +--> ?PR?_MONIVIDEOMIXATTR?COMMANDSHELL
  +--> ?PR?_MONIYVIDEOMIX?COMMANDSHELL
  +--> ?PR?PCT_INITIALTW2835?TW2835_INIT
  +--> ?PR?MONIVIDEOAUTODETECT?COMMANDSHELL
  +--> ?PR?_MONISETVIDEOFORMAT?COMMANDSHELL
  +--> ?PR?_MONISHOWSODSTR?COMMANDSHELL
  +--> ?PR?_MONIHSCOMM?COMMANDSHELL
  +--> ?PR?PCT_AUDIOACTIONFORHS?COMMANDSHELL
  +--> ?PR?PCT_OSDACTIONFORHS?OSDACTION
  +--> ?PR?_PCT_FLASHOSDCTRL?MAIN
  +--> ?PR?_MONIHSCOMMSJMODE?COMMANDSHELL
  +--> ?PR?MONIHSCOMMDISSCROLL?COMMANDSHELL
  +--> ?PR?MONIHSCOMMVERSION?COMMANDSHELL

?PR?COMMANDSHELL                                -----    -----      -----    -----      -----    -----
  +--> ?CO?COMMANDSHELL

?PR?_PCT_GETFIRSTSTR?COMMANDSHELL               -----    -----      -----    -----      00ABH    0006H
  +--> ?PR?COMMANDSHELL

BL51 BANKED LINKER/LOCATER V6.22.2.0                                                  07/13/2021  11:06:07  PAGE 8


?PR?_PCT_STRTOCOMMCODE?COMMANDSHELL             -----    -----      0031H    0002H      00ABH    0003H
  +--> ?PR?COMMANDSHELL

?PR?_MONIREADPAGEBUFFER?COMMANDSHELL            -----    -----      0027H    0003H      -----    -----
  +--> ?PR?COMMANDSHELL
  +--> ?CO?COMMANDSHELL
  +--> ?PR?SCANF?SCANF
  +--> ?PR?_PCT_READASICBYTE?BUSCTRL
  +--> ?PR?PRINTF?PRINTF

?PR?SCANF?SCANF                                 0023H.0  0000H.6    0031H    0005H      00ABH    0015H
  +--> ?PR?GETCHAR?UNGETCHAR
  +--> ?PR?_ISSPACE?ISSPACE
  +--> ?PR?GETCHAR?GETCHAR

?PR?GETCHAR?GETCHAR                             -----    -----      -----    -----      -----    -----
  +--> ?PR?_GETKEY?_GETKEY
  +--> ?PR?PUTCHAR?PUTCHAR

?PR?PRINTF?PRINTF                               0023H.0  0001H.1    002BH    0005H      00A5H    000FH
  +--> ?PR?PUTCHAR?PUTCHAR

?PR?_MONIREADONEBUFFER?COMMANDSHELL             -----    -----      0027H    0002H      -----    -----
  +--> ?PR?COMMANDSHELL
  +--> ?CO?COMMANDSHELL
  +--> ?PR?SCANF?SCANF
  +--> ?PR?_PCT_READASICBYTE?BUSCTRL
  +--> ?PR?PRINTF?PRINTF

?PR?_MONIWRITEONEBUFFER?COMMANDSHELL            -----    -----      0027H    0003H      -----    -----
  +--> ?PR?COMMANDSHELL
  +--> ?CO?COMMANDSHELL
  +--> ?PR?SCANF?SCANF
  +--> ?PR?_PCT_WRITEASICBYTE?BUSCTRL

?PR?_MONIWRITEASICBYTE?COMMANDSHELL             -----    -----      0027H    0004H      -----    -----
  +--> ?PR?COMMANDSHELL
  +--> ?CO?COMMANDSHELL
  +--> ?PR?SCANF?SCANF
  +--> ?PR?_PCT_WRITEASICBYTE?BUSCTRL

?PR?_MONIREADASICBYTE?COMMANDSHELL              -----    -----      0027H    0004H      -----    -----
  +--> ?PR?COMMANDSHELL
  +--> ?CO?COMMANDSHELL
  +--> ?PR?SCANF?SCANF
  +--> ?PR?_PCT_READASICBYTE?BUSCTRL
  +--> ?PR?PRINTF?PRINTF

?PR?_MONIAUDIOMIXING?COMMANDSHELL               -----    -----      0027H    000AH      00A5H    0006H
  +--> ?PR?COMMANDSHELL
  +--> ?PR?_PCT_GETFIRSTSTR?COMMANDSHELL
  +--> ?PR?_PCT_AUDIOMIXMUTE?TW28XX_AUDIO
  +--> ?PR?_ATOI?ATOI
  +--> ?PR?SCANF?SCANF
  +--> ?PR?_PCT_AUDIOMIXCTRL?TW28XX_AUDIO
  +--> ?CO?COMMANDSHELL

BL51 BANKED LINKER/LOCATER V6.22.2.0                                                  07/13/2021  11:06:07  PAGE 9


?PR?_PCT_AUDIOMIXMUTE?TW28XX_AUDIO              -----    -----      0031H    0001H      00ABH    0002H
  +--> ?PR?_PCT_READASICBYTE?BUSCTRL
  +--> ?PR?_PCT_WRITEASICBYTE?BUSCTRL

?PR?_ATOI?ATOI                                  0023H.0  0000H.1    -----    -----      00ABH    0005H
  +--> ?PR?_ISSPACE?ISSPACE
  +--> ?PR?_ISDIGIT?ISDIGIT

?PR?_PCT_AUDIOMIXCTRL?TW28XX_AUDIO              -----    -----      -----    -----      00ABH    0004H
  +--> ?PR?TW28XX_AUDIO
  +--> ?PR?_PCT_READASICBYTE?BUSCTRL
  +--> ?CO?TW28XX_AUDIO
  +--> ?PR?_PCT_WRITEASICBYTE?BUSCTRL
  +--> ?PR?_PCT_AUDIOSELLIVE?TW28XX_AUDIO

?PR?TW28XX_AUDIO                                -----    -----      -----    -----      -----    -----
  +--> ?CO?TW28XX_AUDIO

?PR?_PCT_AUDIOSELLIVE?TW28XX_AUDIO              -----    -----      -----    -----      00AFH    0001H
  +--> ?PR?_PCT_WRITEASICBYTE?BUSCTRL

?PR?MONIAUDIOMUTE?COMMANDSHELL                  -----    -----      -----    -----      -----    -----
  +--> ?PR?_PCT_AUDIOMIXMUTE?TW28XX_AUDIO
  +--> ?PR?_PCT_AUDIOSELLIVE?TW28XX_AUDIO

?PR?PCT_AUDIOREGLIST?TW28XX_AUDIO               -----    -----      -----    -----      -----    -----
  +--> ?PR?PRINTF?PRINTF
  +--> ?PR?_PCT_READASICBYTE?BUSCTRL
  +--> ?CO?TW28XX_AUDIO

?PR?_MONIAUDIOGAIN?COMMANDSHELL                 -----    -----      0027H    000AH      00A5H    0006H
  +--> ?PR?COMMANDSHELL
  +--> ?PR?_PCT_GETFIRSTSTR?COMMANDSHELL
  +--> ?PR?_ATOI?ATOI
  +--> ?PR?SCANF?SCANF
  +--> ?CO?COMMANDSHELL
  +--> ?PR?_PCT_AUDIOGAINCTRL?TW28XX_AUDIO

?PR?_PCT_AUDIOGAINCTRL?TW28XX_AUDIO             -----    -----      -----    -----      00ABH    0003H
  +--> ?PR?TW28XX_AUDIO
  +--> ?PR?_PCT_READASICBYTE?BUSCTRL
  +--> ?CO?TW28XX_AUDIO
  +--> ?PR?_PCT_WRITEASICBYTE?BUSCTRL

?PR?_MONIAUDIOLIVE?COMMANDSHELL                 -----    -----      0027H    0001H      -----    -----
  +--> ?PR?COMMANDSHELL
  +--> ?PR?SCANF?SCANF
  +--> ?PR?_PCT_AUDIOSELLIVE?TW28XX_AUDIO

?PR?MONIREGISTERDUMP?COMMANDSHELL               -----    -----      0027H    0002H      -----    -----
  +--> ?CO?COMMANDSHELL
  +--> ?PR?PRINTF?PRINTF
  +--> ?PR?_PCT_READASICBYTE?BUSCTRL

?PR?_PCT_WINATTRCLEAR?TW28XX_VIDEO              -----    -----      -----    -----      00A5H    0003H
  +--> ?PR?TW28XX_VIDEO
  +--> ?PR?_PCT_READASICBYTE?BUSCTRL
BL51 BANKED LINKER/LOCATER V6.22.2.0                                                  07/13/2021  11:06:07  PAGE 10


  +--> ?PR?_PCT_WRITEASICBYTE?BUSCTRL

?PR?TW28XX_VIDEO                                -----    -----      -----    -----      -----    -----
  +--> ?CO?TW28XX_VIDEO

?PR?_MONIVIDEOMIXWIN?COMMANDSHELL               -----    -----      0027H    0002H      -----    -----
  +--> ?PR?COMMANDSHELL
  +--> ?CO?COMMANDSHELL
  +--> ?PR?SCANF?SCANF
  +--> ?PR?_PCT_SETXVIDEOMIXING?TW28XX_VIDEO

?PR?_PCT_SETXVIDEOMIXING?TW28XX_VIDEO           -----    -----      -----    -----      00A5H    0007H
  +--> ?PR?TW28XX_VIDEO
  +--> ?PR?_PCT_WRITEASICBYTE?BUSCTRL
  +--> ?CO?TW28XX_VIDEO
  +--> ?PR?_PCT_SETCHANELSCALE?TW28XX_VIDEO
  +--> ?PR?_PCT_WRITESTABLE?BUSCTRL

?PR?_PCT_SETCHANELSCALE?TW28XX_VIDEO            -----    -----      -----    -----      00ACH    0008H
  +--> ?PR?TW28XX_VIDEO
  +--> ?CO?TW28XX_VIDEO
  +--> ?PR?_PCT_WRITEASICBYTE?BUSCTRL

?PR?_PCT_WRITESTABLE?BUSCTRL                    -----    -----      -----    -----      00ACH    0003H
  +--> ?PR?BUSCTRL
  +--> ?PR?_PCT_READASICBYTE?BUSCTRL
  +--> ?PR?_PCT_WRITEASICBYTE?BUSCTRL

?PR?PCT_SENDACK?COMMANDSHELL                    -----    -----      -----    -----      -----    -----
  +--> ?PR?_RS_TX?UART

?PR?_MONIVIDEOMIXATTR?COMMANDSHELL              -----    -----      0027H    000AH      00A5H    0006H
  +--> ?PR?COMMANDSHELL
  +--> ?PR?_ATOI?ATOI
  +--> ?PR?_PCT_STRTOCOMMCODE?COMMANDSHELL
  +--> ?CO?COMMANDSHELL
  +--> ?PR?_PCT_GETFIRSTSTR?COMMANDSHELL
  +--> ?PR?_PCT_WINATTRCTRL?TW28XX_VIDEO

?PR?_PCT_WINATTRCTRL?TW28XX_VIDEO               -----    -----      -----    -----      00ABH    0003H
  +--> ?PR?TW28XX_VIDEO
  +--> ?PR?_PCT_READASICBYTE?BUSCTRL
  +--> ?PR?_PCT_WRITEASICBYTE?BUSCTRL

?PR?_MONIYVIDEOMIX?COMMANDSHELL                 -----    -----      0027H    0001H      -----    -----
  +--> ?PR?COMMANDSHELL
  +--> ?PR?SCANF?SCANF
  +--> ?PR?_PCT_SETYVIDEOMIXING?TW28XX_VIDEO

?PR?_PCT_SETYVIDEOMIXING?TW28XX_VIDEO           -----    -----      -----    -----      -----    -----
  +--> ?CO?TW28XX_VIDEO
  +--> ?PR?_PCT_WRITESTABLE?BUSCTRL

?PR?MONIVIDEOAUTODETECT?COMMANDSHELL            -----    -----      -----    -----      -----    -----
  +--> ?PR?_PCT_DETECTVIDEOFORMAT?TW28XX_VIDEO
  +--> ?CO?COMMANDSHELL
  +--> ?PR?PRINTF?PRINTF
BL51 BANKED LINKER/LOCATER V6.22.2.0                                                  07/13/2021  11:06:07  PAGE 11



?PR?_MONISETVIDEOFORMAT?COMMANDSHELL            -----    -----      0027H    0008H      00A5H    0006H
  +--> ?PR?COMMANDSHELL
  +--> ?PR?_PCT_GETFIRSTSTR?COMMANDSHELL
  +--> ?PR?_ATOI?ATOI
  +--> ?CO?COMMANDSHELL
  +--> ?PR?_PCT_SETVIDEOFORMAT?TW28XX_VIDEO
  +--> ?PR?SCANF?SCANF

?PR?_PCT_SETVIDEOFORMAT?TW28XX_VIDEO            -----    -----      -----    -----      00ABH    0002H
  +--> ?PR?_PCT_READASICBYTE?BUSCTRL
  +--> ?PR?TW28XX_VIDEO
  +--> ?PR?_PCT_WRITEASICBYTE?BUSCTRL

?PR?_MONISHOWSODSTR?COMMANDSHELL                -----    -----      0027H    0002H      00A5H    0006H
  +--> ?PR?COMMANDSHELL
  +--> ?PR?_ATOI?ATOI
  +--> ?PR?_PCT_PRESETFOREGROUNDCOLOR?OSDCTRL
  +--> ?PR?_PCT_PRESETBACKGROUNDCOLOR?OSDCTRL
  +--> ?PR?_PCT_SETOSDDRAWPAGE?OSDCTRL
  +--> ?PR?_PCT_SHOWOSDSTRING?OSDCTRL
  +--> ?PR?_PCT_ENSHOWOSDPAGE?OSDCTRL
  +--> ?PR?_PCT_GETFIRSTSTR?COMMANDSHELL

?PR?_PCT_SHOWOSDSTRING?OSDCTRL                  -----    -----      -----    -----      00ABH    0007H
  +--> ?PR?OSDCTRL
  +--> ?PR?_STRLEN?STRLEN
  +--> ?PR?_PCT_WRITEOSDFNTX?OSDCTRL
  +--> ?PR?_PCT_WRITEOSDFNTY?OSDCTRL
  +--> ?PR?PTC_SWITCHTOI2CMODE?BUSCTRL

?PR?_PCT_WRITEOSDFNTX?OSDCTRL                   -----    -----      0029H    0003H      00B2H    0013H
  +--> ?PR?OSDCTRL
  +--> ?PR?_PCT_WRITEOSDDATABUFFERX?OSDCTRL
  +--> ?PR?_PCT_WRITEASICBYTE?BUSCTRL
  +--> ?PR?_PCT_READASICBYTE?BUSCTRL

?PR?_PCT_WRITEOSDDATABUFFERX?OSDCTRL            -----    -----      -----    -----      00C5H    0004H
  +--> ?PR?OSDCTRL
  +--> ?PR?_PCT_WRITEASICBYTE?BUSCTRL

?PR?_PCT_WRITEOSDFNTY?OSDCTRL                   -----    -----      0029H    0002H      00B2H    001FH
  +--> ?PR?OSDCTRL
  +--> ?PR?_PCT_WRITEOSDDATABUFFERY?OSDCTRL
  +--> ?PR?_PCT_WRITEASICBYTE?BUSCTRL
  +--> ?PR?_PCT_READASICBYTE?BUSCTRL

?PR?_PCT_WRITEOSDDATABUFFERY?OSDCTRL            -----    -----      -----    -----      00D1H    0004H
  +--> ?PR?OSDCTRL
  +--> ?PR?_PCT_WRITEASICBYTE?BUSCTRL

?PR?_MONIHSCOMM?COMMANDSHELL                    -----    -----      0027H    0003H      -----    -----
  +--> ?PR?COMMANDSHELL
  +--> ?CO?COMMANDSHELL
  +--> ?PR?SCANF?SCANF
  +--> ?PR?_PCT_WINATTRCTRLY?TW28XX_VIDEO
  +--> ?PR?_PCT_RECOMPENSEYHDELAY?TW28XX_VIDEO
BL51 BANKED LINKER/LOCATER V6.22.2.0                                                  07/13/2021  11:06:07  PAGE 12


  +--> ?PR?_PCT_SETVIDEOHDELAY?TW28XX_VIDEO
  +--> ?PR?_PCT_SETXVIDEOMIXING?TW28XX_VIDEO
  +--> ?PR?_PCT_WINATTRCTRL?TW28XX_VIDEO
  +--> ?PR?_PCT_FLASHOSDCTRL?MAIN
  +--> ?PR?_PCT_CHECKVMIXTYPE?COMMANDSHELL
  +--> ?PR?_PCT_DISSHOWOSDPAGE?OSDCTRL
  +--> ?PR?_PCT_CLEAROSDPAGEX?OSDCTRL
  +--> ?PR?PCT_SHOWMODEICON?OSDACTION
  +--> ?PR?_PCT_OSD_ACTIONPTHX?OSDACTION

?PR?_PCT_WINATTRCTRLY?TW28XX_VIDEO              -----    -----      -----    -----      00A5H    0003H
  +--> ?PR?TW28XX_VIDEO
  +--> ?PR?_PCT_READASICBYTE?BUSCTRL
  +--> ?PR?_PCT_WRITEASICBYTE?BUSCTRL

?PR?_PCT_RECOMPENSEYHDELAY?TW28XX_VIDEO         -----    -----      -----    -----      00A5H    0003H
  +--> ?PR?TW28XX_VIDEO
  +--> ?PR?_PCT_READASICBYTE?BUSCTRL
  +--> ?CO?TW28XX_VIDEO
  +--> ?PR?_PCT_WRITEASICBYTE?BUSCTRL

?PR?_PCT_SETVIDEOHDELAY?TW28XX_VIDEO            -----    -----      -----    -----      00A5H    000BH
  +--> ?PR?TW28XX_VIDEO
  +--> ?CO?TW28XX_VIDEO
  +--> ?PR?_PCT_WRITEASICBYTE?BUSCTRL
  +--> ?PR?_PCT_READASICBYTE?BUSCTRL

?PR?_PCT_CHECKVMIXTYPE?COMMANDSHELL             -----    -----      002AH    0001H      -----    -----
  +--> ?PR?COMMANDSHELL

?PR?_PCT_DISSHOWOSDPAGE?OSDCTRL                 -----    -----      -----    -----      00A5H    0001H
  +--> ?PR?OSDCTRL
  +--> ?PR?_PCT_READASICBYTE?BUSCTRL
  +--> ?PR?_PCT_WRITEASICBYTE?BUSCTRL

?PR?_PCT_CLEAROSDPAGEX?OSDCTRL                  -----    -----      -----    -----      -----    -----
  +--> ?PR?_PCT_SETOSDDRAWPAGE?OSDCTRL
  +--> ?PR?_PCT_PRESETBACKGROUNDCOLOR?OSDCTRL
  +--> ?PR?_PCT_FULLCOLORONOSD?OSDCTRL

?PR?PCT_SHOWMODEICON?OSDACTION                  -----    -----      -----    -----      -----    -----
  +--> ?PR?_PCT_SETOSDDRAWPAGE?OSDCTRL
  +--> ?PR?OSDACTION
  +--> ?CO?OSDACTION
  +--> ?PR?_PCT_SHOWGRAPHSTRING?OSD_GRAPH
  +--> ?PR?_PCT_PRESETBACKGROUNDCOLOR?OSDCTRL
  +--> ?PR?_PCT_PRESETFOREGROUNDCOLOR?OSDCTRL

?PR?OSDACTION                                   -----    -----      -----    -----      -----    -----
  +--> ?CO?OSDACTION

?PR?_PCT_SHOWGRAPHSTRING?OSD_GRAPH              -----    -----      -----    -----      00A8H    0007H
  +--> ?PR?OSD_GRAPH
  +--> ?PR?_STRLEN?STRLEN
  +--> ?PR?_PCT_OSD16X16GRAPHX?OSD_GRAPH
  +--> ?PR?PTC_SWITCHTOI2CMODE?BUSCTRL

BL51 BANKED LINKER/LOCATER V6.22.2.0                                                  07/13/2021  11:06:07  PAGE 13


?PR?_PCT_OSD16X16GRAPHX?OSD_GRAPH               -----    -----      -----    -----      00AFH    000BH
  +--> ?PR?OSD_GRAPH
  +--> ?CO?OSD_GRAPH
  +--> ?PR?_PCT_WRITEASICBYTE?BUSCTRL
  +--> ?PR?_PCT_READASICBYTE?BUSCTRL

?PR?_PCT_OSD_ACTIONPTHX?OSDACTION               -----    -----      -----    -----      00A5H    0003H
  +--> ?PR?OSDACTION
  +--> ?PR?_PCT_PRESETFOREGROUNDCOLOR?OSDCTRL
  +--> ?PR?_PCT_PRESETBACKGROUNDCOLOR?OSDCTRL
  +--> ?PR?_PCT_SHOWGRAPHSTRING?OSD_GRAPH

?PR?PCT_AUDIOACTIONFORHS?COMMANDSHELL           -----    -----      0027H    0002H      -----    -----
  +--> ?PR?_PCT_AUDIOSELLIVE?TW28XX_AUDIO
  +--> ?PR?_PCT_AUDIOMIXMUTE?TW28XX_AUDIO

?PR?PCT_OSDACTIONFORHS?OSDACTION                -----    -----      -----    -----      -----    -----
  +--> ?PR?_PCT_SETOSDDRAWPAGE?OSDCTRL
  +--> ?PR?OSDACTION
  +--> ?PR?_PCT_SHOWMIRRORICON?OSDACTION
  +--> ?PR?_PCT_SHOWSPEAKICON?OSDACTION
  +--> ?PR?_PCT_SHOWINDICATEICON?OSDACTION
  +--> ?PR?PCT_ENFALSHVLOSS?OSDACTION
  +--> ?PR?_PCT_ENSHOWOSDPAGE?OSDCTRL

?PR?_PCT_SHOWMIRRORICON?OSDACTION               -----    -----      -----    -----      00A5H    0003H
  +--> ?PR?OSDACTION
  +--> ?PR?_PCT_PRESETFOREGROUNDCOLOR?OSDCTRL
  +--> ?PR?_PCT_CLEARWORDSPATHX?OSDCTRL
  +--> ?PR?_PCT_SHOWGRAPHSTRING?OSD_GRAPH

?PR?_PCT_CLEARWORDSPATHX?OSDCTRL                -----    -----      -----    -----      00A8H    0007H
  +--> ?PR?OSDCTRL
  +--> ?PR?_PCT_WRITEASICBYTE?BUSCTRL
  +--> ?PR?_PCT_READASICBYTE?BUSCTRL

?PR?_PCT_SHOWSPEAKICON?OSDACTION                -----    -----      -----    -----      00A5H    0003H
  +--> ?PR?OSDACTION
  +--> ?PR?_PCT_PRESETFOREGROUNDCOLOR?OSDCTRL
  +--> ?PR?_PCT_CLEARWORDSPATHX?OSDCTRL
  +--> ?PR?_PCT_SHOWGRAPHSTRING?OSD_GRAPH

?PR?_PCT_SHOWINDICATEICON?OSDACTION             -----    -----      0027H    0001H      00A5H    0003H
  +--> ?PR?OSDACTION
  +--> ?PR?_PCT_PRESETFOREGROUNDCOLOR?OSDCTRL
  +--> ?PR?_PCT_CLEARWORDSPATHX?OSDCTRL
  +--> ?PR?_PCT_SHOWGRAPHSTRING?OSD_GRAPH
  +--> ?CO?OSDACTION

?PR?_MONIHSCOMMSJMODE?COMMANDSHELL              -----    -----      -----    -----      -----    -----
  +--> ?PR?COMMANDSHELL
  +--> ?CO?COMMANDSHELL
  +--> ?PR?SCANF?SCANF

?PR?MONIHSCOMMDISSCROLL?COMMANDSHELL            -----    -----      -----    -----      -----    -----
  +--> ?PR?_PCT_ENSHOWOSDPAGE?OSDCTRL

BL51 BANKED LINKER/LOCATER V6.22.2.0                                                  07/13/2021  11:06:07  PAGE 14


?PR?MONIHSCOMMVERSION?COMMANDSHELL              -----    -----      -----    -----      00A5H    0001H
  +--> ?PR?_RS_TX?UART
  +--> ?CO?COMMANDSHELL

?PR?PCT_CHECKSYSTEM?COMMANDSHELL                -----    -----      -----    -----      -----    -----
  +--> ?PR?_PCT_DETECTVIDEOFORMAT?TW28XX_VIDEO
  +--> ?PR?_PCT_ENSHOWOSDPAGE?OSDCTRL
  +--> ?PR?_PCT_CHANGESYSTEMTYPE?TW2835_INIT
  +--> ?PR?_PCT_RECOMPENSEYHDELAY?TW28XX_VIDEO
  +--> ?PR?COMMANDSHELL
  +--> ?PR?_PCT_SETVIDEOHDELAY?TW28XX_VIDEO
  +--> ?PR?_PCT_SETXVIDEOMIXING?TW28XX_VIDEO
  +--> ?PR?_PCT_CLEAROSDPAGEX?OSDCTRL
  +--> ?PR?PCT_SHOWMODEICON?OSDACTION
  +--> ?PR?_PCT_OSD_ACTIONPTHX?OSDACTION
  +--> ?PR?PCT_OSDACTIONFORHS?OSDACTION

?PR?_PCT_CHANGESYSTEMTYPE?TW2835_INIT           -----    -----      -----    -----      009FH    0002H
  +--> ?PR?TW2835_INIT
  +--> ?CO?TW2835_INIT
  +--> ?PR?_PCT_WRITEASICTABLE?BUSCTRL

?PR?PCT_GETVIDEOSIGNALSTATUS?OSDACTION          -----    -----      -----    -----      -----    -----
  +--> ?PR?_PCT_READASICBYTE?BUSCTRL
  +--> ?PR?_PCT_WRITEASICBYTE?BUSCTRL
  +--> ?PR?PCT_SHOWVLOSS?OSDACTION

?PR?PCT_SHOWVLOSS?OSDACTION                     -----    -----      -----    -----      -----    -----
  +--> ?PR?OSDACTION
  +--> ?PR?_PCT_SHOWGRAPHSTRING?OSD_GRAPH
  +--> ?PR?_PCT_CLEARWORDSPATHX?OSDCTRL

*** NEW ROOT ***************************************************

?PR?RS_INTERRUPT?UART                           -----    -----      -----    -----      -----    -----
  +--> ?PR?UART



SYMBOL TABLE OF MODULE:  .\OBJ\TW2835 (?C_STARTUP)

  VALUE           TYPE          NAME
  ----------------------------------

  -------         MODULE        ?C_STARTUP
  C:8854H         SEGMENT       ?C_C51STARTUP
  I:0036H         SEGMENT       ?STACK
  C:0000H         PUBLIC        ?C_STARTUP
  D:00E0H         SYMBOL        ACC
  D:00F0H         SYMBOL        B
  D:0083H         SYMBOL        DPH
  D:0082H         SYMBOL        DPL
  N:0000H         SYMBOL        IBPSTACK
  N:0100H         SYMBOL        IBPSTACKTOP
  N:0080H         SYMBOL        IDATALEN
  C:8857H         SYMBOL        IDATALOOP
  N:0000H         SYMBOL        PBPSTACK
BL51 BANKED LINKER/LOCATER V6.22.2.0                                                  07/13/2021  11:06:07  PAGE 15


  N:0100H         SYMBOL        PBPSTACKTOP
  N:0000H         SYMBOL        PDATALEN
  N:0000H         SYMBOL        PDATASTART
  N:0000H         SYMBOL        PPAGE
  N:0000H         SYMBOL        PPAGEENABLE
  D:00A0H         SYMBOL        PPAGE_SFR
  D:0081H         SYMBOL        SP
  C:8854H         SYMBOL        STARTUP1
  N:0000H         SYMBOL        XBPSTACK
  N:0000H         SYMBOL        XBPSTACKTOP
  N:0000H         SYMBOL        XDATALEN
  N:0000H         SYMBOL        XDATASTART
  C:0000H         LINE#         126
  C:8854H         LINE#         133
  C:8856H         LINE#         134
  C:8857H         LINE#         135
  C:8858H         LINE#         136
  C:885AH         LINE#         185
  C:885DH         LINE#         196
  -------         ENDMOD        ?C_STARTUP

  -------         MODULE        UART
  C:0000H         SYMBOL        _ICE_DUMMY_
  D:0090H         PUBLIC        P1
  D:00B0H         PUBLIC        P3
  C:986DH         PUBLIC        InitialUART
  D:00A8H         PUBLIC        IE
  X:0000H         PUBLIC        RS_RECVBUF
  B:00A8H.4       PUBLIC        ES
  D:00B8H         PUBLIC        IP
  B:0098H.0       PUBLIC        RI
  B:0098H.1       PUBLIC        TI
  B:00B8H.4       PUBLIC        PS
  D:00D8H         PUBLIC        CCON
  D:0099H         PUBLIC        SBUF
  D:00C0H         PUBLIC        WDTC
  D:0098H         PUBLIC        SCON
  D:0088H         PUBLIC        TCON
  C:987DH         PUBLIC        RS_RxReady
  D:008DH         PUBLIC        TH1
  D:00E8H         PUBLIC        IEA
  X:0050H         PUBLIC        RsRxRp
  B:0088H.6       PUBLIC        TR1
  X:0051H         PUBLIC        RsRxWp
  D:00F8H         PUBLIC        IPA
  D:00C8H         PUBLIC        T2CON
  C:97B7H         PUBLIC        RS_rx
  C:0003H         PUBLIC        _RS_tx
  C:96CCH         PUBLIC        RS_interrupt
  D:00D0H         PUBLIC        PSW
  C:98B9H         SYMBOL        Com000E
  C:98B9H         SYMBOL        L?0015
  -------         PROC          COM000E
  -------         ENDPROC       COM000E
  -------         PROC          INITIALUART
  C:986DH         LINE#         66
  C:986DH         LINE#         67
BL51 BANKED LINKER/LOCATER V6.22.2.0                                                  07/13/2021  11:06:07  PAGE 16


  C:986DH         LINE#         69
  C:986FH         LINE#         70
  C:9871H         LINE#         77
  C:9874H         LINE#         84
  C:9876H         LINE#         86
  C:987AH         LINE#         87
  C:987CH         LINE#         88
  -------         ENDPROC       INITIALUART
  -------         PROC          RS_RXREADY
  C:987DH         LINE#         94
  C:987DH         LINE#         95
  C:987DH         LINE#         96
  C:9889H         LINE#         97
  C:988BH         LINE#         98
  -------         ENDPROC       RS_RXREADY
  -------         PROC          RS_RX
  -------         DO            
  D:0007H         SYMBOL        ret
  -------         ENDDO         
  C:97B7H         LINE#         104
  C:97B7H         LINE#         105
  C:97B7H         LINE#         108
  C:97B9H         LINE#         112
  C:97C1H         LINE#         113
  C:97C3H         LINE#         114
  C:97C8H         LINE#         115
  C:97CAH         LINE#         116
  C:97CCH         LINE#         118
  C:97CCH         LINE#         119
  -------         ENDPROC       RS_RX
  -------         PROC          _RS_TX
  D:0007H         SYMBOL        tx_buf
  C:0003H         LINE#         125
  C:0003H         LINE#         126
  C:0003H         LINE#         127
  C:0003H         LINE#         128
  C:0006H         LINE#         129
  C:0008H         LINE#         130
  C:000AH         LINE#         131
  C:000AH         LINE#         132
  C:000AH         LINE#         133
  C:000AH         LINE#         134
  -------         ENDPROC       _RS_TX
  -------         PROC          RS_INTERRUPT
  C:96CCH         LINE#         140
  C:96D3H         LINE#         142
  C:96D6H         LINE#         143
  C:96D8H         LINE#         147
  C:96E1H         LINE#         148
  C:96E3H         LINE#         149
  C:96EAH         LINE#         161
  C:96EAH         LINE#         162
  -------         ENDPROC       RS_INTERRUPT
  -------         ENDMOD        UART

  -------         MODULE        BUSCTRL
  C:0000H         SYMBOL        _ICE_DUMMY_
BL51 BANKED LINKER/LOCATER V6.22.2.0                                                  07/13/2021  11:06:07  PAGE 17


  D:0080H         PUBLIC        P0
  D:0090H         PUBLIC        P1
  D:00B0H         PUBLIC        P3
  B:00A8H.7       PUBLIC        EA
  D:00A8H         PUBLIC        IE
  C:9682H         PUBLIC        _PCT_PageChange
  C:8DA4H         PUBLIC        _PCT_WriteSTable
  D:00B8H         PUBLIC        IP
  B:0090H.3       PUBLIC        HALE
  B:0090H.2       PUBLIC        HRDB
  D:00D8H         PUBLIC        CCON
  D:00C0H         PUBLIC        WDTC
  B:0090H.1       PUBLIC        HWRB
  D:0098H         PUBLIC        SCON
  D:0088H         PUBLIC        TCON
  C:88E0H         PUBLIC        _PCT_WriteAsicTable
  C:9915H         PUBLIC        PTC_SwitchToI2CMode
  D:00E8H         PUBLIC        IEA
  B:00B0H.6       PUBLIC        HCSB0
  B:00B0H.7       PUBLIC        HCSB1
  D:00F8H         PUBLIC        IPA
  C:8AA6H         PUBLIC        _PCT_ReadAsicByte
  D:00C8H         PUBLIC        T2CON
  C:8B0BH         PUBLIC        _PCT_WriteAsicByte
  D:00D0H         PUBLIC        PSW
  C:96EFH         SYMBOL        Com002C
  C:96EFH         SYMBOL        L?0045
  C:96EFH         SYMBOL        L?0046
  C:96FAH         SYMBOL        L?0047
  C:96FAH         SYMBOL        L?0048
  C:9701H         SYMBOL        L?0049
  C:9701H         SYMBOL        L?0050
  C:9709H         SYMBOL        L?0051
  C:970BH         SYMBOL        L?0052
  -------         PROC          COM002C
  -------         ENDPROC       COM002C
  -------         PROC          _PCT_PAGECHANGE
  D:0007H         SYMBOL        _pg
  -------         DO            
  X:00D9H         SYMBOL        _dvc
  D:0006H         SYMBOL        _addr
  -------         ENDDO         
  C:9682H         LINE#         66
  C:9682H         LINE#         67
  C:9682H         LINE#         68
  C:9686H         LINE#         69
  C:9688H         LINE#         71
  C:968AH         LINE#         73
  C:968DH         LINE#         77
  C:968FH         LINE#         78
  C:9691H         LINE#         80
  C:9691H         LINE#         81
  C:9691H         LINE#         82
  C:9694H         LINE#         83
  C:9696H         LINE#         84
  C:9698H         LINE#         85
  C:969AH         LINE#         87
BL51 BANKED LINKER/LOCATER V6.22.2.0                                                  07/13/2021  11:06:07  PAGE 18


  C:969DH         LINE#         88
  C:969FH         LINE#         89
  C:96A1H         LINE#         90
  C:96A4H         LINE#         91
  C:96A6H         LINE#         92
  -------         ENDPROC       _PCT_PAGECHANGE
  -------         PROC          _PCT_WRITEASICBYTE
  D:0007H         SYMBOL        _dvc
  D:0005H         SYMBOL        _pg
  D:0003H         SYMBOL        _addr
  X:00D8H         SYMBOL        _wdat
  C:8B0BH         LINE#         94
  C:8B0BH         LINE#         95
  C:8B0BH         LINE#         96
  C:8B0BH         LINE#         98
  C:8B0BH         LINE#         101
  C:8B10H         LINE#         102
  C:8B15H         LINE#         104
  C:8B15H         LINE#         106
  C:8B1DH         LINE#         107
  C:8B1DH         LINE#         108
  C:8B1FH         LINE#         109
  C:8B21H         LINE#         110
  C:8B23H         LINE#         112
  C:8B23H         LINE#         114
  C:8B31H         LINE#         115
  C:8B3FH         LINE#         116
  C:8B4BH         LINE#         117
  C:8B4BH         LINE#         119
  C:8B4BH         LINE#         120
  C:8B4BH         LINE#         121
  C:8B4EH         LINE#         122
  C:8B53H         LINE#         123
  C:8B55H         LINE#         124
  C:8B57H         LINE#         126
  C:8B5AH         LINE#         128
  C:8B5FH         LINE#         129
  C:8B5FH         LINE#         130
  C:8B61H         LINE#         131
  C:8B63H         LINE#         132
  C:8B65H         LINE#         134
  C:8B65H         LINE#         135
  C:8B67H         LINE#         136
  C:8B69H         LINE#         137
  C:8B69H         LINE#         138
  C:8B6CH         LINE#         139
  C:8B6EH         LINE#         140
  -------         ENDPROC       _PCT_WRITEASICBYTE
  -------         PROC          _PCT_WRITEASICTABLE
  D:0007H         SYMBOL        _dvc
  D:0005H         SYMBOL        _pg
  D:0004H         SYMBOL        _addr
  X:00AAH         SYMBOL        _tbl_ptr
  X:00ADH         SYMBOL        _tbl_cnt
  C:88E0H         LINE#         146
  C:88E2H         LINE#         147
  C:88E2H         LINE#         148
BL51 BANKED LINKER/LOCATER V6.22.2.0                                                  07/13/2021  11:06:07  PAGE 19


  C:88E2H         LINE#         150
  C:88E2H         LINE#         154
  C:88E7H         LINE#         155
  C:88ECH         LINE#         157
  C:88ECH         LINE#         159
  C:88F3H         LINE#         160
  C:88F3H         LINE#         161
  C:88F5H         LINE#         162
  C:88F7H         LINE#         163
  C:88F9H         LINE#         165
  C:88F9H         LINE#         167
  C:8905H         LINE#         168
  C:8911H         LINE#         169
  C:891BH         LINE#         170
  C:891BH         LINE#         172
  C:891BH         LINE#         173
  C:8920H         LINE#         175
  C:8922H         LINE#         176
  C:8924H         LINE#         178
  C:893AH         LINE#         179
  C:893CH         LINE#         180
  C:893EH         LINE#         181
  C:8945H         LINE#         185
  C:8945H         LINE#         187
  C:894CH         LINE#         188
  C:894CH         LINE#         189
  C:894EH         LINE#         190
  C:8950H         LINE#         191
  C:8952H         LINE#         193
  C:8952H         LINE#         194
  C:8954H         LINE#         195
  C:8956H         LINE#         196
  C:8956H         LINE#         197
  C:8959H         LINE#         199
  C:895BH         LINE#         200
  -------         ENDPROC       _PCT_WRITEASICTABLE
  -------         PROC          _PCT_READASICBYTE
  D:0004H         SYMBOL        _dvc
  D:0005H         SYMBOL        _pg
  D:0003H         SYMBOL        _addr
  -------         DO            
  D:0006H         SYMBOL        _rdat_
  -------         ENDDO         
  C:8AA6H         LINE#         207
  C:8AA8H         LINE#         208
  C:8AA8H         LINE#         211
  C:8AA8H         LINE#         213
  C:8AADH         LINE#         214
  C:8AB2H         LINE#         217
  C:8AB2H         LINE#         219
  C:8AB2H         LINE#         221
  C:8ABAH         LINE#         222
  C:8ABAH         LINE#         223
  C:8ABCH         LINE#         224
  C:8ABEH         LINE#         225
  C:8AC0H         LINE#         227
  C:8AC0H         LINE#         229
BL51 BANKED LINKER/LOCATER V6.22.2.0                                                  07/13/2021  11:06:07  PAGE 20


  C:8ACEH         LINE#         230
  C:8ADCH         LINE#         231
  C:8AE8H         LINE#         232
  C:8AE8H         LINE#         234
  C:8AE8H         LINE#         235
  C:8AE8H         LINE#         236
  C:8AEBH         LINE#         237
  C:8AEEH         LINE#         238
  C:8AF0H         LINE#         239
  C:8AF2H         LINE#         240
  C:8AF4H         LINE#         242
  C:8AF7H         LINE#         244
  C:8AFCH         LINE#         245
  C:8AFCH         LINE#         246
  C:8AFEH         LINE#         247
  C:8B00H         LINE#         248
  C:8B02H         LINE#         250
  C:8B02H         LINE#         251
  C:8B04H         LINE#         252
  C:8B06H         LINE#         253
  C:8B06H         LINE#         255
  C:8B08H         LINE#         256
  C:8B0AH         LINE#         257
  -------         ENDPROC       _PCT_READASICBYTE
  -------         PROC          _PCT_WRITESTABLE
  D:0007H         SYMBOL        _dvc
  X:00ACH         SYMBOL        _tbl_ptr
  C:8DA4H         LINE#         264
  C:8DAEH         LINE#         265
  C:8DAEH         LINE#         269
  C:8DAEH         LINE#         270
  C:8DBCH         LINE#         271
  C:8DD9H         LINE#         272
  C:8DD9H         LINE#         273
  C:8DEDH         LINE#         274
  C:8DEDH         LINE#         275
  C:8DF8H         LINE#         276
  C:8DFAH         LINE#         277
  -------         ENDPROC       _PCT_WRITESTABLE
  -------         PROC          PTC_SWITCHTOI2CMODE
  C:9915H         LINE#         283
  C:9915H         LINE#         284
  C:9915H         LINE#         294
  -------         ENDPROC       PTC_SWITCHTOI2CMODE
  -------         ENDMOD        BUSCTRL

  -------         MODULE        COMMANDSHELL
  C:0000H         SYMBOL        _ICE_DUMMY_
  D:0090H         PUBLIC        P1
  D:00B0H         PUBLIC        P3
  C:97CDH         PUBLIC        _MoniHSCommSJmode
  C:94D2H         PUBLIC        MoniVideoAutoDetect
  C:6515H         PUBLIC        _PCT_RunCommShell
  C:7982H         PUBLIC        _MoniAudioGain
  D:00A8H         PUBLIC        IE
  C:946CH         PUBLIC        _MoniReadOneBuffer
  D:00B8H         PUBLIC        IP
BL51 BANKED LINKER/LOCATER V6.22.2.0                                                  07/13/2021  11:06:07  PAGE 21


  C:985BH         PUBLIC        _MoniYVideoMix
  X:0052H         PUBLIC        sysdat
  C:97F9H         PUBLIC        _MoniAudioLive
  D:00D8H         PUBLIC        CCON
  C:988CH         PUBLIC        PCT_SendACK
  C:949FH         PUBLIC        _MoniWriteOneBuffer
  C:989BH         PUBLIC        MoniAudioMute
  C:919DH         PUBLIC        MoniHSCommVersion
  C:8081H         PUBLIC        _MoniSetVideoFormat
  C:9087H         PUBLIC        _MoniReadAsicByte
  C:8A3EH         PUBLIC        _PCT_GetFirstStr
  C:89D3H         PUBLIC        PCT_CheckSystem
  D:00C0H         PUBLIC        WDTC
  D:0098H         PUBLIC        SCON
  D:0088H         PUBLIC        TCON
  C:903BH         PUBLIC        _MoniWriteAsicByte
  C:7ABFH         PUBLIC        _MoniHSComm
  X:0063H         PUBLIC        msg
  D:00E8H         PUBLIC        IEA
  C:92E3H         PUBLIC        _PCT_StrToCommCode
  C:91E0H         PUBLIC        _PCT_CheckVMixType
  C:9905H         PUBLIC        MoniHSCommDisScroll
  D:00F8H         PUBLIC        IPA
  C:8C91H         PUBLIC        _MoniShowSODStr
  C:6A29H         PUBLIC        _MoniVideoMixAttr
  C:9221H         PUBLIC        PCT_AudioActionForHS
  D:00C8H         PUBLIC        T2CON
  C:8DFBH         PUBLIC        _MoniVideoMixWin
  C:915AH         PUBLIC        _MoniReadPageBuffer
  X:00DAH         PUBLIC        Original_selwintype
  C:8FECH         PUBLIC        MoniRegisterDump
  D:00D0H         PUBLIC        PSW
  C:752AH         PUBLIC        _MoniAudioMixing
  C:6C39H         SYMBOL        Com00E8
  C:6C39H         SYMBOL        L?0233
  C:6C3AH         SYMBOL        L?0234
  C:6C70H         SYMBOL        L?0235
  C:6C77H         SYMBOL        L?0236
  C:6C78H         SYMBOL        L?0237
  C:6CAEH         SYMBOL        L?0238
  C:6CB5H         SYMBOL        L?0239
  C:6CB5H         SYMBOL        L?0240
  C:6CB7H         SYMBOL        L?0241
  C:6CC0H         SYMBOL        L?0242
  C:6CC1H         SYMBOL        L?0243
  C:6CE1H         SYMBOL        L?0244
  C:6CE8H         SYMBOL        L?0245
  C:6CE8H         SYMBOL        L?0246
  C:6CF3H         SYMBOL        L?0247
  C:6CFAH         SYMBOL        L?0248
  C:6D0AH         SYMBOL        L?0249
  C:6D11H         SYMBOL        L?0250
  C:6D21H         SYMBOL        L?0251
  C:6D28H         SYMBOL        L?0252
  C:6D38H         SYMBOL        L?0253
  C:6D3FH         SYMBOL        L?0254
  C:6D4AH         SYMBOL        L?0255
BL51 BANKED LINKER/LOCATER V6.22.2.0                                                  07/13/2021  11:06:07  PAGE 22


  C:6D51H         SYMBOL        L?0256
  C:6D5CH         SYMBOL        L?0257
  C:6D63H         SYMBOL        L?0258
  C:6D68H         SYMBOL        L?0259
  C:6D6FH         SYMBOL        L?0260
  C:6D74H         SYMBOL        L?0261
  C:6D7BH         SYMBOL        L?0263
  C:6D87H         SYMBOL        L?0264
  C:6D88H         SYMBOL        L?0265
  C:6D8FH         SYMBOL        L?0267
  C:6D8FH         SYMBOL        L?0268
  C:6D97H         SYMBOL        L?0269
  C:6D9EH         SYMBOL        L?0270
  C:6DA5H         SYMBOL        L?0274
  C:6DA5H         SYMBOL        L?0275
  C:6DACH         SYMBOL        L?0276
  C:6DB3H         SYMBOL        L?0280
  C:6DBAH         SYMBOL        L?0283
  C:6DC1H         SYMBOL        L?0288
  C:6DC8H         SYMBOL        L?0290
  C:6DD7H         SYMBOL        L?0291
  C:6DDEH         SYMBOL        L?0294
  C:6DE5H         SYMBOL        L?0297
  C:6DECH         SYMBOL        L?0301
  C:6DECH         SYMBOL        L?0302
  C:6DEDH         SYMBOL        L?0303
  C:6DF5H         SYMBOL        L?0304
  C:6DF5H         SYMBOL        L?0305
  C:6DFFH         SYMBOL        L?0307
  C:6E06H         SYMBOL        L?0308
  C:6E07H         SYMBOL        L?0309
  C:6E0EH         SYMBOL        L?0310
  C:6E0EH         SYMBOL        L?0311
  C:6E15H         SYMBOL        L?0313
  C:6E15H         SYMBOL        L?0314
  C:6E1EH         SYMBOL        L?0315
  C:6E2BH         SYMBOL        L?0318
  C:6E37H         SYMBOL        L?0320
  C:6E37H         SYMBOL        L?0321
  C:6E3DH         SYMBOL        L?0322
  -------         PROC          COM00E8
  -------         ENDPROC       COM00E8
  -------         PROC          _PCT_GETFIRSTSTR
  X:00ABH         SYMBOL        tagStr
  X:00AEH         SYMBOL        sourceStr
  C:8A3EH         LINE#         105
  C:8A43H         LINE#         106
  C:8A43H         LINE#         107
  C:8A4EH         LINE#         108
  C:8A63H         LINE#         109
  C:8A79H         LINE#         110
  C:8A7BH         LINE#         111
  C:8A7BH         LINE#         112
  C:8A87H         LINE#         113
  C:8A8BH         LINE#         114
  C:8A93H         LINE#         115
  C:8A96H         LINE#         116
BL51 BANKED LINKER/LOCATER V6.22.2.0                                                  07/13/2021  11:06:07  PAGE 23


  C:8A99H         LINE#         117
  C:8A9CH         LINE#         118
  C:8AA4H         LINE#         119
  -------         ENDPROC       _PCT_GETFIRSTSTR
  -------         PROC          _PCT_STRTOCOMMCODE
  X:00ABH         SYMBOL        Str
  -------         DO            
  D:0031H         SYMBOL        ret
  -------         ENDDO         
  C:92E3H         LINE#         126
  C:92E8H         LINE#         127
  C:92E8H         LINE#         128
  C:92EDH         LINE#         130
  C:931CH         LINE#         131
  C:9320H         LINE#         132
  -------         ENDPROC       _PCT_STRTOCOMMCODE
  -------         PROC          PCT_SENDACK
  C:988CH         LINE#         138
  C:988CH         LINE#         139
  C:988CH         LINE#         140
  C:9891H         LINE#         141
  C:9896H         LINE#         142
  -------         ENDPROC       PCT_SENDACK
  -------         PROC          _PCT_CHECKVMIXTYPE
  D:0007H         SYMBOL        _typ
  -------         DO            
  D:002AH         SYMBOL        tmplktp
  -------         ENDDO         
  C:91E0H         LINE#         149
  C:91E0H         LINE#         150
  C:91E0H         LINE#         151
  C:91E3H         LINE#         153
  C:91E8H         LINE#         154
  C:91EFH         LINE#         155
  C:91F5H         LINE#         156
  C:9201H         LINE#         158
  C:920DH         LINE#         159
  C:9212H         LINE#         161
  C:9212H         LINE#         162
  C:9217H         LINE#         163
  C:921CH         LINE#         164
  C:9220H         LINE#         165
  -------         ENDPROC       _PCT_CHECKVMIXTYPE
  -------         PROC          _MONIREADPAGEBUFFER
  D:0001H         SYMBOL        szParam
  -------         DO            
  D:0027H         SYMBOL        page
  D:0028H         SYMBOL        start
  D:0029H         SYMBOL        end
  -------         ENDDO         
  C:915AH         LINE#         175
  C:915AH         LINE#         176
  C:915AH         LINE#         179
  C:917FH         LINE#         181
  C:917FH         LINE#         182
  C:9195H         LINE#         183
  C:9197H         LINE#         184
BL51 BANKED LINKER/LOCATER V6.22.2.0                                                  07/13/2021  11:06:07  PAGE 24


  C:919CH         LINE#         185
  -------         ENDPROC       _MONIREADPAGEBUFFER
  -------         PROC          _MONIREADONEBUFFER
  D:0001H         SYMBOL        szParam
  -------         DO            
  D:0027H         SYMBOL        page
  D:0028H         SYMBOL        addr
  -------         ENDDO         
  C:946CH         LINE#         191
  C:946CH         LINE#         192
  C:946CH         LINE#         195
  C:9489H         LINE#         197
  -------         ENDPROC       _MONIREADONEBUFFER
  -------         PROC          _MONIWRITEONEBUFFER
  D:0001H         SYMBOL        szParam
  -------         DO            
  D:0027H         SYMBOL        page
  D:0028H         SYMBOL        addr
  D:0029H         SYMBOL        dat
  -------         ENDDO         
  C:949FH         LINE#         204
  C:949FH         LINE#         205
  C:949FH         LINE#         208
  C:94C4H         LINE#         209
  -------         ENDPROC       _MONIWRITEONEBUFFER
  -------         PROC          _MONIWRITEASICBYTE
  D:0001H         SYMBOL        szParam
  -------         DO            
  D:0027H         SYMBOL        _dev
  D:0028H         SYMBOL        _pg
  D:0029H         SYMBOL        _addr
  D:002AH         SYMBOL        _wdat
  -------         ENDDO         
  C:903BH         LINE#         216
  C:903BH         LINE#         217
  C:903BH         LINE#         218
  C:903EH         LINE#         219
  C:9040H         LINE#         220
  C:9042H         LINE#         221
  C:9044H         LINE#         223
  C:9079H         LINE#         224
  -------         ENDPROC       _MONIWRITEASICBYTE
  -------         PROC          _MONIREADASICBYTE
  D:0001H         SYMBOL        szParam
  -------         DO            
  D:0027H         SYMBOL        _dev
  D:0028H         SYMBOL        _pg
  D:0029H         SYMBOL        _addr
  D:002AH         SYMBOL        _rdat
  -------         ENDDO         
  C:9087H         LINE#         231
  C:9087H         LINE#         232
  C:9087H         LINE#         233
  C:908AH         LINE#         234
  C:908CH         LINE#         235
  C:908EH         LINE#         236
  C:9090H         LINE#         238
BL51 BANKED LINKER/LOCATER V6.22.2.0                                                  07/13/2021  11:06:07  PAGE 25


  C:90B5H         LINE#         239
  C:90C0H         LINE#         240
  -------         ENDPROC       _MONIREADASICBYTE
  C:7665H         SYMBOL        L?0271
  C:767BH         SYMBOL        L?0284
  C:7691H         SYMBOL        L?0287
  -------         PROC          _MONIAUDIOMIXING
  X:00A5H         SYMBOL        szParam
  -------         DO            
  D:0027H         SYMBOL        selch0
  D:0028H         SYMBOL        selch1
  D:0029H         SYMBOL        selch2
  D:002AH         SYMBOL        selch3
  D:002BH         SYMBOL        selch4
  D:002CH         SYMBOL        valch0
  D:002DH         SYMBOL        valch1
  D:002EH         SYMBOL        valch2
  D:002FH         SYMBOL        valch3
  D:0030H         SYMBOL        valch4
  X:00A8H         SYMBOL        getStr
  C:6510H         SYMBOL        chaddr
  -------         ENDDO         
  C:752AH         LINE#         248
  C:752CH         LINE#         249
  C:752CH         LINE#         260
  C:753FH         LINE#         262
  C:7547H         LINE#         268
  C:7570H         LINE#         269
  C:7570H         LINE#         270
  C:7585H         LINE#         271
  C:758EH         LINE#         272
  C:7594H         LINE#         273
  C:7597H         LINE#         275
  C:7597H         LINE#         276
  C:75B9H         LINE#         278
  C:75B9H         LINE#         279
  C:75BCH         LINE#         280
  C:75BFH         LINE#         281
  C:75C2H         LINE#         283
  C:75C2H         LINE#         284
  C:75D9H         LINE#         286
  C:75D9H         LINE#         287
  C:75DCH         LINE#         288
  C:75E0H         LINE#         289
  C:75E3H         LINE#         290
  C:75E6H         LINE#         292
  C:75E6H         LINE#         293
  C:7600H         LINE#         295
  C:7600H         LINE#         296
  C:7600H         LINE#         297
  C:7600H         LINE#         298
  C:7603H         LINE#         300
  C:760BH         LINE#         301
  C:760EH         LINE#         303
  C:760EH         LINE#         304
  C:7639H         LINE#         306
  C:7639H         LINE#         307
BL51 BANKED LINKER/LOCATER V6.22.2.0                                                  07/13/2021  11:06:07  PAGE 26


  C:7639H         LINE#         308
  C:7639H         LINE#         309
  C:7641H         LINE#         310
  C:764AH         LINE#         312
  C:7664H         LINE#         313
  C:7664H         LINE#         315
  C:7664H         LINE#         316
  C:7664H         LINE#         317
  C:7664H         LINE#         318
  -------         ENDPROC       _MONIAUDIOMIXING
  -------         PROC          MONIAUDIOMUTE
  C:989BH         LINE#         325
  C:989BH         LINE#         326
  C:989BH         LINE#         327
  C:98A3H         LINE#         332
  -------         ENDPROC       MONIAUDIOMUTE
  C:7A8AH         SYMBOL        L?0279
  C:7AA4H         SYMBOL        L?0306
  C:7AB5H         SYMBOL        L?0323
  -------         PROC          _MONIAUDIOGAIN
  X:00A5H         SYMBOL        szParam
  -------         DO            
  D:0027H         SYMBOL        selch0
  D:0028H         SYMBOL        selch1
  D:0029H         SYMBOL        selch2
  D:002AH         SYMBOL        selch3
  D:002BH         SYMBOL        selch4
  D:002CH         SYMBOL        ch0val
  D:002DH         SYMBOL        ch1val
  D:002EH         SYMBOL        ch2val
  D:002FH         SYMBOL        ch3val
  D:0030H         SYMBOL        ch4val
  X:00A8H         SYMBOL        getStr
  -------         ENDDO         
  C:7982H         LINE#         340
  C:7984H         LINE#         341
  C:7984H         LINE#         346
  C:7997H         LINE#         348
  C:79BDH         LINE#         349
  C:79BDH         LINE#         350
  C:79D2H         LINE#         351
  C:79D6H         LINE#         352
  C:79D9H         LINE#         354
  C:79D9H         LINE#         355
  C:79FBH         LINE#         357
  C:79FBH         LINE#         358
  C:79FEH         LINE#         359
  C:7A01H         LINE#         361
  C:7A01H         LINE#         362
  C:7A18H         LINE#         364
  C:7A18H         LINE#         365
  C:7A18H         LINE#         366
  C:7A1BH         LINE#         367
  C:7A1EH         LINE#         369
  C:7A1EH         LINE#         370
  C:7A38H         LINE#         372
  C:7A38H         LINE#         373
BL51 BANKED LINKER/LOCATER V6.22.2.0                                                  07/13/2021  11:06:07  PAGE 27


  C:7A38H         LINE#         374
  C:7A3BH         LINE#         375
  C:7A3EH         LINE#         376
  C:7A41H         LINE#         378
  C:7A41H         LINE#         379
  C:7A6CH         LINE#         381
  C:7A6CH         LINE#         382
  C:7A74H         LINE#         383
  C:7A78H         LINE#         384
  C:7A80H         LINE#         385
  C:7A89H         LINE#         386
  C:7A89H         LINE#         388
  C:7A89H         LINE#         389
  C:7A89H         LINE#         390
  C:7A89H         LINE#         391
  -------         ENDPROC       _MONIAUDIOGAIN
  -------         PROC          _MONIAUDIOLIVE
  D:0001H         SYMBOL        szParam
  -------         DO            
  D:0027H         SYMBOL        chan
  -------         ENDDO         
  C:97F9H         LINE#         398
  C:97F9H         LINE#         399
  C:97F9H         LINE#         402
  C:9806H         LINE#         404
  -------         ENDPROC       _MONIAUDIOLIVE
  -------         PROC          MONIREGISTERDUMP
  -------         DO            
  D:0027H         SYMBOL        addr
  D:0028H         SYMBOL        page
  -------         ENDDO         
  C:8FECH         LINE#         411
  C:8FECH         LINE#         412
  C:8FECH         LINE#         416
  C:8FFAH         LINE#         417
  C:9008H         LINE#         418
  C:900BH         LINE#         419
  C:900BH         LINE#         420
  C:9021H         LINE#         421
  C:9023H         LINE#         422
  C:9032H         LINE#         423
  C:9036H         LINE#         424
  C:903AH         LINE#         425
  -------         ENDPROC       MONIREGISTERDUMP
  -------         PROC          _MONIVIDEOMIXWIN
  D:0001H         SYMBOL        szParam
  -------         DO            
  D:0027H         SYMBOL        chose
  D:0028H         SYMBOL        wintp
  -------         ENDDO         
  C:8DFBH         LINE#         431
  C:8DFBH         LINE#         432
  C:8DFBH         LINE#         435
  C:8E3DH         LINE#         437
  C:8E4AH         LINE#         438
  -------         ENDPROC       _MONIVIDEOMIXWIN
  C:6BF7H         SYMBOL        L?0278
BL51 BANKED LINKER/LOCATER V6.22.2.0                                                  07/13/2021  11:06:07  PAGE 28


  C:6BFEH         SYMBOL        L?0282
  C:6C05H         SYMBOL        L?0286
  C:6C0CH         SYMBOL        L?0292
  C:6C13H         SYMBOL        L?0293
  C:6C24H         SYMBOL        L?0296
  C:6C2BH         SYMBOL        L?0299
  C:6C32H         SYMBOL        L?0316
  -------         PROC          _MONIVIDEOMIXATTR
  X:00A5H         SYMBOL        szParam
  -------         DO            
  D:0027H         SYMBOL        chose
  D:0029H         SYMBOL        attrsel
  D:002AH         SYMBOL        setval
  D:002BH         SYMBOL        winNm
  D:002FH         SYMBOL        wincnt
  D:0030H         SYMBOL        division
  X:00A8H         SYMBOL        getStr
  -------         ENDDO         
  C:6A29H         LINE#         445
  C:6A2EH         LINE#         446
  C:6A2EH         LINE#         449
  C:6A31H         LINE#         453
  C:6A37H         LINE#         454
  C:6A41H         LINE#         456
  C:6A47H         LINE#         457
  C:6A53H         LINE#         459
  C:6A61H         LINE#         460
  C:6A64H         LINE#         461
  C:6A64H         LINE#         462
  C:6A75H         LINE#         463
  C:6A78H         LINE#         464
  C:6A78H         LINE#         465
  C:6A89H         LINE#         466
  C:6A8CH         LINE#         467
  C:6A8CH         LINE#         468
  C:6A9CH         LINE#         469
  C:6A9FH         LINE#         470
  C:6A9FH         LINE#         471
  C:6AAFH         LINE#         472
  C:6AB2H         LINE#         473
  C:6AB2H         LINE#         474
  C:6AC2H         LINE#         475
  C:6AC5H         LINE#         476
  C:6AC5H         LINE#         477
  C:6AD5H         LINE#         478
  C:6AD8H         LINE#         479
  C:6AD8H         LINE#         480
  C:6AE8H         LINE#         481
  C:6AEBH         LINE#         482
  C:6AEEH         LINE#         483
  C:6AFFH         LINE#         484
  C:6B02H         LINE#         485
  C:6B02H         LINE#         486
  C:6B13H         LINE#         487
  C:6B16H         LINE#         488
  C:6B16H         LINE#         489
  C:6B26H         LINE#         490
BL51 BANKED LINKER/LOCATER V6.22.2.0                                                  07/13/2021  11:06:07  PAGE 29


  C:6B29H         LINE#         491
  C:6B29H         LINE#         492
  C:6B39H         LINE#         493
  C:6B3CH         LINE#         494
  C:6B3CH         LINE#         495
  C:6B4CH         LINE#         496
  C:6B4FH         LINE#         497
  C:6B4FH         LINE#         498
  C:6B5FH         LINE#         499
  C:6B62H         LINE#         500
  C:6B62H         LINE#         501
  C:6B75H         LINE#         502
  C:6B78H         LINE#         503
  C:6B7BH         LINE#         504
  C:6B90H         LINE#         505
  C:6B93H         LINE#         506
  C:6B95H         LINE#         507
  C:6B95H         LINE#         509
  C:6B95H         LINE#         511
  C:6BABH         LINE#         512
  C:6BC8H         LINE#         513
  C:6BC8H         LINE#         514
  C:6BD9H         LINE#         515
  C:6BDBH         LINE#         516
  C:6BDBH         LINE#         517
  C:6BDDH         LINE#         518
  C:6BE1H         LINE#         519
  C:6BEBH         LINE#         520
  C:6BF2H         LINE#         521
  C:6BF2H         LINE#         522
  C:6BF6H         LINE#         523
  -------         ENDPROC       _MONIVIDEOMIXATTR
  -------         PROC          _MONIYVIDEOMIX
  D:0001H         SYMBOL        szParam
  -------         DO            
  D:0027H         SYMBOL        chan
  -------         ENDDO         
  C:985BH         LINE#         530
  C:985BH         LINE#         531
  C:985BH         LINE#         534
  C:9868H         LINE#         535
  -------         ENDPROC       _MONIYVIDEOMIX
  -------         PROC          MONIVIDEOAUTODETECT
  C:94D2H         LINE#         542
  C:94D2H         LINE#         543
  C:94D2H         LINE#         544
  -------         ENDPROC       MONIVIDEOAUTODETECT
  C:816EH         SYMBOL        L?0273
  C:818CH         SYMBOL        L?0319
  -------         PROC          _MONISETVIDEOFORMAT
  X:00A5H         SYMBOL        szParam
  -------         DO            
  D:0027H         SYMBOL        selch0
  D:0028H         SYMBOL        selch1
  D:0029H         SYMBOL        selch2
  D:002AH         SYMBOL        selch3
  D:002BH         SYMBOL        valch0
BL51 BANKED LINKER/LOCATER V6.22.2.0                                                  07/13/2021  11:06:07  PAGE 30


  D:002CH         SYMBOL        valch1
  D:002DH         SYMBOL        valch2
  D:002EH         SYMBOL        valch3
  X:00A8H         SYMBOL        getStr
  -------         ENDDO         
  C:8081H         LINE#         556
  C:8083H         LINE#         557
  C:8083H         LINE#         562
  C:8096H         LINE#         564
  C:80B6H         LINE#         565
  C:80B6H         LINE#         566
  C:80CDH         LINE#         567
  C:80D0H         LINE#         568
  C:80D3H         LINE#         570
  C:80D3H         LINE#         571
  C:80EAH         LINE#         573
  C:80F2H         LINE#         574
  C:80FAH         LINE#         575
  C:80FDH         LINE#         577
  C:80FDH         LINE#         578
  C:8117H         LINE#         580
  C:8117H         LINE#         581
  C:811AH         LINE#         582
  C:8122H         LINE#         583
  C:8125H         LINE#         585
  C:8125H         LINE#         586
  C:8150H         LINE#         588
  C:8150H         LINE#         589
  C:8153H         LINE#         590
  C:8160H         LINE#         591
  C:816DH         LINE#         592
  C:816DH         LINE#         594
  C:816DH         LINE#         595
  C:816DH         LINE#         596
  C:816DH         LINE#         597
  -------         ENDPROC       _MONISETVIDEOFORMAT
  C:8CDBH         SYMBOL        L?0300
  -------         PROC          _MONISHOWSODSTR
  X:00A5H         SYMBOL        szParam
  -------         DO            
  D:0027H         SYMBOL        addrx
  D:0028H         SYMBOL        addry
  X:00A8H         SYMBOL        getStr
  -------         ENDDO         
  C:8C91H         LINE#         603
  C:8C93H         LINE#         604
  C:8C93H         LINE#         608
  C:8C96H         LINE#         609
  C:8CA1H         LINE#         610
  C:8CA4H         LINE#         611
  C:8CAFH         LINE#         613
  C:8CB4H         LINE#         614
  C:8CB9H         LINE#         615
  C:8CBEH         LINE#         616
  C:8CD6H         LINE#         617
  C:8CDBH         LINE#         618
  -------         ENDPROC       _MONISHOWSODSTR
BL51 BANKED LINKER/LOCATER V6.22.2.0                                                  07/13/2021  11:06:07  PAGE 31


  -------         PROC          PCT_AUDIOACTIONFORHS
  -------         DO            
  D:0027H         SYMBOL        winid
  D:0028H         SYMBOL        muteFlage
  -------         ENDDO         
  C:9221H         LINE#         624
  C:9221H         LINE#         625
  C:9221H         LINE#         627
  C:9224H         LINE#         630
  C:9232H         LINE#         631
  C:923BH         LINE#         632
  C:9247H         LINE#         633
  C:924AH         LINE#         634
  C:924AH         LINE#         635
  C:924EH         LINE#         637
  C:9252H         LINE#         639
  C:925AH         LINE#         644
  C:9261H         LINE#         645
  C:9261H         LINE#         647
  -------         ENDPROC       PCT_AUDIOACTIONFORHS
  -------         PROC          _MONIHSCOMM
  D:0001H         SYMBOL        szParam
  -------         DO            
  D:0027H         SYMBOL        winid
  D:0028H         SYMBOL        chose
  D:0029H         SYMBOL        wintp
  -------         ENDDO         
  C:7ABFH         LINE#         654
  C:7ABFH         LINE#         658
  C:7B29H         LINE#         661
  C:7B43H         LINE#         665
  C:7B4BH         LINE#         666
  C:7B53H         LINE#         667
  C:7B5CH         LINE#         668
  C:7B65H         LINE#         670
  C:7B6FH         LINE#         671
  C:7B79H         LINE#         672
  C:7B83H         LINE#         673
  C:7B8DH         LINE#         678
  C:7B96H         LINE#         679
  C:7B9EH         LINE#         681
  C:7BA8H         LINE#         683
  C:7BB6H         LINE#         684
  C:7BC7H         LINE#         688
  C:7BCCH         LINE#         689
  C:7BD1H         LINE#         690
  C:7BD6H         LINE#         691
  C:7BDDH         LINE#         692
  C:7BE2H         LINE#         693
  C:7BE7H         LINE#         694
  C:7BEAH         LINE#         695
  C:7BF3H         LINE#         696
  C:7BFAH         LINE#         698
  -------         ENDPROC       _MONIHSCOMM
  -------         PROC          PCT_CHECKSYSTEM
  -------         DO            
  D:0007H         SYMBOL        TempSystem
BL51 BANKED LINKER/LOCATER V6.22.2.0                                                  07/13/2021  11:06:07  PAGE 32


  -------         ENDDO         
  C:89D3H         LINE#         704
  C:89D3H         LINE#         705
  C:89D3H         LINE#         708
  C:89D8H         LINE#         710
  C:89E4H         LINE#         711
  C:89E6H         LINE#         712
  C:89ECH         LINE#         713
  C:89EEH         LINE#         715
  C:89F2H         LINE#         718
  C:8A01H         LINE#         720
  C:8A06H         LINE#         722
  C:8A0DH         LINE#         723
  C:8A16H         LINE#         724
  C:8A1EH         LINE#         726
  C:8A28H         LINE#         729
  C:8A2DH         LINE#         730
  C:8A30H         LINE#         731
  C:8A39H         LINE#         732
  C:8A3CH         LINE#         734
  C:8A3DH         LINE#         735
  -------         ENDPROC       PCT_CHECKSYSTEM
  -------         PROC          _MONIHSCOMMSJMODE
  D:0001H         SYMBOL        szParam
  C:97CDH         LINE#         741
  C:97CDH         LINE#         742
  C:97CDH         LINE#         743
  -------         ENDPROC       _MONIHSCOMMSJMODE
  -------         PROC          MONIHSCOMMDISSCROLL
  C:9905H         LINE#         750
  C:9905H         LINE#         751
  C:9905H         LINE#         752
  -------         ENDPROC       MONIHSCOMMDISSCROLL
  C:91D6H         SYMBOL        L?0317
  -------         PROC          MONIHSCOMMVERSION
  -------         DO            
  X:00A5H         SYMBOL        version
  -------         ENDDO         
  C:919DH         LINE#         760
  C:919DH         LINE#         761
  C:919DH         LINE#         762
  C:91A1H         LINE#         765
  C:91A6H         LINE#         772
  C:91A9H         LINE#         773
  C:91ADH         LINE#         774
  C:91B8H         LINE#         775
  C:91BDH         LINE#         777
  C:91C6H         LINE#         778
  C:91C6H         LINE#         779
  C:91C9H         LINE#         780
  C:91CBH         LINE#         781
  C:91CDH         LINE#         783
  C:91CDH         LINE#         784
  C:91D0H         LINE#         785
  C:91D5H         LINE#         786
  C:91D5H         LINE#         788
  -------         ENDPROC       MONIHSCOMMVERSION
BL51 BANKED LINKER/LOCATER V6.22.2.0                                                  07/13/2021  11:06:07  PAGE 33


  C:675EH         SYMBOL        L?0262
  C:6765H         SYMBOL        L?0266
  C:676CH         SYMBOL        L?0272
  C:6773H         SYMBOL        L?0277
  C:677AH         SYMBOL        L?0281
  C:6781H         SYMBOL        L?0285
  C:6788H         SYMBOL        L?0289
  C:678FH         SYMBOL        L?0295
  C:6796H         SYMBOL        L?0298
  C:679DH         SYMBOL        L?0312
  C:67A4H         SYMBOL        L?0324
  -------         PROC          _PCT_RUNCOMMSHELL
  X:009FH         SYMBOL        strptr
  -------         DO            
  D:0025H         SYMBOL        commcode
  X:00A2H         SYMBOL        getStr
  -------         ENDDO         
  C:6515H         LINE#         802
  C:6517H         LINE#         803
  C:6517H         LINE#         809
  C:652AH         LINE#         812
  C:6536H         LINE#         814
  C:6544H         LINE#         816
  C:654AH         LINE#         817
  C:655BH         LINE#         819
  C:6561H         LINE#         820
  C:6572H         LINE#         822
  C:6578H         LINE#         823
  C:6589H         LINE#         826
  C:658FH         LINE#         827
  C:65A0H         LINE#         830
  C:65A6H         LINE#         831
  C:65B7H         LINE#         834
  C:65BDH         LINE#         835
  C:65CEH         LINE#         838
  C:65D1H         LINE#         839
  C:65E2H         LINE#         842
  C:65E5H         LINE#         843
  C:65F6H         LINE#         846
  C:65FCH         LINE#         847
  C:660DH         LINE#         850
  C:6613H         LINE#         851
  C:6624H         LINE#         854
  C:6627H         LINE#         855
  C:6638H         LINE#         858
  C:663DH         LINE#         859
  C:6643H         LINE#         860
  C:6646H         LINE#         861
  C:6657H         LINE#         864
  C:665DH         LINE#         865
  C:666EH         LINE#         868
  C:6674H         LINE#         869
  C:6685H         LINE#         871
  C:6688H         LINE#         873
  C:668EH         LINE#         874
  C:669FH         LINE#         877
  C:66A2H         LINE#         878
BL51 BANKED LINKER/LOCATER V6.22.2.0                                                  07/13/2021  11:06:07  PAGE 34


  C:66B3H         LINE#         881
  C:66B6H         LINE#         882
  C:66C7H         LINE#         885
  C:66CDH         LINE#         886
  C:66DEH         LINE#         889
  C:66E4H         LINE#         891
  C:66F5H         LINE#         892
  C:66F8H         LINE#         894
  C:66FEH         LINE#         896
  C:6701H         LINE#         897
  C:6704H         LINE#         898
  C:6709H         LINE#         902
  C:670EH         LINE#         903
  C:6713H         LINE#         906
  C:6723H         LINE#         907
  C:6726H         LINE#         909
  C:672CH         LINE#         910
  C:673CH         LINE#         911
  C:673FH         LINE#         913
  C:6742H         LINE#         914
  C:6755H         LINE#         915
  C:6758H         LINE#         917
  C:675BH         LINE#         920
  C:675BH         LINE#         921
  C:675BH         LINE#         924
  C:675DH         LINE#         925
  -------         ENDPROC       _PCT_RUNCOMMSHELL
  -------         ENDMOD        COMMANDSHELL

  -------         MODULE        MAIN
  C:0000H         SYMBOL        _ICE_DUMMY_
  C:93CDH         PUBLIC        _PutsP
  D:00B1H         PUBLIC        P3M0
  D:0090H         PUBLIC        P1
  D:00B2H         PUBLIC        P3M1
  D:00B0H         PUBLIC        P3
  B:00A8H.7       PUBLIC        EA
  X:006BH         PUBLIC        RScommand
  D:00A8H         PUBLIC        IE
  B:0024H.1       PUBLIC        VlossFlag
  D:00B8H         PUBLIC        IP
  B:0098H.1       PUBLIC        TI
  D:00D8H         PUBLIC        CCON
  C:895CH         PUBLIC        main
  C:97E3H         PUBLIC        ResetCommSell
  D:0020H         PUBLIC        commFlag
  D:0087H         PUBLIC        PCON
  D:00C0H         PUBLIC        WDTC
  D:0098H         PUBLIC        SCON
  D:0089H         PUBLIC        TMOD
  D:0088H         PUBLIC        TCON
  C:98E5H         PUBLIC        NewLine
  C:98EEH         PUBLIC        _PCT_FlashOSDCtrl
  C:8EF8H         PUBLIC        CommandShell
  C:9712H         PUBLIC        InitialMPU
  B:0020H.0       PUBLIC        comm_chk_flag
  D:00E8H         PUBLIC        IEA
BL51 BANKED LINKER/LOCATER V6.22.2.0                                                  07/13/2021  11:06:07  PAGE 35


  C:9536H         PUBLIC        _chkStartCommShell
  C:90CEH         PUBLIC        _Wait_ms
  C:98D0H         PUBLIC        InitialCommShell
  D:00F8H         PUBLIC        IPA
  B:0020H.1       PUBLIC        osd_chk_flag
  D:00C8H         PUBLIC        T2CON
  X:0096H         PUBLIC        _delay
  D:00D0H         PUBLIC        PSW
  -------         PROC          COMMANDSHELL
  -------         DO            
  D:0025H         SYMBOL        ch
  -------         ENDDO         
  C:8EF8H         LINE#         74
  C:8EF8H         LINE#         79
  C:8F05H         LINE#         80
  C:8F0AH         LINE#         81
  C:8F10H         LINE#         83
  C:8F1AH         LINE#         84
  C:8F1AH         LINE#         85
  C:8F22H         LINE#         86
  C:8F26H         LINE#         87
  C:8F2FH         LINE#         88
  C:8F35H         LINE#         89
  C:8F35H         LINE#         91
  C:8F35H         LINE#         92
  C:8F3AH         LINE#         93
  C:8F3BH         LINE#         95
  C:8F3BH         LINE#         96
  C:8F44H         LINE#         97
  C:8F49H         LINE#         98
  C:8F49H         LINE#         99
  C:8F49H         LINE#         100
  C:8F49H         LINE#         102
  -------         ENDPROC       COMMANDSHELL
  -------         PROC          NEWLINE
  C:98E5H         LINE#         108
  C:98E5H         LINE#         109
  C:98E5H         LINE#         110
  -------         ENDPROC       NEWLINE
  -------         PROC          _PUTSP
  X:009FH         SYMBOL        ptr
  -------         DO            
  D:0025H         SYMBOL        ch
  -------         ENDDO         
  C:93CDH         LINE#         117
  C:93D7H         LINE#         118
  C:93D7H         LINE#         121
  C:93E6H         LINE#         122
  C:93FCH         LINE#         123
  C:9400H         LINE#         124
  C:9402H         LINE#         125
  -------         ENDPROC       _PUTSP
  -------         PROC          RESETCOMMSELL
  C:97E3H         LINE#         131
  C:97E3H         LINE#         132
  C:97E3H         LINE#         133
  C:97EFH         LINE#         135
BL51 BANKED LINKER/LOCATER V6.22.2.0                                                  07/13/2021  11:06:07  PAGE 36


  C:97F3H         LINE#         136
  C:97F5H         LINE#         137
  C:97F8H         LINE#         138
  -------         ENDPROC       RESETCOMMSELL
  -------         PROC          _PCT_FLASHOSDCTRL
  D:0007H         SYMBOL        _on
  C:98EEH         LINE#         144
  C:98EEH         LINE#         145
  C:98EEH         LINE#         146
  C:98F4H         LINE#         147
  C:98F6H         LINE#         148
  -------         ENDPROC       _PCT_FLASHOSDCTRL
  -------         PROC          INITIALCOMMSHELL
  C:98D0H         LINE#         154
  C:98D0H         LINE#         155
  C:98D0H         LINE#         156
  C:98D2H         LINE#         157
  C:98D4H         LINE#         160
  C:98D6H         LINE#         161
  C:98DAH         LINE#         162
  -------         ENDPROC       INITIALCOMMSHELL
  -------         PROC          _CHKSTARTCOMMSHELL
  X:009FH         SYMBOL        ptr
  C:9536H         LINE#         168
  C:9540H         LINE#         169
  C:9540H         LINE#         170
  C:9543H         LINE#         171
  C:9563H         LINE#         172
  -------         ENDPROC       _CHKSTARTCOMMSHELL
  -------         PROC          _WAIT_MS
  X:00A5H         SYMBOL        Tms
  -------         DO            
  X:00A7H         SYMBOL        count
  -------         ENDDO         
  C:90CEH         LINE#         174
  C:90D5H         LINE#         175
  C:90D5H         LINE#         187
  C:90DEH         LINE#         188
  C:90DEH         LINE#         189
  C:9106H         LINE#         190
  C:9111H         LINE#         191
  C:9113H         LINE#         192
  -------         ENDPROC       _WAIT_MS
  -------         PROC          MAIN
  -------         DO            
  X:009CH         SYMBOL        Counter
  X:009DH         SYMBOL        OsdCount1
  X:009EH         SYMBOL        OsdCount2
  -------         ENDDO         
  C:895CH         LINE#         198
  C:895CH         LINE#         199
  C:895CH         LINE#         200
  C:8960H         LINE#         201
  C:8964H         LINE#         202
  C:8968H         LINE#         205
  C:896BH         LINE#         206
  C:896EH         LINE#         207
BL51 BANKED LINKER/LOCATER V6.22.2.0                                                  07/13/2021  11:06:07  PAGE 37


  C:8971H         LINE#         208
  C:8974H         LINE#         210
  C:8977H         LINE#         213
  C:8977H         LINE#         214
  C:897AH         LINE#         215
  C:898AH         LINE#         216
  C:8994H         LINE#         237
  C:8997H         LINE#         238
  C:8997H         LINE#         239
  C:899CH         LINE#         240
  C:899EH         LINE#         241
  C:899EH         LINE#         244
  C:89ACH         LINE#         245
  C:89B4H         LINE#         249
  C:89B8H         LINE#         250
  C:89C0H         LINE#         251
  C:89C0H         LINE#         252
  C:89C8H         LINE#         253
  C:89CBH         LINE#         254
  C:89D1H         LINE#         255
  C:89D1H         LINE#         256
  -------         ENDPROC       MAIN
  -------         PROC          INITIALMPU
  C:9712H         LINE#         265
  C:9712H         LINE#         267
  C:9715H         LINE#         268
  C:9717H         LINE#         271
  C:971AH         LINE#         278
  C:971CH         LINE#         279
  C:971FH         LINE#         282
  C:9721H         LINE#         284
  C:9724H         LINE#         288
  C:9726H         LINE#         289
  C:9729H         LINE#         291
  C:972CH         LINE#         292
  C:972FH         LINE#         294
  C:9731H         LINE#         295
  C:9733H         LINE#         296
  C:9734H         LINE#         297
  -------         ENDPROC       INITIALMPU
  -------         ENDMOD        MAIN

  -------         MODULE        OSD_GRAPH
  C:0000H         SYMBOL        _ICE_DUMMY_
  D:0090H         PUBLIC        P1
  D:00B0H         PUBLIC        P3
  D:00A8H         PUBLIC        IE
  D:00B8H         PUBLIC        IP
  D:00D8H         PUBLIC        CCON
  C:2168H         PUBLIC        GRAPH16_TABLE
  D:00C0H         PUBLIC        WDTC
  D:0098H         PUBLIC        SCON
  D:0088H         PUBLIC        TCON
  C:0026H         PUBLIC        GRAPH_TABLE
  C:7021H         PUBLIC        _PCT_OSD16x16GraphX
  C:990AH         PUBLIC        PCT_ClearGraphAttr
  D:00E8H         PUBLIC        IEA
BL51 BANKED LINKER/LOCATER V6.22.2.0                                                  07/13/2021  11:06:07  PAGE 38


  X:0098H         PUBLIC        graphattr
  D:00F8H         PUBLIC        IPA
  C:8CEEH         PUBLIC        _PCT_ShowGraphString
  D:00C8H         PUBLIC        T2CON
  D:00D0H         PUBLIC        PSW
  C:8F4AH         SYMBOL        Com0022
  C:8F4AH         SYMBOL        L?0035
  C:8F54H         SYMBOL        L?0036
  C:8F57H         SYMBOL        L?0037
  C:8F60H         SYMBOL        L?0039
  C:8F75H         SYMBOL        L?0040
  C:8F77H         SYMBOL        L?0041
  C:8F80H         SYMBOL        L?0042
  C:8F92H         SYMBOL        L?0043
  C:8F95H         SYMBOL        L?0044
  -------         PROC          COM0022
  -------         ENDPROC       COM0022
  -------         PROC          PCT_CLEARGRAPHATTR
  C:990AH         LINE#         74
  C:990AH         LINE#         75
  C:990AH         LINE#         76
  C:990EH         LINE#         77
  -------         ENDPROC       PCT_CLEARGRAPHATTR
  C:7191H         SYMBOL        L?0033
  C:71B8H         SYMBOL        L?0038
  C:71C0H         SYMBOL        L?0045
  C:71C8H         SYMBOL        L?0046
  C:71D3H         SYMBOL        L?0047
  -------         PROC          _PCT_OSD16X16GRAPHX
  X:00AFH         SYMBOL        _posx
  X:00B0H         SYMBOL        _posy
  D:0003H         SYMBOL        _indx
  -------         DO            
  X:00B2H         SYMBOL        row
  X:00B3H         SYMBOL        column
  X:00B4H         SYMBOL        cntr
  X:00B5H         SYMBOL        cntc
  X:00B6H         SYMBOL        posx
  X:00B7H         SYMBOL        graph
  -------         ENDDO         
  C:7021H         LINE#         98
  C:702BH         LINE#         99
  C:702BH         LINE#         103
  C:7032H         LINE#         104
  C:7039H         LINE#         105
  C:704EH         LINE#         107
  C:7055H         LINE#         108
  C:7055H         LINE#         109
  C:708DH         LINE#         111
  C:7094H         LINE#         113
  C:7099H         LINE#         114
  C:709BH         LINE#         116
  C:709BH         LINE#         117
  C:70A3H         LINE#         118
  C:70A3H         LINE#         120
  C:70C0H         LINE#         121
  C:70C5H         LINE#         122
BL51 BANKED LINKER/LOCATER V6.22.2.0                                                  07/13/2021  11:06:07  PAGE 39


  C:70CBH         LINE#         124
  C:70DCH         LINE#         125
  C:70EDH         LINE#         126
  C:70FEH         LINE#         127
  C:7109H         LINE#         128
  C:7114H         LINE#         129
  C:7122H         LINE#         130
  C:712CH         LINE#         131
  C:7134H         LINE#         133
  C:713CH         LINE#         134
  C:7146H         LINE#         136
  C:7155H         LINE#         137
  C:7158H         LINE#         138
  C:715EH         LINE#         140
  C:7167H         LINE#         141
  C:716AH         LINE#         142
  C:7170H         LINE#         144
  C:7175H         LINE#         145
  C:717DH         LINE#         146
  C:7183H         LINE#         147
  C:7188H         LINE#         148
  C:7190H         LINE#         149
  -------         ENDPROC       _PCT_OSD16X16GRAPHX
  -------         PROC          _PCT_SHOWGRAPHSTRING
  X:00A8H         SYMBOL        _path
  X:00A9H         SYMBOL        _addrx
  X:00AAH         SYMBOL        _addry
  X:00ABH         SYMBOL        _strptr
  -------         DO            
  X:00AEH         SYMBOL        slen
  -------         ENDDO         
  C:8CEEH         LINE#         155
  C:8CF8H         LINE#         156
  C:8CF8H         LINE#         159
  C:8D03H         LINE#         160
  C:8D0DH         LINE#         162
  C:8D16H         LINE#         166
  C:8D16H         LINE#         167
  C:8D16H         LINE#         168
  C:8D2AH         LINE#         169
  C:8D2FH         LINE#         170
  C:8D33H         LINE#         171
  C:8D39H         LINE#         172
  C:8D3EH         LINE#         173
  C:8D40H         LINE#         174
  C:8D40H         LINE#         175
  C:8D45H         LINE#         176
  C:8D45H         LINE#         177
  C:8D48H         LINE#         179
  -------         ENDPROC       _PCT_SHOWGRAPHSTRING
  -------         ENDMOD        OSD_GRAPH

  -------         MODULE        OSDACTION
  C:0000H         SYMBOL        _ICE_DUMMY_
  C:8F9CH         PUBLIC        PCT_InitialOSD
  C:9114H         PUBLIC        PCT_ShowModeIcon
  D:0090H         PUBLIC        P1
BL51 BANKED LINKER/LOCATER V6.22.2.0                                                  07/13/2021  11:06:07  PAGE 40


  D:00B0H         PUBLIC        P3
  C:98F7H         PUBLIC        PCT_EnfalshVLoss
  C:96A7H         PUBLIC        camstr
  D:00A8H         PUBLIC        IE
  D:00B8H         PUBLIC        IP
  C:67ABH         PUBLIC        _PCT_ShowIndicateIcon
  C:96C4H         PUBLIC        SPEAKICON
  D:00D8H         PUBLIC        CCON
  X:0099H         PUBLIC        VlossCount
  D:00C0H         PUBLIC        WDTC
  D:0098H         PUBLIC        SCON
  D:0088H         PUBLIC        TCON
  B:0021H.0       PUBLIC        OSDPAGE2
  B:0021H.1       PUBLIC        OSDPAGE3
  B:0021H.2       PUBLIC        OSDPAGE4
  B:0021H.3       PUBLIC        OSDPAGE5
  D:0021H         PUBLIC        osdflage
  D:00E8H         PUBLIC        IEA
  C:935DH         PUBLIC        PCT_GetVideoSignalStatus
  C:96BCH         PUBLIC        indicate_icon
  C:95E5H         PUBLIC        PCT_OSDActionForHS
  D:00F8H         PUBLIC        IPA
  C:96C6H         PUBLIC        msgVLOSS
  C:3CBCH         PUBLIC        PCT_ShowVLoss
  D:00C8H         PUBLIC        T2CON
  C:46E3H         PUBLIC        _PCT_ShowSpeakIcon
  C:4221H         PUBLIC        _PCT_ShowMirrorIcon
  C:57FDH         PUBLIC        _PCT_OSD_ActionPthX
  D:00D0H         PUBLIC        PSW
  C:8297H         SYMBOL        Com0226
  C:8297H         SYMBOL        L?0551
  C:8297H         SYMBOL        L?0552
  C:8299H         SYMBOL        L?0553
  C:82A5H         SYMBOL        L?0554
  C:82A6H         SYMBOL        L?0555
  C:82ADH         SYMBOL        L?0556
  C:82ADH         SYMBOL        L?0557
  C:82AFH         SYMBOL        L?0558
  C:82B2H         SYMBOL        L?0559
  C:82BDH         SYMBOL        L?0560
  C:82BDH         SYMBOL        L?0561
  C:82BFH         SYMBOL        L?0562
  C:82C8H         SYMBOL        L?0563
  C:82C8H         SYMBOL        L?0564
  C:82CAH         SYMBOL        L?0565
  C:82D4H         SYMBOL        L?0566
  C:82D4H         SYMBOL        L?0567
  C:82D6H         SYMBOL        L?0568
  C:82DDH         SYMBOL        L?0569
  C:82DDH         SYMBOL        L?0570
  C:82E5H         SYMBOL        L?0571
  C:82E5H         SYMBOL        L?0572
  C:82EDH         SYMBOL        L?0573
  C:82EDH         SYMBOL        L?0574
  C:82F5H         SYMBOL        L?0575
  C:82F5H         SYMBOL        L?0576
  C:82FDH         SYMBOL        L?0589
BL51 BANKED LINKER/LOCATER V6.22.2.0                                                  07/13/2021  11:06:07  PAGE 41


  C:82FDH         SYMBOL        L?0590
  C:8303H         SYMBOL        L?0598
  C:8303H         SYMBOL        L?0599
  C:830BH         SYMBOL        L?0600
  C:830BH         SYMBOL        L?0601
  C:8313H         SYMBOL        L?0602
  C:8313H         SYMBOL        L?0603
  C:831BH         SYMBOL        L?0608
  C:831BH         SYMBOL        L?0609
  C:831EH         SYMBOL        L?0610
  C:8327H         SYMBOL        L?0611
  C:8327H         SYMBOL        L?0612
  C:832CH         SYMBOL        L?0613
  C:8333H         SYMBOL        L?0620
  C:8333H         SYMBOL        L?0621
  C:833AH         SYMBOL        L?0628
  C:833AH         SYMBOL        L?0629
  C:8341H         SYMBOL        L?0633
  C:8341H         SYMBOL        L?0634
  C:8349H         SYMBOL        L?0635
  C:8349H         SYMBOL        L?0636
  C:8351H         SYMBOL        L?0643
  C:8351H         SYMBOL        L?0644
  C:835BH         SYMBOL        L?0648
  C:835BH         SYMBOL        L?0649
  C:8363H         SYMBOL        L?0650
  C:8363H         SYMBOL        L?0651
  C:8365H         SYMBOL        L?0652
  C:836CH         SYMBOL        L?0654
  C:836CH         SYMBOL        L?0655
  C:8375H         SYMBOL        L?0656
  C:8375H         SYMBOL        L?0657
  C:837BH         SYMBOL        L?0666
  C:837BH         SYMBOL        L?0667
  C:8383H         SYMBOL        L?0671
  C:838AH         SYMBOL        L?0672
  C:838AH         SYMBOL        L?0673
  -------         PROC          COM0226
  -------         ENDPROC       COM0226
  C:8FD7H         SYMBOL        L?0646
  -------         PROC          PCT_INITIALOSD
  -------         DO            
  D:0027H         SYMBOL        page
  -------         ENDDO         
  C:8F9CH         LINE#         107
  C:8F9CH         LINE#         108
  C:8F9CH         LINE#         111
  C:8F9FH         LINE#         112
  C:8FA2H         LINE#         114
  C:8FA7H         LINE#         115
  C:8FACH         LINE#         116
  C:8FBAH         LINE#         117
  C:8FBCH         LINE#         118
  C:8FBFH         LINE#         119
  C:8FC3H         LINE#         120
  C:8FC8H         LINE#         121
  C:8FCDH         LINE#         122
BL51 BANKED LINKER/LOCATER V6.22.2.0                                                  07/13/2021  11:06:07  PAGE 42


  C:8FCFH         LINE#         123
  C:8FD2H         LINE#         125
  C:8FD6H         LINE#         126
  -------         ENDPROC       PCT_INITIALOSD
  C:5B54H         SYMBOL        L?0583
  C:5B63H         SYMBOL        L?0586
  C:5B72H         SYMBOL        L?0596
  C:5B81H         SYMBOL        L?0605
  C:5B90H         SYMBOL        L?0619
  C:5B9FH         SYMBOL        L?0624
  C:5BAEH         SYMBOL        L?0639
  C:5BBDH         SYMBOL        L?0661
  -------         PROC          _PCT_OSD_ACTIONPTHX
  X:00A5H         SYMBOL        _attr
  C:57FDH         LINE#         133
  C:5802H         LINE#         134
  C:5802H         LINE#         135
  C:5807H         LINE#         136
  C:580CH         LINE#         137
  C:5840H         LINE#         140
  C:5840H         LINE#         141
  C:5853H         LINE#         142
  C:5856H         LINE#         144
  C:5856H         LINE#         145
  C:5866H         LINE#         146
  C:587AH         LINE#         147
  C:587DH         LINE#         149
  C:587DH         LINE#         150
  C:588DH         LINE#         151
  C:58A1H         LINE#         152
  C:58A4H         LINE#         154
  C:58A4H         LINE#         155
  C:58B4H         LINE#         156
  C:58C8H         LINE#         157
  C:58E1H         LINE#         158
  C:58E4H         LINE#         160
  C:58E4H         LINE#         161
  C:58E4H         LINE#         163
  C:58E4H         LINE#         164
  C:58F4H         LINE#         165
  C:5905H         LINE#         166
  C:591EH         LINE#         167
  C:5921H         LINE#         169
  C:5921H         LINE#         170
  C:5931H         LINE#         171
  C:5942H         LINE#         172
  C:595BH         LINE#         173
  C:595EH         LINE#         175
  C:595EH         LINE#         176
  C:596EH         LINE#         177
  C:5986H         LINE#         178
  C:599FH         LINE#         179
  C:59B8H         LINE#         180
  C:59BBH         LINE#         183
  C:59BBH         LINE#         184
  C:59CEH         LINE#         185
  C:59D0H         LINE#         187
BL51 BANKED LINKER/LOCATER V6.22.2.0                                                  07/13/2021  11:06:07  PAGE 43


  C:59D0H         LINE#         188
  C:59E7H         LINE#         189
  C:59FDH         LINE#         190
  C:5A00H         LINE#         192
  C:5A00H         LINE#         193
  C:5A10H         LINE#         194
  C:5A26H         LINE#         195
  C:5A29H         LINE#         197
  C:5A29H         LINE#         198
  C:5A40H         LINE#         199
  C:5A58H         LINE#         200
  C:5A73H         LINE#         201
  C:5A76H         LINE#         203
  C:5A76H         LINE#         204
  C:5A76H         LINE#         206
  C:5A76H         LINE#         207
  C:5A86H         LINE#         208
  C:5A97H         LINE#         209
  C:5AB2H         LINE#         210
  C:5AB5H         LINE#         212
  C:5AB5H         LINE#         213
  C:5AC5H         LINE#         214
  C:5AD6H         LINE#         215
  C:5AEEH         LINE#         216
  C:5AF1H         LINE#         218
  C:5AF1H         LINE#         219
  C:5B01H         LINE#         220
  C:5B19H         LINE#         221
  C:5B36H         LINE#         222
  C:5B53H         LINE#         223
  C:5B53H         LINE#         312
  C:5B53H         LINE#         313
  C:5B53H         LINE#         314
  C:5B53H         LINE#         315
  -------         ENDPROC       _PCT_OSD_ACTIONPTHX
  -------         PROC          PCT_ENFALSHVLOSS
  C:98F7H         LINE#         321
  C:98F7H         LINE#         322
  C:98F7H         LINE#         323
  C:98FDH         LINE#         324
  -------         ENDPROC       PCT_ENFALSHVLOSS
  -------         PROC          PCT_GETVIDEOSIGNALSTATUS
  C:935DH         LINE#         330
  C:935DH         LINE#         331
  C:935DH         LINE#         336
  C:936DH         LINE#         338
  C:9373H         LINE#         341
  C:9375H         LINE#         342
  C:938BH         LINE#         346
  C:938BH         LINE#         348
  C:938EH         LINE#         349
  C:938EH         LINE#         360
  C:9394H         LINE#         401
  -------         ENDPROC       PCT_GETVIDEOSIGNALSTATUS
  C:69CBH         SYMBOL        L?0581
  C:69E8H         SYMBOL        L?0592
  C:69F6H         SYMBOL        L?0616
BL51 BANKED LINKER/LOCATER V6.22.2.0                                                  07/13/2021  11:06:07  PAGE 44


  C:6A13H         SYMBOL        L?0641
  C:6A21H         SYMBOL        L?0668
  -------         PROC          _PCT_SHOWINDICATEICON
  X:00A5H         SYMBOL        _attr
  -------         DO            
  D:0027H         SYMBOL        iconid
  -------         ENDDO         
  C:67ABH         LINE#         422
  C:67B0H         LINE#         423
  C:67B0H         LINE#         427
  C:67B5H         LINE#         428
  C:67E3H         LINE#         430
  C:67E3H         LINE#         431
  C:67E3H         LINE#         432
  C:67EBH         LINE#         434
  C:67EDH         LINE#         435
  C:67EDH         LINE#         436
  C:67EDH         LINE#         437
  C:67F0H         LINE#         438
  C:67F0H         LINE#         439
  C:67F8H         LINE#         441
  C:6803H         LINE#         442
  C:6803H         LINE#         443
  C:6803H         LINE#         444
  C:6803H         LINE#         445
  C:6806H         LINE#         447
  C:6806H         LINE#         448
  C:680EH         LINE#         449
  C:680EH         LINE#         450
  C:680EH         LINE#         452
  C:680EH         LINE#         453
  C:6811H         LINE#         455
  C:6811H         LINE#         456
  C:6811H         LINE#         458
  C:6819H         LINE#         460
  C:681BH         LINE#         461
  C:681BH         LINE#         462
  C:6829H         LINE#         463
  C:682BH         LINE#         464
  C:682BH         LINE#         465
  C:682EH         LINE#         467
  C:683AH         LINE#         468
  C:683AH         LINE#         469
  C:683DH         LINE#         470
  C:684AH         LINE#         471
  C:684CH         LINE#         473
  C:684CH         LINE#         474
  C:6851H         LINE#         475
  C:685AH         LINE#         476
  C:685AH         LINE#         478
  C:685AH         LINE#         481
  C:6862H         LINE#         482
  C:6866H         LINE#         483
  C:6866H         LINE#         484
  C:6866H         LINE#         485
  C:6869H         LINE#         486
  C:6869H         LINE#         487
BL51 BANKED LINKER/LOCATER V6.22.2.0                                                  07/13/2021  11:06:07  PAGE 45


  C:6869H         LINE#         488
  C:6869H         LINE#         489
  C:686CH         LINE#         491
  C:686CH         LINE#         492
  C:686CH         LINE#         494
  C:6874H         LINE#         496
  C:6876H         LINE#         497
  C:6876H         LINE#         498
  C:6881H         LINE#         499
  C:6883H         LINE#         500
  C:6883H         LINE#         501
  C:6886H         LINE#         503
  C:6892H         LINE#         504
  C:6892H         LINE#         505
  C:6895H         LINE#         506
  C:68A2H         LINE#         507
  C:68A4H         LINE#         509
  C:68A4H         LINE#         510
  C:68A9H         LINE#         511
  C:68B2H         LINE#         512
  C:68B2H         LINE#         514
  C:68B2H         LINE#         517
  C:68BAH         LINE#         518
  C:68BCH         LINE#         519
  C:68C1H         LINE#         520
  C:68C1H         LINE#         521
  C:68C4H         LINE#         522
  C:68C4H         LINE#         523
  C:68CBH         LINE#         524
  C:68CBH         LINE#         525
  C:68CEH         LINE#         527
  C:68CEH         LINE#         528
  C:68CEH         LINE#         530
  C:68D6H         LINE#         532
  C:68D8H         LINE#         533
  C:68D8H         LINE#         534
  C:68E3H         LINE#         535
  C:68E6H         LINE#         536
  C:68E6H         LINE#         537
  C:68EEH         LINE#         539
  C:68F9H         LINE#         540
  C:68F9H         LINE#         541
  C:68FCH         LINE#         542
  C:6904H         LINE#         543
  C:6907H         LINE#         545
  C:6907H         LINE#         546
  C:690FH         LINE#         547
  C:6915H         LINE#         548
  C:6915H         LINE#         550
  C:6915H         LINE#         551
  C:6918H         LINE#         553
  C:6918H         LINE#         554
  C:6918H         LINE#         555
  C:6918H         LINE#         557
  C:6918H         LINE#         558
  C:6918H         LINE#         560
  C:6920H         LINE#         562
BL51 BANKED LINKER/LOCATER V6.22.2.0                                                  07/13/2021  11:06:07  PAGE 46


  C:6922H         LINE#         563
  C:6922H         LINE#         564
  C:692DH         LINE#         565
  C:6930H         LINE#         566
  C:6930H         LINE#         567
  C:6938H         LINE#         569
  C:6943H         LINE#         570
  C:6943H         LINE#         571
  C:6946H         LINE#         572
  C:694EH         LINE#         573
  C:6951H         LINE#         575
  C:6951H         LINE#         576
  C:6956H         LINE#         577
  C:695CH         LINE#         578
  C:695CH         LINE#         580
  C:695CH         LINE#         581
  C:695FH         LINE#         583
  C:695FH         LINE#         584
  C:695FH         LINE#         586
  C:6967H         LINE#         588
  C:6969H         LINE#         589
  C:6976H         LINE#         590
  C:698DH         LINE#         591
  C:698FH         LINE#         592
  C:698FH         LINE#         593
  C:6997H         LINE#         595
  C:69A2H         LINE#         596
  C:69A2H         LINE#         597
  C:69AFH         LINE#         598
  C:69BCH         LINE#         599
  C:69BCH         LINE#         601
  C:69BCH         LINE#         602
  C:69C1H         LINE#         603
  C:69CAH         LINE#         604
  C:69CAH         LINE#         606
  C:69CAH         LINE#         607
  C:69CAH         LINE#         609
  C:69CAH         LINE#         610
  C:69CAH         LINE#         611
  C:69CAH         LINE#         613
  C:69CAH         LINE#         614
  C:69CAH         LINE#         615
  C:69CAH         LINE#         616
  -------         ENDPROC       _PCT_SHOWINDICATEICON
  C:464BH         SYMBOL        L?0578
  C:4657H         SYMBOL        L?0582
  C:4663H         SYMBOL        L?0587
  C:466DH         SYMBOL        L?0595
  C:4677H         SYMBOL        L?0607
  C:4683H         SYMBOL        L?0614
  C:468EH         SYMBOL        L?0625
  C:4699H         SYMBOL        L?0626
  C:46A5H         SYMBOL        L?0632
  C:46AFH         SYMBOL        L?0640
  C:46BAH         SYMBOL        L?0658
  C:46C4H         SYMBOL        L?0660
  C:46CEH         SYMBOL        L?0662
BL51 BANKED LINKER/LOCATER V6.22.2.0                                                  07/13/2021  11:06:07  PAGE 47


  C:46D9H         SYMBOL        L?0674
  -------         PROC          _PCT_SHOWMIRRORICON
  X:00A5H         SYMBOL        _attr
  C:4221H         LINE#         825
  C:4226H         LINE#         826
  C:4226H         LINE#         827
  C:422BH         LINE#         828
  C:425FH         LINE#         831
  C:425FH         LINE#         833
  C:4267H         LINE#         834
  C:426EH         LINE#         835
  C:4271H         LINE#         836
  C:4276H         LINE#         837
  C:4276H         LINE#         838
  C:4279H         LINE#         840
  C:4279H         LINE#         842
  C:4281H         LINE#         843
  C:428AH         LINE#         844
  C:428CH         LINE#         845
  C:428FH         LINE#         846
  C:428FH         LINE#         848
  C:429AH         LINE#         849
  C:429AH         LINE#         850
  C:429DH         LINE#         851
  C:42A0H         LINE#         852
  C:42A0H         LINE#         853
  C:42A3H         LINE#         855
  C:42A3H         LINE#         857
  C:42ABH         LINE#         858
  C:42B4H         LINE#         859
  C:42B6H         LINE#         860
  C:42B9H         LINE#         861
  C:42B9H         LINE#         864
  C:42C4H         LINE#         865
  C:42CBH         LINE#         866
  C:42CEH         LINE#         867
  C:42D3H         LINE#         868
  C:42D3H         LINE#         870
  C:42D6H         LINE#         872
  C:42D6H         LINE#         874
  C:42DEH         LINE#         875
  C:42E7H         LINE#         876
  C:42E9H         LINE#         877
  C:42ECH         LINE#         878
  C:42ECH         LINE#         881
  C:42F7H         LINE#         882
  C:4300H         LINE#         883
  C:4302H         LINE#         884
  C:430AH         LINE#         885
  C:430AH         LINE#         888
  C:4316H         LINE#         889
  C:4316H         LINE#         890
  C:4319H         LINE#         891
  C:431CH         LINE#         892
  C:431CH         LINE#         893
  C:431FH         LINE#         895
  C:431FH         LINE#         896
BL51 BANKED LINKER/LOCATER V6.22.2.0                                                  07/13/2021  11:06:07  PAGE 48


  C:431FH         LINE#         898
  C:431FH         LINE#         900
  C:4327H         LINE#         901
  C:4330H         LINE#         902
  C:4332H         LINE#         903
  C:4335H         LINE#         904
  C:4335H         LINE#         907
  C:4340H         LINE#         908
  C:4349H         LINE#         909
  C:434BH         LINE#         910
  C:434EH         LINE#         911
  C:434EH         LINE#         914
  C:435AH         LINE#         915
  C:435AH         LINE#         916
  C:435DH         LINE#         917
  C:4360H         LINE#         918
  C:4360H         LINE#         919
  C:4363H         LINE#         921
  C:4363H         LINE#         923
  C:436BH         LINE#         924
  C:4374H         LINE#         925
  C:4376H         LINE#         926
  C:4379H         LINE#         927
  C:4379H         LINE#         930
  C:4384H         LINE#         931
  C:438DH         LINE#         932
  C:438FH         LINE#         933
  C:4392H         LINE#         934
  C:4392H         LINE#         937
  C:439EH         LINE#         938
  C:43A6H         LINE#         939
  C:43A9H         LINE#         940
  C:43ADH         LINE#         941
  C:43ADH         LINE#         942
  C:43B0H         LINE#         944
  C:43B0H         LINE#         946
  C:43B8H         LINE#         947
  C:43C1H         LINE#         948
  C:43C3H         LINE#         949
  C:43C6H         LINE#         950
  C:43C6H         LINE#         953
  C:43D1H         LINE#         954
  C:43E0H         LINE#         955
  C:43E2H         LINE#         956
  C:43ECH         LINE#         957
  C:43ECH         LINE#         960
  C:43F8H         LINE#         961
  C:4401H         LINE#         962
  C:4403H         LINE#         963
  C:440BH         LINE#         964
  C:440BH         LINE#         967
  C:4417H         LINE#         968
  C:441FH         LINE#         969
  C:4422H         LINE#         970
  C:4425H         LINE#         971
  C:4425H         LINE#         972
  C:4428H         LINE#         975
BL51 BANKED LINKER/LOCATER V6.22.2.0                                                  07/13/2021  11:06:07  PAGE 49


  C:4428H         LINE#         977
  C:4430H         LINE#         978
  C:443AH         LINE#         979
  C:443CH         LINE#         980
  C:443FH         LINE#         981
  C:443FH         LINE#         982
  C:4441H         LINE#         984
  C:4441H         LINE#         986
  C:4449H         LINE#         987
  C:4452H         LINE#         988
  C:4454H         LINE#         989
  C:445CH         LINE#         990
  C:445CH         LINE#         992
  C:4467H         LINE#         993
  C:4471H         LINE#         994
  C:4474H         LINE#         995
  C:4479H         LINE#         996
  C:4479H         LINE#         997
  C:447CH         LINE#         999
  C:447CH         LINE#         1001
  C:4484H         LINE#         1002
  C:448DH         LINE#         1003
  C:448FH         LINE#         1004
  C:4497H         LINE#         1005
  C:4497H         LINE#         1008
  C:44A2H         LINE#         1009
  C:44AEH         LINE#         1010
  C:44B1H         LINE#         1011
  C:44B6H         LINE#         1012
  C:44B6H         LINE#         1014
  C:44B9H         LINE#         1016
  C:44B9H         LINE#         1018
  C:44C1H         LINE#         1019
  C:44CAH         LINE#         1020
  C:44CCH         LINE#         1021
  C:44D4H         LINE#         1022
  C:44D4H         LINE#         1025
  C:44DFH         LINE#         1026
  C:44E8H         LINE#         1027
  C:44EAH         LINE#         1028
  C:44F2H         LINE#         1029
  C:44F2H         LINE#         1032
  C:44FEH         LINE#         1033
  C:4508H         LINE#         1034
  C:450BH         LINE#         1035
  C:4510H         LINE#         1036
  C:4510H         LINE#         1037
  C:4513H         LINE#         1039
  C:4513H         LINE#         1040
  C:4513H         LINE#         1042
  C:4513H         LINE#         1044
  C:451BH         LINE#         1045
  C:4524H         LINE#         1046
  C:4526H         LINE#         1047
  C:452EH         LINE#         1048
  C:452EH         LINE#         1051
  C:4539H         LINE#         1052
BL51 BANKED LINKER/LOCATER V6.22.2.0                                                  07/13/2021  11:06:07  PAGE 50


  C:4542H         LINE#         1053
  C:4544H         LINE#         1054
  C:454CH         LINE#         1055
  C:454CH         LINE#         1058
  C:4558H         LINE#         1059
  C:4562H         LINE#         1060
  C:4565H         LINE#         1061
  C:456AH         LINE#         1062
  C:456AH         LINE#         1063
  C:456DH         LINE#         1065
  C:456DH         LINE#         1067
  C:4575H         LINE#         1068
  C:457EH         LINE#         1069
  C:4580H         LINE#         1070
  C:4588H         LINE#         1071
  C:4588H         LINE#         1074
  C:4593H         LINE#         1075
  C:459CH         LINE#         1076
  C:459EH         LINE#         1077
  C:45A6H         LINE#         1078
  C:45A6H         LINE#         1081
  C:45B2H         LINE#         1082
  C:45BCH         LINE#         1083
  C:45BFH         LINE#         1084
  C:45C7H         LINE#         1085
  C:45C7H         LINE#         1086
  C:45CAH         LINE#         1088
  C:45CAH         LINE#         1090
  C:45D2H         LINE#         1091
  C:45DBH         LINE#         1092
  C:45DDH         LINE#         1093
  C:45E5H         LINE#         1094
  C:45E5H         LINE#         1097
  C:45F0H         LINE#         1098
  C:45FEH         LINE#         1099
  C:4600H         LINE#         1100
  C:4608H         LINE#         1101
  C:4608H         LINE#         1104
  C:4614H         LINE#         1105
  C:461DH         LINE#         1106
  C:461FH         LINE#         1107
  C:4627H         LINE#         1108
  C:4627H         LINE#         1111
  C:4633H         LINE#         1112
  C:4642H         LINE#         1113
  C:4642H         LINE#         1114
  C:464AH         LINE#         1115
  C:464AH         LINE#         1116
  C:464AH         LINE#         1407
  C:464AH         LINE#         1408
  C:464AH         LINE#         1409
  C:464AH         LINE#         1410
  -------         ENDPROC       _PCT_SHOWMIRRORICON
  C:4AEFH         SYMBOL        L?0579
  C:4AFBH         SYMBOL        L?0584
  C:4B07H         SYMBOL        L?0588
  C:4B11H         SYMBOL        L?0597
BL51 BANKED LINKER/LOCATER V6.22.2.0                                                  07/13/2021  11:06:07  PAGE 51


  C:4B1BH         SYMBOL        L?0604
  C:4B26H         SYMBOL        L?0617
  C:4B31H         SYMBOL        L?0618
  C:4B3DH         SYMBOL        L?0627
  C:4B47H         SYMBOL        L?0630
  C:4B52H         SYMBOL        L?0642
  C:4B5CH         SYMBOL        L?0647
  C:4B67H         SYMBOL        L?0659
  C:4B71H         SYMBOL        L?0665
  C:4B7BH         SYMBOL        L?0669
  C:4B86H         SYMBOL        L?0675
  -------         PROC          _PCT_SHOWSPEAKICON
  X:00A5H         SYMBOL        _attr
  C:46E3H         LINE#         2011
  C:46E8H         LINE#         2012
  C:46E8H         LINE#         2013
  C:46EDH         LINE#         2014
  C:471EH         LINE#         2017
  C:471EH         LINE#         2018
  C:4728H         LINE#         2019
  C:4728H         LINE#         2020
  C:472AH         LINE#         2021
  C:472FH         LINE#         2022
  C:472FH         LINE#         2023
  C:4732H         LINE#         2025
  C:4732H         LINE#         2026
  C:473CH         LINE#         2027
  C:4745H         LINE#         2028
  C:4747H         LINE#         2029
  C:474AH         LINE#         2030
  C:474AH         LINE#         2031
  C:4754H         LINE#         2032
  C:475BH         LINE#         2033
  C:475EH         LINE#         2034
  C:4761H         LINE#         2035
  C:4761H         LINE#         2036
  C:4764H         LINE#         2038
  C:4764H         LINE#         2039
  C:476EH         LINE#         2040
  C:4777H         LINE#         2041
  C:4779H         LINE#         2042
  C:477CH         LINE#         2043
  C:477CH         LINE#         2044
  C:4787H         LINE#         2045
  C:478EH         LINE#         2046
  C:4791H         LINE#         2047
  C:4796H         LINE#         2048
  C:4796H         LINE#         2049
  C:4799H         LINE#         2051
  C:4799H         LINE#         2052
  C:47A3H         LINE#         2053
  C:47ACH         LINE#         2054
  C:47AEH         LINE#         2055
  C:47B1H         LINE#         2056
  C:47B1H         LINE#         2057
  C:47BCH         LINE#         2058
  C:47C5H         LINE#         2059
BL51 BANKED LINKER/LOCATER V6.22.2.0                                                  07/13/2021  11:06:07  PAGE 52


  C:47C7H         LINE#         2060
  C:47CFH         LINE#         2061
  C:47CFH         LINE#         2062
  C:47DDH         LINE#         2063
  C:47DDH         LINE#         2064
  C:47E0H         LINE#         2065
  C:47E3H         LINE#         2066
  C:47E3H         LINE#         2067
  C:47E6H         LINE#         2069
  C:47E6H         LINE#         2070
  C:47E6H         LINE#         2072
  C:47E6H         LINE#         2073
  C:47F0H         LINE#         2074
  C:47F9H         LINE#         2075
  C:47FBH         LINE#         2076
  C:47FEH         LINE#         2077
  C:47FEH         LINE#         2078
  C:4809H         LINE#         2079
  C:4812H         LINE#         2080
  C:4814H         LINE#         2081
  C:4817H         LINE#         2082
  C:4817H         LINE#         2083
  C:4825H         LINE#         2084
  C:4825H         LINE#         2085
  C:4828H         LINE#         2086
  C:482BH         LINE#         2087
  C:482BH         LINE#         2088
  C:482EH         LINE#         2090
  C:482EH         LINE#         2091
  C:4838H         LINE#         2092
  C:4841H         LINE#         2093
  C:4843H         LINE#         2094
  C:4846H         LINE#         2095
  C:4846H         LINE#         2096
  C:4851H         LINE#         2097
  C:485AH         LINE#         2098
  C:485CH         LINE#         2099
  C:485FH         LINE#         2100
  C:485FH         LINE#         2101
  C:486DH         LINE#         2102
  C:4875H         LINE#         2103
  C:4878H         LINE#         2104
  C:487CH         LINE#         2105
  C:487CH         LINE#         2106
  C:487FH         LINE#         2108
  C:487FH         LINE#         2109
  C:4889H         LINE#         2110
  C:4892H         LINE#         2111
  C:4894H         LINE#         2112
  C:4897H         LINE#         2113
  C:4897H         LINE#         2114
  C:48A2H         LINE#         2115
  C:48ABH         LINE#         2116
  C:48ADH         LINE#         2117
  C:48B0H         LINE#         2118
  C:48B0H         LINE#         2119
  C:48BEH         LINE#         2120
BL51 BANKED LINKER/LOCATER V6.22.2.0                                                  07/13/2021  11:06:07  PAGE 53


  C:48C7H         LINE#         2121
  C:48C9H         LINE#         2122
  C:48D1H         LINE#         2123
  C:48D1H         LINE#         2124
  C:48DFH         LINE#         2125
  C:48E7H         LINE#         2126
  C:48EAH         LINE#         2127
  C:48EDH         LINE#         2128
  C:48EDH         LINE#         2129
  C:48F0H         LINE#         2132
  C:48F0H         LINE#         2133
  C:48FAH         LINE#         2134
  C:4906H         LINE#         2135
  C:4909H         LINE#         2136
  C:490EH         LINE#         2137
  C:490EH         LINE#         2138
  C:4911H         LINE#         2140
  C:4911H         LINE#         2141
  C:4911H         LINE#         2143
  C:4911H         LINE#         2144
  C:491BH         LINE#         2145
  C:4924H         LINE#         2146
  C:4926H         LINE#         2147
  C:492EH         LINE#         2148
  C:492EH         LINE#         2149
  C:4939H         LINE#         2150
  C:4945H         LINE#         2151
  C:4948H         LINE#         2152
  C:494DH         LINE#         2153
  C:494DH         LINE#         2154
  C:4950H         LINE#         2156
  C:4950H         LINE#         2157
  C:495AH         LINE#         2158
  C:4968H         LINE#         2159
  C:496AH         LINE#         2160
  C:4972H         LINE#         2161
  C:4972H         LINE#         2162
  C:497DH         LINE#         2163
  C:4986H         LINE#         2164
  C:4988H         LINE#         2165
  C:4990H         LINE#         2166
  C:4990H         LINE#         2167
  C:499EH         LINE#         2168
  C:49A8H         LINE#         2169
  C:49ABH         LINE#         2170
  C:49B0H         LINE#         2171
  C:49B0H         LINE#         2172
  C:49B3H         LINE#         2174
  C:49B3H         LINE#         2175
  C:49B3H         LINE#         2177
  C:49B3H         LINE#         2178
  C:49BDH         LINE#         2179
  C:49C6H         LINE#         2180
  C:49C8H         LINE#         2181
  C:49D0H         LINE#         2182
  C:49D0H         LINE#         2183
  C:49DBH         LINE#         2184
BL51 BANKED LINKER/LOCATER V6.22.2.0                                                  07/13/2021  11:06:07  PAGE 54


  C:49E4H         LINE#         2185
  C:49E6H         LINE#         2186
  C:49EEH         LINE#         2187
  C:49EEH         LINE#         2188
  C:49FCH         LINE#         2189
  C:4A06H         LINE#         2190
  C:4A09H         LINE#         2191
  C:4A0EH         LINE#         2192
  C:4A0EH         LINE#         2193
  C:4A11H         LINE#         2195
  C:4A11H         LINE#         2196
  C:4A1BH         LINE#         2197
  C:4A24H         LINE#         2198
  C:4A26H         LINE#         2199
  C:4A2EH         LINE#         2200
  C:4A2EH         LINE#         2201
  C:4A39H         LINE#         2202
  C:4A42H         LINE#         2203
  C:4A44H         LINE#         2204
  C:4A47H         LINE#         2205
  C:4A47H         LINE#         2206
  C:4A55H         LINE#         2207
  C:4A5FH         LINE#         2208
  C:4A62H         LINE#         2209
  C:4A6AH         LINE#         2210
  C:4A6AH         LINE#         2211
  C:4A6DH         LINE#         2213
  C:4A6DH         LINE#         2214
  C:4A77H         LINE#         2215
  C:4A80H         LINE#         2216
  C:4A82H         LINE#         2217
  C:4A8AH         LINE#         2218
  C:4A8AH         LINE#         2219
  C:4A95H         LINE#         2220
  C:4A9EH         LINE#         2221
  C:4AA0H         LINE#         2222
  C:4AA8H         LINE#         2223
  C:4AA8H         LINE#         2224
  C:4AB6H         LINE#         2225
  C:4ABFH         LINE#         2226
  C:4AC1H         LINE#         2227
  C:4AC9H         LINE#         2228
  C:4AC9H         LINE#         2229
  C:4AD7H         LINE#         2230
  C:4AE6H         LINE#         2231
  C:4AE6H         LINE#         2232
  C:4AEEH         LINE#         2233
  C:4AEEH         LINE#         2234
  C:4AEEH         LINE#         2457
  C:4AEEH         LINE#         2458
  C:4AEEH         LINE#         2459
  C:4AEEH         LINE#         2460
  -------         ENDPROC       _PCT_SHOWSPEAKICON
  C:416BH         SYMBOL        L?0577
  C:4177H         SYMBOL        L?0580
  C:4183H         SYMBOL        L?0585
  C:418FH         SYMBOL        L?0591
BL51 BANKED LINKER/LOCATER V6.22.2.0                                                  07/13/2021  11:06:07  PAGE 55


  C:419BH         SYMBOL        L?0593
  C:41A5H         SYMBOL        L?0594
  C:41B1H         SYMBOL        L?0606
  C:41BBH         SYMBOL        L?0615
  C:41C7H         SYMBOL        L?0622
  C:41D1H         SYMBOL        L?0623
  C:41DDH         SYMBOL        L?0631
  C:41E7H         SYMBOL        L?0637
  C:41EFH         SYMBOL        L?0638
  C:41FBH         SYMBOL        L?0645
  C:4205H         SYMBOL        L?0653
  C:420DH         SYMBOL        L?0663
  C:4217H         SYMBOL        L?0664
  -------         PROC          PCT_SHOWVLOSS
  C:3CBCH         LINE#         2955
  C:3CBCH         LINE#         2956
  C:3CBCH         LINE#         2962
  C:3CEAH         LINE#         2964
  C:3CEAH         LINE#         2965
  C:3CFBH         LINE#         2966
  C:3D06H         LINE#         2968
  C:3D0AH         LINE#         2969
  C:3D0DH         LINE#         2971
  C:3D0DH         LINE#         2972
  C:3D0DH         LINE#         2974
  C:3D0DH         LINE#         2975
  C:3D1EH         LINE#         2976
  C:3D29H         LINE#         2978
  C:3D2CH         LINE#         2979
  C:3D3FH         LINE#         2980
  C:3D4AH         LINE#         2982
  C:3D4EH         LINE#         2983
  C:3D51H         LINE#         2985
  C:3D51H         LINE#         2986
  C:3D62H         LINE#         2987
  C:3D73H         LINE#         2989
  C:3D78H         LINE#         2990
  C:3D8BH         LINE#         2991
  C:3D98H         LINE#         2993
  C:3D9BH         LINE#         2994
  C:3DAEH         LINE#         2995
  C:3DB9H         LINE#         2997
  C:3DBDH         LINE#         2998
  C:3DC0H         LINE#         3000
  C:3DC0H         LINE#         3001
  C:3DC0H         LINE#         3003
  C:3DC0H         LINE#         3004
  C:3DD1H         LINE#         3005
  C:3DDCH         LINE#         3007
  C:3DDFH         LINE#         3008
  C:3DF2H         LINE#         3009
  C:3DFDH         LINE#         3011
  C:3E00H         LINE#         3012
  C:3E13H         LINE#         3013
  C:3E1EH         LINE#         3015
  C:3E22H         LINE#         3016
  C:3E25H         LINE#         3018
BL51 BANKED LINKER/LOCATER V6.22.2.0                                                  07/13/2021  11:06:07  PAGE 56


  C:3E25H         LINE#         3019
  C:3E36H         LINE#         3020
  C:3E41H         LINE#         3022
  C:3E44H         LINE#         3023
  C:3E57H         LINE#         3024
  C:3E64H         LINE#         3026
  C:3E6CH         LINE#         3027
  C:3E7FH         LINE#         3028
  C:3E8AH         LINE#         3030
  C:3E8EH         LINE#         3031
  C:3E91H         LINE#         3033
  C:3E91H         LINE#         3034
  C:3EA2H         LINE#         3035
  C:3EADH         LINE#         3037
  C:3EB0H         LINE#         3038
  C:3EC3H         LINE#         3039
  C:3ECEH         LINE#         3041
  C:3ED1H         LINE#         3042
  C:3EE4H         LINE#         3043
  C:3EF5H         LINE#         3045
  C:3EF8H         LINE#         3046
  C:3F0BH         LINE#         3047
  C:3F16H         LINE#         3049
  C:3F1AH         LINE#         3050
  C:3F1DH         LINE#         3053
  C:3F1DH         LINE#         3054
  C:3F2EH         LINE#         3055
  C:3F3BH         LINE#         3057
  C:3F43H         LINE#         3058
  C:3F46H         LINE#         3060
  C:3F46H         LINE#         3061
  C:3F46H         LINE#         3063
  C:3F46H         LINE#         3064
  C:3F57H         LINE#         3065
  C:3F64H         LINE#         3067
  C:3F67H         LINE#         3068
  C:3F7AH         LINE#         3069
  C:3F87H         LINE#         3071
  C:3F8FH         LINE#         3072
  C:3F92H         LINE#         3074
  C:3F92H         LINE#         3075
  C:3FA3H         LINE#         3076
  C:3FB4H         LINE#         3078
  C:3FB9H         LINE#         3079
  C:3FCCH         LINE#         3080
  C:3FD7H         LINE#         3082
  C:3FDAH         LINE#         3083
  C:3FEDH         LINE#         3084
  C:3FFAH         LINE#         3086
  C:3FFDH         LINE#         3087
  C:4000H         LINE#         3089
  C:4000H         LINE#         3090
  C:4000H         LINE#         3092
  C:4000H         LINE#         3093
  C:4011H         LINE#         3094
  C:401EH         LINE#         3096
  C:4021H         LINE#         3097
BL51 BANKED LINKER/LOCATER V6.22.2.0                                                  07/13/2021  11:06:07  PAGE 57


  C:4034H         LINE#         3098
  C:403FH         LINE#         3100
  C:4042H         LINE#         3101
  C:4055H         LINE#         3102
  C:4062H         LINE#         3104
  C:4065H         LINE#         3105
  C:4068H         LINE#         3107
  C:4068H         LINE#         3108
  C:4079H         LINE#         3109
  C:4084H         LINE#         3111
  C:4087H         LINE#         3112
  C:409AH         LINE#         3113
  C:40ABH         LINE#         3115
  C:40B6H         LINE#         3116
  C:40C9H         LINE#         3117
  C:40D6H         LINE#         3119
  C:40DEH         LINE#         3120
  C:40E1H         LINE#         3122
  C:40E1H         LINE#         3123
  C:40F2H         LINE#         3124
  C:40FDH         LINE#         3126
  C:4100H         LINE#         3127
  C:4113H         LINE#         3128
  C:411EH         LINE#         3130
  C:4121H         LINE#         3131
  C:4134H         LINE#         3132
  C:413FH         LINE#         3134
  C:4142H         LINE#         3135
  C:4155H         LINE#         3136
  C:4164H         LINE#         3138
  C:416AH         LINE#         3139
  C:416AH         LINE#         3141
  C:416AH         LINE#         3142
  C:416AH         LINE#         3143
  C:416AH         LINE#         3144
  -------         ENDPROC       PCT_SHOWVLOSS
  C:914FH         SYMBOL        L?0670
  -------         PROC          PCT_SHOWMODEICON
  C:9114H         LINE#         3151
  C:9114H         LINE#         3152
  C:9114H         LINE#         3153
  C:9119H         LINE#         3155
  C:9123H         LINE#         3156
  C:9123H         LINE#         3157
  C:9123H         LINE#         3158
  C:9123H         LINE#         3159
  C:9126H         LINE#         3160
  C:912FH         LINE#         3161
  C:912FH         LINE#         3162
  C:9131H         LINE#         3164
  C:9131H         LINE#         3165
  C:9131H         LINE#         3166
  C:9134H         LINE#         3167
  C:9149H         LINE#         3168
  C:914EH         LINE#         3169
  C:914EH         LINE#         3171
  C:914EH         LINE#         3172
BL51 BANKED LINKER/LOCATER V6.22.2.0                                                  07/13/2021  11:06:07  PAGE 58


  C:914EH         LINE#         3173
  C:914EH         LINE#         3174
  -------         ENDPROC       PCT_SHOWMODEICON
  -------         PROC          PCT_OSDACTIONFORHS
  C:95E5H         LINE#         3205
  C:95E5H         LINE#         3206
  C:95E5H         LINE#         3207
  C:95EAH         LINE#         3209
  C:95F3H         LINE#         3213
  C:95F3H         LINE#         3215
  C:95F9H         LINE#         3218
  C:95FFH         LINE#         3220
  C:9605H         LINE#         3221
  C:9605H         LINE#         3222
  C:9608H         LINE#         3223
  -------         ENDPROC       PCT_OSDACTIONFORHS
  -------         ENDMOD        OSDACTION

  -------         MODULE        OSDCTRL
  C:0000H         SYMBOL        _ICE_DUMMY_
  D:0090H         PUBLIC        P1
  C:250CH         PUBLIC        FONT_TABLE
  D:00B0H         PUBLIC        P3
  C:85F8H         PUBLIC        _PCT_FullColorOnOSD
  C:9403H         PUBLIC        _PCT_EnShowOSDPage
  D:00A8H         PUBLIC        IE
  D:0016H         PUBLIC        backColor
  D:00B8H         PUBLIC        IP
  D:00D8H         PUBLIC        CCON
  C:9912H         PUBLIC        _PCT_PreSetBackgroundColor
  C:854BH         PUBLIC        _PCT_ClearWordsPathX
  D:0017H         PUBLIC        foreColor
  D:00C0H         PUBLIC        WDTC
  D:0098H         PUBLIC        SCON
  D:0088H         PUBLIC        TCON
  C:8198H         PUBLIC        _PCT_WriteOSDFntX
  C:8391H         PUBLIC        _PCT_WriteOSDFntY
  C:990FH         PUBLIC        _PCT_PreSetForegroundColor
  C:7BFBH         PUBLIC        PCT_InitOSDColor
  B:0022H.0       PUBLIC        DAT_BIT0
  B:0022H.1       PUBLIC        DAT_BIT1
  B:0022H.2       PUBLIC        DAT_BIT2
  B:0022H.3       PUBLIC        DAT_BIT3
  B:0022H.4       PUBLIC        DAT_BIT4
  B:0022H.5       PUBLIC        DAT_BIT5
  C:8C31H         PUBLIC        _PCT_ShowOSDString
  D:00E8H         PUBLIC        IEA
  B:0022H.6       PUBLIC        DAT_BIT6
  B:0022H.7       PUBLIC        DAT_BIT7
  D:00F8H         PUBLIC        IPA
  C:8EA5H         PUBLIC        _PCT_SetOSDColor
  D:00C8H         PUBLIC        T2CON
  C:9735H         PUBLIC        _PCT_SetOSDDrawPage
  C:76B4H         PUBLIC        _PCT_WriteOSDDataBufferX
  C:976EH         PUBLIC        _PCT_ClearOSDPageX
  C:7E4AH         PUBLIC        _PCT_WriteOSDDataBufferY
  C:9752H         PUBLIC        _PCT_DisShowOSDPage
BL51 BANKED LINKER/LOCATER V6.22.2.0                                                  07/13/2021  11:06:07  PAGE 59


  D:00D0H         PUBLIC        PSW
  D:0022H         PUBLIC        bitdat
  C:781DH         SYMBOL        Com0083
  C:781DH         SYMBOL        L?0132
  C:7829H         SYMBOL        L?0133
  C:7831H         SYMBOL        L?0134
  C:7834H         SYMBOL        L?0135
  C:783DH         SYMBOL        L?0136
  C:783DH         SYMBOL        L?0137
  C:7842H         SYMBOL        L?0138
  C:7844H         SYMBOL        L?0139
  C:7845H         SYMBOL        L?0140
  C:784CH         SYMBOL        L?0145
  C:7859H         SYMBOL        L?0146
  C:785BH         SYMBOL        L?0147
  C:7862H         SYMBOL        L?0149
  C:786BH         SYMBOL        L?0150
  C:7875H         SYMBOL        L?0152
  C:787CH         SYMBOL        L?0153
  C:7888H         SYMBOL        L?0154
  C:788AH         SYMBOL        L?0155
  C:788CH         SYMBOL        L?0156
  C:7894H         SYMBOL        L?0157
  C:7896H         SYMBOL        L?0158
  C:7898H         SYMBOL        L?0159
  C:78A0H         SYMBOL        L?0160
  C:78A2H         SYMBOL        L?0161
  C:78A4H         SYMBOL        L?0162
  C:78ACH         SYMBOL        L?0163
  C:78CAH         SYMBOL        L?0164
  C:78CAH         SYMBOL        L?0165
  C:78D6H         SYMBOL        L?0166
  C:78DAH         SYMBOL        L?0167
  C:78E2H         SYMBOL        L?0169
  C:78E5H         SYMBOL        L?0170
  C:78F2H         SYMBOL        L?0171
  C:790AH         SYMBOL        L?0172
  C:790AH         SYMBOL        L?0173
  C:790CH         SYMBOL        L?0174
  C:7913H         SYMBOL        L?0175
  C:7929H         SYMBOL        L?0176
  C:7929H         SYMBOL        L?0177
  C:792BH         SYMBOL        L?0178
  C:7933H         SYMBOL        L?0181
  C:7935H         SYMBOL        L?0182
  C:793DH         SYMBOL        L?0183
  C:7940H         SYMBOL        L?0184
  C:7947H         SYMBOL        L?0186
  C:7949H         SYMBOL        L?0187
  C:7951H         SYMBOL        L?0188
  C:7952H         SYMBOL        L?0189
  C:795AH         SYMBOL        L?0190
  C:7966H         SYMBOL        L?0191
  C:7971H         SYMBOL        L?0192
  C:797CH         SYMBOL        L?0193
  C:797CH         SYMBOL        L?0194
  -------         PROC          COM0083
BL51 BANKED LINKER/LOCATER V6.22.2.0                                                  07/13/2021  11:06:07  PAGE 60


  -------         ENDPROC       COM0083
  -------         PROC          _PCT_PRESETFOREGROUNDCOLOR
  D:0007H         SYMBOL        _color
  C:990FH         LINE#         83
  C:990FH         LINE#         84
  C:990FH         LINE#         85
  C:9911H         LINE#         87
  -------         ENDPROC       _PCT_PRESETFOREGROUNDCOLOR
  -------         PROC          _PCT_PRESETBACKGROUNDCOLOR
  D:0007H         SYMBOL        _color
  C:9912H         LINE#         93
  C:9912H         LINE#         94
  C:9912H         LINE#         95
  C:9914H         LINE#         97
  -------         ENDPROC       _PCT_PRESETBACKGROUNDCOLOR
  C:8EF0H         SYMBOL        L?0185
  -------         PROC          _PCT_SETOSDCOLOR
  X:00A5H         SYMBOL        _pth
  X:00A6H         SYMBOL        _col_num
  D:0003H         SYMBOL        _y
  X:00A8H         SYMBOL        _cb
  X:00A9H         SYMBOL        _cr
  C:8EA5H         LINE#         103
  C:8EACH         LINE#         104
  C:8EACH         LINE#         105
  C:8EB5H         LINE#         106
  C:8EC0H         LINE#         107
  C:8ECFH         LINE#         109
  C:8ED8H         LINE#         113
  C:8EDEH         LINE#         115
  C:8EEFH         LINE#         116
  -------         ENDPROC       _PCT_SETOSDCOLOR
  C:7CF6H         SYMBOL        L?0142
  C:7D00H         SYMBOL        L?0144
  C:7D0AH         SYMBOL        L?0148
  C:7D12H         SYMBOL        L?0151
  C:7D1AH         SYMBOL        L?0168
  C:7D22H         SYMBOL        L?0179
  -------         PROC          PCT_INITOSDCOLOR
  C:7BFBH         LINE#         122
  C:7BFBH         LINE#         123
  C:7BFBH         LINE#         124
  C:7C09H         LINE#         125
  C:7C13H         LINE#         126
  C:7C18H         LINE#         127
  C:7C26H         LINE#         128
  C:7C32H         LINE#         130
  C:7C3DH         LINE#         131
  C:7C45H         LINE#         132
  C:7C53H         LINE#         133
  C:7C5FH         LINE#         134
  C:7C6BH         LINE#         135
  C:7C77H         LINE#         136
  C:7C83H         LINE#         137
  C:7C8FH         LINE#         138
  C:7C9DH         LINE#         139
  C:7CAFH         LINE#         140
BL51 BANKED LINKER/LOCATER V6.22.2.0                                                  07/13/2021  11:06:07  PAGE 61


  C:7CC1H         LINE#         141
  C:7CD3H         LINE#         142
  C:7CE4H         LINE#         143
  C:7CF0H         LINE#         145
  C:7CF3H         LINE#         146
  C:7CF5H         LINE#         147
  -------         ENDPROC       PCT_INITOSDCOLOR
  -------         PROC          _PCT_SETOSDDRAWPAGE
  X:00ABH         SYMBOL        _page
  C:9735H         LINE#         153
  C:9738H         LINE#         154
  C:9738H         LINE#         155
  C:974CH         LINE#         156
  -------         ENDPROC       _PCT_SETOSDDRAWPAGE
  C:9424H         SYMBOL        L?0180
  -------         PROC          _PCT_ENSHOWOSDPAGE
  X:00ABH         SYMBOL        _page
  C:9403H         LINE#         163
  C:9407H         LINE#         164
  C:9407H         LINE#         165
  C:940FH         LINE#         166
  C:9412H         LINE#         167
  C:9414H         LINE#         168
  C:9416H         LINE#         169
  C:941AH         LINE#         170
  C:9423H         LINE#         171
  C:9423H         LINE#         172
  -------         ENDPROC       _PCT_ENSHOWOSDPAGE
  -------         PROC          _PCT_DISSHOWOSDPAGE
  X:00A5H         SYMBOL        _bit
  -------         DO            
  D:0006H         SYMBOL        dat
  -------         ENDDO         
  C:9752H         LINE#         178
  C:9755H         LINE#         179
  C:9755H         LINE#         181
  C:9761H         LINE#         182
  -------         ENDPROC       _PCT_DISSHOWOSDPAGE
  -------         PROC          _PCT_FULLCOLORONOSD
  X:00A5H         SYMBOL        _posx
  X:00A6H         SYMBOL        _posy
  X:00A8H         SYMBOL        _wide
  X:00A9H         SYMBOL        _high
  C:85F8H         LINE#         191
  C:85FAH         LINE#         192
  C:85FAH         LINE#         193
  C:8600H         LINE#         194
  C:8606H         LINE#         195
  C:860CH         LINE#         196
  C:8612H         LINE#         198
  C:8618H         LINE#         199
  C:862CH         LINE#         200
  C:8639H         LINE#         201
  C:8652H         LINE#         203
  C:8659H         LINE#         204
  C:8661H         LINE#         205
  C:8669H         LINE#         206
BL51 BANKED LINKER/LOCATER V6.22.2.0                                                  07/13/2021  11:06:07  PAGE 62


  C:8671H         LINE#         207
  C:867CH         LINE#         209
  C:868BH         LINE#         210
  C:8695H         LINE#         211
  -------         ENDPROC       _PCT_FULLCOLORONOSD
  -------         PROC          _PCT_CLEAROSDPAGEX
  D:0007H         SYMBOL        _page
  C:976EH         LINE#         213
  C:976EH         LINE#         214
  C:976EH         LINE#         215
  C:9771H         LINE#         217
  C:9776H         LINE#         218
  -------         ENDPROC       _PCT_CLEAROSDPAGEX
  C:77DBH         SYMBOL        L?0130
  C:77FAH         SYMBOL        L?0141
  C:7808H         SYMBOL        L?0143
  C:7816H         SYMBOL        L?0195
  -------         PROC          _PCT_WRITEOSDDATABUFFERX
  X:00C5H         SYMBOL        _index
  X:00C6H         SYMBOL        _dat
  C:76B4H         LINE#         225
  C:76B9H         LINE#         226
  C:76B9H         LINE#         227
  C:76C3H         LINE#         228
  C:76D3H         LINE#         229
  C:76DFH         LINE#         230
  C:76EBH         LINE#         231
  C:76F4H         LINE#         232
  C:76F7H         LINE#         233
  C:76FCH         LINE#         235
  C:770EH         LINE#         236
  C:771AH         LINE#         237
  C:7726H         LINE#         238
  C:772FH         LINE#         239
  C:7732H         LINE#         240
  C:7737H         LINE#         242
  C:7740H         LINE#         243
  C:7752H         LINE#         244
  C:7762H         LINE#         245
  C:7772H         LINE#         246
  C:777FH         LINE#         247
  C:7785H         LINE#         248
  C:778AH         LINE#         250
  C:779CH         LINE#         251
  C:77AEH         LINE#         252
  C:77C0H         LINE#         253
  C:77D2H         LINE#         254
  C:77DBH         LINE#         255
  -------         ENDPROC       _PCT_WRITEOSDDATABUFFERX
  -------         PROC          _PCT_WRITEOSDFNTX
  D:0007H         SYMBOL        _posx
  X:00B3H         SYMBOL        _posy
  X:00B5H         SYMBOL        _len
  X:00B6H         SYMBOL        _indx
  -------         DO            
  D:0029H         SYMBOL        i
  D:002AH         SYMBOL        j
BL51 BANKED LINKER/LOCATER V6.22.2.0                                                  07/13/2021  11:06:07  PAGE 63


  D:002BH         SYMBOL        posx
  X:00B9H         SYMBOL        charPtr
  -------         ENDDO         
  C:8198H         LINE#         265
  C:819DH         LINE#         266
  C:819DH         LINE#         270
  C:81A0H         LINE#         271
  C:81A5H         LINE#         272
  C:81B7H         LINE#         273
  C:81C1H         LINE#         274
  C:81CBH         LINE#         275
  C:81D3H         LINE#         276
  C:81DEH         LINE#         277
  C:81EEH         LINE#         279
  C:81FDH         LINE#         280
  C:820EH         LINE#         281
  C:823AH         LINE#         282
  C:8242H         LINE#         283
  C:824AH         LINE#         285
  C:8253H         LINE#         286
  C:825FH         LINE#         287
  C:8269H         LINE#         289
  C:8274H         LINE#         290
  C:8280H         LINE#         291
  C:828AH         LINE#         293
  C:828FH         LINE#         294
  C:8296H         LINE#         295
  -------         ENDPROC       _PCT_WRITEOSDFNTX
  -------         PROC          _PCT_CLEARWORDSPATHX
  X:00A8H         SYMBOL        _posx
  X:00A9H         SYMBOL        _posy
  X:00ABH         SYMBOL        _len
  -------         DO            
  X:00ACH         SYMBOL        wide
  X:00ADH         SYMBOL        high
  -------         ENDDO         
  C:854BH         LINE#         304
  C:854DH         LINE#         305
  C:854DH         LINE#         309
  C:8553H         LINE#         310
  C:8559H         LINE#         311
  C:855FH         LINE#         312
  C:8565H         LINE#         314
  C:856CH         LINE#         315
  C:856FH         LINE#         316
  C:857FH         LINE#         318
  C:8588H         LINE#         319
  C:858DH         LINE#         321
  C:8593H         LINE#         323
  C:85A4H         LINE#         324
  C:85B2H         LINE#         326
  C:85BBH         LINE#         327
  C:85C3H         LINE#         328
  C:85CBH         LINE#         329
  C:85D3H         LINE#         330
  C:85DEH         LINE#         332
  C:85EDH         LINE#         333
BL51 BANKED LINKER/LOCATER V6.22.2.0                                                  07/13/2021  11:06:07  PAGE 64


  C:85F7H         LINE#         334
  -------         ENDPROC       _PCT_CLEARWORDSPATHX
  -------         PROC          _PCT_WRITEOSDDATABUFFERY
  X:00D1H         SYMBOL        _index
  X:00D2H         SYMBOL        _dat
  C:7E4AH         LINE#         340
  C:7E4FH         LINE#         341
  C:7E4FH         LINE#         342
  C:7E59H         LINE#         343
  C:7E78H         LINE#         344
  C:7E97H         LINE#         345
  C:7EB6H         LINE#         346
  C:7ED5H         LINE#         347
  C:7EDBH         LINE#         349
  C:7EE5H         LINE#         350
  C:7F04H         LINE#         351
  C:7F23H         LINE#         352
  C:7F42H         LINE#         353
  C:7F61H         LINE#         354
  -------         ENDPROC       _PCT_WRITEOSDDATABUFFERY
  -------         PROC          _PCT_WRITEOSDFNTY
  X:00B2H         SYMBOL        _posx
  X:00B3H         SYMBOL        _posy
  X:00B5H         SYMBOL        _len
  X:00B6H         SYMBOL        _indx
  -------         DO            
  D:0029H         SYMBOL        i
  D:002AH         SYMBOL        j
  X:00B9H         SYMBOL        charPtr
  -------         ENDDO         
  C:8391H         LINE#         365
  C:8399H         LINE#         366
  C:8399H         LINE#         370
  C:83A0H         LINE#         371
  C:83A3H         LINE#         372
  C:83B3H         LINE#         373
  C:83BBH         LINE#         375
  C:83CAH         LINE#         376
  C:83D7H         LINE#         377
  C:83F6H         LINE#         379
  C:8404H         LINE#         380
  C:842EH         LINE#         381
  C:8437H         LINE#         382
  C:843FH         LINE#         383
  C:8458H         LINE#         384
  C:8464H         LINE#         385
  C:846EH         LINE#         386
  C:8473H         LINE#         387
  C:847AH         LINE#         388
  -------         ENDPROC       _PCT_WRITEOSDFNTY
  -------         PROC          _PCT_SHOWOSDSTRING
  X:00ABH         SYMBOL        _path
  X:00ACH         SYMBOL        _addrx
  X:00ADH         SYMBOL        _addry
  X:00AEH         SYMBOL        _strptr
  -------         DO            
  X:00B1H         SYMBOL        slen
BL51 BANKED LINKER/LOCATER V6.22.2.0                                                  07/13/2021  11:06:07  PAGE 65


  -------         ENDDO         
  C:8C31H         LINE#         394
  C:8C37H         LINE#         395
  C:8C37H         LINE#         398
  C:8C42H         LINE#         399
  C:8C4CH         LINE#         401
  C:8C55H         LINE#         405
  C:8C55H         LINE#         406
  C:8C55H         LINE#         407
  C:8C61H         LINE#         408
  C:8C67H         LINE#         409
  C:8C6BH         LINE#         410
  C:8C6BH         LINE#         411
  C:8C70H         LINE#         412
  C:8C72H         LINE#         413
  C:8C72H         LINE#         414
  C:8C7EH         LINE#         415
  C:8C84H         LINE#         416
  C:8C88H         LINE#         417
  C:8C88H         LINE#         418
  C:8C8DH         LINE#         419
  C:8C8DH         LINE#         420
  C:8C90H         LINE#         421
  -------         ENDPROC       _PCT_SHOWOSDSTRING
  -------         ENDMOD        OSDCTRL

  -------         MODULE        TIMER
  C:0000H         SYMBOL        _ICE_DUMMY_
  D:0090H         PUBLIC        P1
  D:00B0H         PUBLIC        P3
  C:965CH         PUBLIC        InitialTimer0
  B:00A8H.7       PUBLIC        EA
  C:8E51H         PUBLIC        Timer0_interrupt
  D:00A8H         PUBLIC        IE
  D:00B8H         PUBLIC        IP
  D:00D8H         PUBLIC        CCON
  D:00C0H         PUBLIC        WDTC
  D:0098H         PUBLIC        SCON
  D:0088H         PUBLIC        TCON
  D:0010H         PUBLIC        user_timer
  B:00A8H.1       PUBLIC        ET0
  B:0088H.5       PUBLIC        TF0
  D:008CH         PUBLIC        TH0
  D:00E8H         PUBLIC        IEA
  D:008AH         PUBLIC        TL0
  B:00B8H.1       PUBLIC        PT0
  B:0088H.4       PUBLIC        TR0
  D:00F8H         PUBLIC        IPA
  D:00C8H         PUBLIC        T2CON
  D:00D0H         PUBLIC        PSW
  -------         PROC          INITIALTIMER0
  -------         DO            
  D:0007H         SYMBOL        i
  -------         ENDDO         
  C:965CH         LINE#         63
  C:965CH         LINE#         66
  C:965EH         LINE#         67
BL51 BANKED LINKER/LOCATER V6.22.2.0                                                  07/13/2021  11:06:07  PAGE 66


  C:9660H         LINE#         68
  C:9663H         LINE#         69
  C:9666H         LINE#         70
  C:9668H         LINE#         72
  C:9674H         LINE#         73
  C:9681H         LINE#         74
  -------         ENDPROC       INITIALTIMER0
  -------         PROC          TIMER0_INTERRUPT
  C:8E51H         LINE#         80
  C:8E55H         LINE#         82
  C:8E57H         LINE#         83
  C:8E5AH         LINE#         84
  C:8E5DH         LINE#         85
  C:8E5FH         LINE#         87
  C:8E74H         LINE#         88
  C:8E89H         LINE#         89
  C:8E9EH         LINE#         91
  C:8EA0H         LINE#         92
  -------         ENDPROC       TIMER0_INTERRUPT
  -------         ENDMOD        TIMER

  -------         MODULE        TW28XX_AUDIO
  C:0000H         SYMBOL        _ICE_DUMMY_
  D:0090H         PUBLIC        P1
  D:00B0H         PUBLIC        P3
  C:8B6FH         PUBLIC        _PCT_AudioMixCtrl
  C:9438H         PUBLIC        _PCT_AudioMixMute
  D:00A8H         PUBLIC        IE
  D:00B8H         PUBLIC        IP
  D:00D8H         PUBLIC        CCON
  D:00C0H         PUBLIC        WDTC
  D:0098H         PUBLIC        SCON
  D:0088H         PUBLIC        TCON
  D:00E8H         PUBLIC        IEA
  C:8D49H         PUBLIC        _PCT_AudioGainCtrl
  D:00F8H         PUBLIC        IPA
  D:00C8H         PUBLIC        T2CON
  C:95BCH         PUBLIC        _PCT_AudioSelLive
  D:00D0H         PUBLIC        PSW
  C:71DDH         PUBLIC        PCT_AudioRegList
  C:9262H         SYMBOL        Com0017
  C:9262H         SYMBOL        L?0024
  C:9264H         SYMBOL        L?0025
  C:9270H         SYMBOL        L?0026
  C:927CH         SYMBOL        L?0028
  C:927FH         SYMBOL        L?0029
  C:928BH         SYMBOL        L?0031
  C:9297H         SYMBOL        L?0032
  -------         PROC          COM0017
  -------         ENDPROC       COM0017
  C:72CFH         SYMBOL        L?0014
  C:72E1H         SYMBOL        L?0015
  C:72F3H         SYMBOL        L?0016
  C:7305H         SYMBOL        L?0017
  C:7317H         SYMBOL        L?0018
  C:7329H         SYMBOL        L?0019
  C:733BH         SYMBOL        L?0020
BL51 BANKED LINKER/LOCATER V6.22.2.0                                                  07/13/2021  11:06:07  PAGE 67


  C:734DH         SYMBOL        L?0021
  C:735FH         SYMBOL        L?0022
  C:7371H         SYMBOL        L?0027
  C:7383H         SYMBOL        L?0030
  -------         PROC          PCT_AUDIOREGLIST
  C:71DDH         LINE#         60
  C:71DDH         LINE#         61
  C:71DDH         LINE#         62
  C:71E8H         LINE#         63
  C:71F3H         LINE#         64
  C:71FEH         LINE#         65
  C:7209H         LINE#         66
  C:7214H         LINE#         68
  C:721FH         LINE#         69
  C:722AH         LINE#         70
  C:7235H         LINE#         71
  C:7240H         LINE#         72
  C:724BH         LINE#         73
  C:7256H         LINE#         74
  C:7261H         LINE#         75
  C:726CH         LINE#         77
  C:7277H         LINE#         78
  C:7282H         LINE#         79
  C:728DH         LINE#         80
  C:7298H         LINE#         81
  C:72A3H         LINE#         83
  C:72AEH         LINE#         84
  C:72B9H         LINE#         85
  C:72C4H         LINE#         86
  C:72CFH         LINE#         87
  -------         ENDPROC       PCT_AUDIOREGLIST
  -------         PROC          _PCT_AUDIOGAINCTRL
  D:0007H         SYMBOL        _dvc
  X:00ABH         SYMBOL        _channel
  X:00ACH         SYMBOL        _gain
  -------         DO            
  D:0004H         SYMBOL        dat
  X:00ADH         SYMBOL        result
  C:92BBH         SYMBOL        chanData
  -------         ENDDO         
  C:8D49H         LINE#         93
  C:8D50H         LINE#         94
  C:8D50H         LINE#         110
  C:8D52H         LINE#         111
  C:8D5FH         LINE#         113
  C:8D6EH         LINE#         114
  C:8D83H         LINE#         116
  C:8D92H         LINE#         117
  C:8DA1H         LINE#         118
  C:8DA3H         LINE#         119
  -------         ENDPROC       _PCT_AUDIOGAINCTRL
  -------         PROC          _PCT_AUDIOMIXCTRL
  X:00ABH         SYMBOL        _dvc
  X:00ACH         SYMBOL        _channel
  X:00ADH         SYMBOL        _gain
  -------         DO            
  D:0004H         SYMBOL        dat
BL51 BANKED LINKER/LOCATER V6.22.2.0                                                  07/13/2021  11:06:07  PAGE 68


  X:00AEH         SYMBOL        result
  C:92CFH         SYMBOL        chanData
  -------         ENDDO         
  C:8B6FH         LINE#         126
  C:8B79H         LINE#         127
  C:8B79H         LINE#         143
  C:8B7DH         LINE#         144
  C:8B88H         LINE#         146
  C:8B97H         LINE#         147
  C:8BACH         LINE#         149
  C:8BB8H         LINE#         150
  C:8BC4H         LINE#         152
  C:8BCDH         LINE#         153
  C:8BCFH         LINE#         154
  -------         ENDPROC       _PCT_AUDIOMIXCTRL
  -------         PROC          _PCT_AUDIOMIXMUTE
  D:0007H         SYMBOL        _dvc
  X:00ABH         SYMBOL        _ch
  X:00ACH         SYMBOL        _ctrl
  -------         DO            
  D:0031H         SYMBOL        dat
  -------         ENDDO         
  C:9438H         LINE#         160
  C:943FH         LINE#         161
  C:943FH         LINE#         167
  C:9441H         LINE#         168
  C:9449H         LINE#         169
  C:9450H         LINE#         170
  C:9455H         LINE#         171
  C:9457H         LINE#         172
  C:945CH         LINE#         173
  C:945CH         LINE#         174
  C:9469H         LINE#         176
  C:946BH         LINE#         177
  -------         ENDPROC       _PCT_AUDIOMIXMUTE
  -------         PROC          _PCT_AUDIOSELLIVE
  D:0007H         SYMBOL        _dvc
  X:00AFH         SYMBOL        _chan
  C:95BCH         LINE#         183
  C:95C0H         LINE#         184
  C:95C0H         LINE#         188
  C:95C2H         LINE#         189
  C:95C6H         LINE#         190
  C:95CFH         LINE#         191
  C:95D1H         LINE#         192
  C:95D1H         LINE#         194
  C:95D7H         LINE#         195
  C:95E2H         LINE#         196
  C:95E4H         LINE#         197
  -------         ENDPROC       _PCT_AUDIOSELLIVE
  -------         ENDMOD        TW28XX_AUDIO

  -------         MODULE        TW28XX_VIDEO
  C:0000H         SYMBOL        _ICE_DUMMY_
  C:4EEEH         PUBLIC        Video_HDelay37
  C:9321H         PUBLIC        _PCT_WinAttrClear
  D:0090H         PUBLIC        P1
BL51 BANKED LINKER/LOCATER V6.22.2.0                                                  07/13/2021  11:06:07  PAGE 69


  D:00B0H         PUBLIC        P3
  C:4F0AH         PUBLIC        VidoW2_ModifyACHM
  C:9395H         PUBLIC        _PCT_WinAttrCtrlY
  C:4EFEH         PUBLIC        VidoW2_ModifyACNM
  C:87C4H         PUBLIC        _PCT_DetectVideoFormat
  D:00A8H         PUBLIC        IE
  C:4EDEH         PUBLIC        Video_HDelay
  C:4F22H         PUBLIC        VidoW2_ModifyRBHM
  C:7D2AH         PUBLIC        _PCT_RecompenseYHdelay
  D:00B8H         PUBLIC        IP
  C:4F16H         PUBLIC        VidoW2_ModifyRBNM
  C:4FBBH         PUBLIC        XWinAttr_RegAddr
  D:00D8H         PUBLIC        CCON
  C:4FDBH         PUBLIC        YWinAttr_RegAddr
  C:4EC0H         PUBLIC        Video_HDelayInit
  C:53F9H         PUBLIC        _PCT_SetVideoHDelay
  C:9505H         PUBLIC        _PCT_WinAttrCtrl
  C:8696H         PUBLIC        _PCT_SetChanelScale
  D:00C0H         PUBLIC        WDTC
  D:0098H         PUBLIC        SCON
  D:0088H         PUBLIC        TCON
  C:7395H         PUBLIC        _PCT_SetXVideoMixing
  C:980DH         PUBLIC        _PCT_SetYVideoMixing
  C:4F3AH         PUBLIC        Init_Vido_Y
  C:4F2EH         PUBLIC        VidoW2_ModifyACHM_PAL
  D:00E8H         PUBLIC        IEA
  D:00F8H         PUBLIC        IPA
  C:960DH         PUBLIC        _PCT_SetVideoFormat
  D:00C8H         PUBLIC        T2CON
  C:4B90H         PUBLIC        Init_Vido_W1
  C:4C02H         PUBLIC        Init_Vido_W2
  C:4C86H         PUBLIC        Init_Vido_W3
  C:4FCBH         PUBLIC        XWinPOP_RegAddr
  C:4E4EH         PUBLIC        Init_Vido_W4
  D:00D0H         PUBLIC        PSW
  C:7F67H         SYMBOL        Com0077
  C:7F67H         SYMBOL        L?0120
  C:7F73H         SYMBOL        L?0121
  C:7F7DH         SYMBOL        L?0122
  C:7F86H         SYMBOL        L?0123
  C:7F88H         SYMBOL        L?0124
  C:7F89H         SYMBOL        L?0125
  C:7F8BH         SYMBOL        L?0126
  C:7F94H         SYMBOL        L?0127
  C:7F94H         SYMBOL        L?0128
  C:7FA2H         SYMBOL        L?0136
  C:7FA2H         SYMBOL        L?0137
  C:7FA5H         SYMBOL        L?0138
  C:7FA8H         SYMBOL        L?0139
  C:7FB6H         SYMBOL        L?0141
  C:7FB7H         SYMBOL        L?0142
  C:7FC0H         SYMBOL        L?0143
  C:7FCCH         SYMBOL        L?0145
  C:7FCCH         SYMBOL        L?0146
  C:7FD0H         SYMBOL        L?0147
  C:7FD3H         SYMBOL        L?0148
  C:7FDBH         SYMBOL        L?0152
BL51 BANKED LINKER/LOCATER V6.22.2.0                                                  07/13/2021  11:06:07  PAGE 70


  C:7FFDH         SYMBOL        L?0153
  C:7FFDH         SYMBOL        L?0154
  C:8003H         SYMBOL        L?0156
  C:8009H         SYMBOL        L?0157
  C:8017H         SYMBOL        L?0158
  C:8017H         SYMBOL        L?0159
  C:8021H         SYMBOL        L?0161
  C:8024H         SYMBOL        L?0162
  C:802CH         SYMBOL        L?0163
  C:802CH         SYMBOL        L?0164
  C:8032H         SYMBOL        L?0166
  C:8032H         SYMBOL        L?0167
  C:803DH         SYMBOL        L?0168
  C:8042H         SYMBOL        L?0169
  C:8049H         SYMBOL        L?0170
  C:8050H         SYMBOL        L?0171
  C:8057H         SYMBOL        L?0172
  C:8057H         SYMBOL        L?0173
  C:805FH         SYMBOL        L?0176
  C:805FH         SYMBOL        L?0177
  C:8065H         SYMBOL        L?0180
  C:8070H         SYMBOL        L?0182
  C:8070H         SYMBOL        L?0183
  C:8077H         SYMBOL        L?0184
  -------         PROC          COM0077
  -------         ENDPROC       COM0077
  C:8848H         SYMBOL        L?0179
  -------         PROC          _PCT_DETECTVIDEOFORMAT
  X:00A5H         SYMBOL        _ch
  -------         DO            
  X:00A6H         SYMBOL        tmpSta
  -------         ENDDO         
  C:87C4H         LINE#         78
  C:87C8H         LINE#         79
  C:87C8H         LINE#         85
  C:87CBH         LINE#         87
  C:87D2H         LINE#         88
  C:87D2H         LINE#         89
  C:87E0H         LINE#         90
  C:87E0H         LINE#         91
  C:87EBH         LINE#         92
  C:87EBH         LINE#         94
  C:87F1H         LINE#         95
  C:87F4H         LINE#         97
  C:87FAH         LINE#         98
  C:87FFH         LINE#         100
  C:8805H         LINE#         101
  C:8805H         LINE#         102
  C:8808H         LINE#         103
  C:8808H         LINE#         105
  C:8808H         LINE#         106
  C:880BH         LINE#         107
  C:880BH         LINE#         110
  C:880BH         LINE#         112
  C:880BH         LINE#         113
  C:881AH         LINE#         114
  C:8823H         LINE#         116
BL51 BANKED LINKER/LOCATER V6.22.2.0                                                  07/13/2021  11:06:07  PAGE 71


  C:8829H         LINE#         117
  C:882CH         LINE#         119
  C:8832H         LINE#         120
  C:8838H         LINE#         121
  C:8847H         LINE#         123
  C:8847H         LINE#         134
  -------         ENDPROC       _PCT_DETECTVIDEOFORMAT
  -------         PROC          _PCT_SETVIDEOFORMAT
  D:0007H         SYMBOL        _dvc
  D:0005H         SYMBOL        _ch
  X:00ABH         SYMBOL        _fmat
  -------         DO            
  D:0007H         SYMBOL        tmpSta
  X:00ACH         SYMBOL        addr
  -------         ENDDO         
  C:960DH         LINE#         140
  C:9611H         LINE#         141
  C:9611H         LINE#         144
  C:9611H         LINE#         145
  C:961CH         LINE#         146
  C:9622H         LINE#         149
  C:9626H         LINE#         151
  C:962BH         LINE#         152
  -------         ENDPROC       _PCT_SETVIDEOFORMAT
  C:86F4H         SYMBOL        L?0134
  -------         PROC          _PCT_SETCHANELSCALE
  D:0007H         SYMBOL        _ch
  X:00ACH         SYMBOL        datptr
  -------         DO            
  C:4FE3H         SYMBOL        ScaleRgeAddr
  X:00AFH         SYMBOL        addrptr
  X:00B2H         SYMBOL        value
  -------         ENDDO         
  C:8696H         LINE#         161
  C:869CH         LINE#         162
  C:869CH         LINE#         174
  C:86ACH         LINE#         175
  C:86BEH         LINE#         176
  C:86C3H         LINE#         177
  C:86C3H         LINE#         178
  C:86CEH         LINE#         179
  C:86D9H         LINE#         180
  C:86E9H         LINE#         181
  C:86E9H         LINE#         182
  C:86F4H         LINE#         183
  -------         ENDPROC       _PCT_SETCHANELSCALE
  C:564EH         SYMBOL        L?0116
  C:5697H         SYMBOL        L?0117
  C:56E0H         SYMBOL        L?0118
  C:5721H         SYMBOL        L?0129
  C:5738H         SYMBOL        L?0130
  C:574DH         SYMBOL        L?0131
  C:5761H         SYMBOL        L?0132
  C:5776H         SYMBOL        L?0133
  C:578AH         SYMBOL        L?0135
  C:579CH         SYMBOL        L?0140
  C:57B3H         SYMBOL        L?0144
BL51 BANKED LINKER/LOCATER V6.22.2.0                                                  07/13/2021  11:06:07  PAGE 72


  C:57C8H         SYMBOL        L?0149
  C:57DCH         SYMBOL        L?0151
  C:57EEH         SYMBOL        L?0175
  -------         PROC          _PCT_SETVIDEOHDELAY
  D:0007H         SYMBOL        _typ
  X:00A6H         SYMBOL        _winch
  X:00A9H         SYMBOL        _cattr
  -------         DO            
  X:00ACH         SYMBOL        hdelay
  X:00ADH         SYMBOL        ptr_Video_HDelay
  -------         ENDDO         
  C:53F9H         LINE#         186
  C:53FFH         LINE#         187
  C:53FFH         LINE#         195
  C:5408H         LINE#         196
  C:5415H         LINE#         198
  C:5420H         LINE#         200
  C:5452H         LINE#         201
  C:5452H         LINE#         202
  C:5452H         LINE#         207
  C:5457H         LINE#         208
  C:5460H         LINE#         209
  C:546CH         LINE#         210
  C:5472H         LINE#         212
  C:5474H         LINE#         213
  C:5483H         LINE#         214
  C:5489H         LINE#         215
  C:548CH         LINE#         217
  C:548CH         LINE#         218
  C:548CH         LINE#         220
  C:548CH         LINE#         221
  C:5495H         LINE#         222
  C:54A3H         LINE#         223
  C:54A9H         LINE#         225
  C:54B2H         LINE#         226
  C:54B5H         LINE#         227
  C:54C6H         LINE#         228
  C:54CCH         LINE#         230
  C:54CFH         LINE#         232
  C:54CFH         LINE#         233
  C:54CFH         LINE#         235
  C:54CFH         LINE#         236
  C:54CFH         LINE#         237
  C:54D7H         LINE#         238
  C:54DDH         LINE#         240
  C:54DDH         LINE#         241
  C:54DDH         LINE#         242
  C:54E8H         LINE#         243
  C:54EEH         LINE#         244
  C:54F1H         LINE#         246
  C:54F1H         LINE#         247
  C:54F1H         LINE#         249
  C:54F1H         LINE#         250
  C:54FAH         LINE#         251
  C:5508H         LINE#         252
  C:550EH         LINE#         254
  C:550EH         LINE#         255
BL51 BANKED LINKER/LOCATER V6.22.2.0                                                  07/13/2021  11:06:07  PAGE 73


  C:551AH         LINE#         256
  C:5528H         LINE#         257
  C:552EH         LINE#         259
  C:552EH         LINE#         260
  C:552EH         LINE#         261
  C:553FH         LINE#         262
  C:5545H         LINE#         263
  C:5548H         LINE#         265
  C:5548H         LINE#         266
  C:5548H         LINE#         267
  C:5548H         LINE#         269
  C:5548H         LINE#         270
  C:5548H         LINE#         273
  C:5548H         LINE#         274
  C:5548H         LINE#         275
  C:5550H         LINE#         276
  C:5556H         LINE#         278
  C:5556H         LINE#         279
  C:5556H         LINE#         280
  C:555EH         LINE#         281
  C:5564H         LINE#         283
  C:5564H         LINE#         284
  C:5564H         LINE#         285
  C:5575H         LINE#         286
  C:557BH         LINE#         287
  C:557EH         LINE#         289
  C:557EH         LINE#         290
  C:557EH         LINE#         293
  C:557EH         LINE#         294
  C:5588H         LINE#         295
  C:5596H         LINE#         296
  C:559CH         LINE#         298
  C:559CH         LINE#         299
  C:559CH         LINE#         300
  C:55A4H         LINE#         301
  C:55AAH         LINE#         303
  C:55AAH         LINE#         304
  C:55B6H         LINE#         305
  C:55C7H         LINE#         306
  C:55CDH         LINE#         307
  C:55D0H         LINE#         309
  C:55D0H         LINE#         310
  C:55D0H         LINE#         313
  C:55D0H         LINE#         314
  C:55DAH         LINE#         315
  C:55E8H         LINE#         316
  C:55EEH         LINE#         318
  C:55EEH         LINE#         319
  C:55EEH         LINE#         320
  C:55F6H         LINE#         321
  C:55FCH         LINE#         323
  C:55FCH         LINE#         324
  C:5608H         LINE#         325
  C:5616H         LINE#         326
  C:5622H         LINE#         328
  C:5627H         LINE#         329
  C:5630H         LINE#         330
BL51 BANKED LINKER/LOCATER V6.22.2.0                                                  07/13/2021  11:06:07  PAGE 74


  C:5641H         LINE#         331
  C:564DH         LINE#         332
  C:564DH         LINE#         334
  C:564DH         LINE#         335
  C:564DH         LINE#         336
  C:564DH         LINE#         337
  -------         ENDPROC       _PCT_SETVIDEOHDELAY
  C:7515H         SYMBOL        L?0160
  C:7522H         SYMBOL        L?0174
  -------         PROC          _PCT_SETXVIDEOMIXING
  X:00A5H         SYMBOL        _typ
  X:00A6H         SYMBOL        _winch
  -------         DO            
  X:00A9H         SYMBOL        wregptr
  -------         ENDDO         
  C:7395H         LINE#         340
  C:739EH         LINE#         341
  C:739EH         LINE#         344
  C:73AEH         LINE#         345
  C:73BEH         LINE#         346
  C:73D2H         LINE#         347
  C:73E6H         LINE#         349
  C:741CH         LINE#         350
  C:741CH         LINE#         351
  C:741CH         LINE#         355
  C:742BH         LINE#         356
  C:7435H         LINE#         357
  C:7435H         LINE#         358
  C:7438H         LINE#         360
  C:7438H         LINE#         361
  C:7438H         LINE#         362
  C:7438H         LINE#         363
  C:7438H         LINE#         364
  C:7447H         LINE#         365
  C:7449H         LINE#         367
  C:745AH         LINE#         368
  C:7465H         LINE#         369
  C:7465H         LINE#         370
  C:7468H         LINE#         372
  C:7468H         LINE#         373
  C:7468H         LINE#         374
  C:7468H         LINE#         375
  C:7468H         LINE#         376
  C:7468H         LINE#         377
  C:7468H         LINE#         378
  C:7468H         LINE#         379
  C:7468H         LINE#         380
  C:7477H         LINE#         381
  C:7479H         LINE#         383
  C:748AH         LINE#         384
  C:749EH         LINE#         385
  C:74AFH         LINE#         386
  C:74B4H         LINE#         387
  C:74B7H         LINE#         389
  C:74B7H         LINE#         390
  C:74B7H         LINE#         391
  C:74C6H         LINE#         392
BL51 BANKED LINKER/LOCATER V6.22.2.0                                                  07/13/2021  11:06:07  PAGE 75


  C:74D6H         LINE#         393
  C:74E7H         LINE#         394
  C:74F8H         LINE#         395
  C:7506H         LINE#         396
  C:7514H         LINE#         397
  C:7514H         LINE#         399
  C:7514H         LINE#         400
  C:7514H         LINE#         401
  C:7514H         LINE#         402
  -------         ENDPROC       _PCT_SETXVIDEOMIXING
  -------         PROC          _PCT_SETYVIDEOMIXING
  D:0007H         SYMBOL        _typ
  C:980DH         LINE#         408
  C:980DH         LINE#         409
  C:980DH         LINE#         410
  -------         ENDPROC       _PCT_SETYVIDEOMIXING
  C:7E17H         SYMBOL        L?0150
  C:7E22H         SYMBOL        L?0155
  C:7E2DH         SYMBOL        L?0165
  C:7E38H         SYMBOL        L?0178
  C:7E3FH         SYMBOL        L?0181
  -------         PROC          _PCT_RECOMPENSEYHDELAY
  X:00A5H         SYMBOL        _chmiro
  C:7D2AH         LINE#         414
  C:7D30H         LINE#         415
  C:7D30H         LINE#         416
  C:7D5AH         LINE#         417
  C:7D5AH         LINE#         419
  C:7D6BH         LINE#         420
  C:7D74H         LINE#         421
  C:7D82H         LINE#         422
  C:7D8BH         LINE#         423
  C:7D9CH         LINE#         424
  C:7DA8H         LINE#         425
  C:7DB6H         LINE#         426
  C:7DB6H         LINE#         427
  C:7DB9H         LINE#         429
  C:7DB9H         LINE#         430
  C:7DC7H         LINE#         431
  C:7DCDH         LINE#         432
  C:7DD0H         LINE#         434
  C:7DD0H         LINE#         435
  C:7DDEH         LINE#         436
  C:7DE4H         LINE#         437
  C:7DE6H         LINE#         439
  C:7DE6H         LINE#         440
  C:7DF4H         LINE#         441
  C:7DFAH         LINE#         442
  C:7DFCH         LINE#         444
  C:7DFCH         LINE#         445
  C:7E0AH         LINE#         446
  C:7E16H         LINE#         447
  C:7E16H         LINE#         448
  C:7E16H         LINE#         449
  -------         ENDPROC       _PCT_RECOMPENSEYHDELAY
  -------         PROC          _PCT_WINATTRCTRL
  X:00ABH         SYMBOL        _wid
BL51 BANKED LINKER/LOCATER V6.22.2.0                                                  07/13/2021  11:06:07  PAGE 76


  X:00ACH         SYMBOL        _attrsel
  X:00ADH         SYMBOL        _setval
  -------         DO            
  D:0004H         SYMBOL        dat
  -------         ENDDO         
  C:9505H         LINE#         500
  C:9510H         LINE#         501
  C:9510H         LINE#         507
  C:951AH         LINE#         508
  C:952BH         LINE#         509
  -------         ENDPROC       _PCT_WINATTRCTRL
  -------         PROC          _PCT_WINATTRCTRLY
  X:00A5H         SYMBOL        _wid
  X:00A6H         SYMBOL        _attrsel
  X:00A7H         SYMBOL        _setval
  -------         DO            
  D:0004H         SYMBOL        dat
  -------         ENDDO         
  C:9395H         LINE#         518
  C:93A0H         LINE#         519
  C:93A0H         LINE#         524
  C:93ADH         LINE#         525
  C:93BEH         LINE#         526
  -------         ENDPROC       _PCT_WINATTRCTRLY
  -------         PROC          _PCT_WINATTRCLEAR
  X:00A5H         SYMBOL        _attrsel
  -------         DO            
  X:00A6H         SYMBOL        _wid
  X:00A7H         SYMBOL        dat
  -------         ENDDO         
  C:9321H         LINE#         535
  C:9325H         LINE#         536
  C:9325H         LINE#         543
  C:9335H         LINE#         544
  C:9342H         LINE#         545
  C:934BH         LINE#         546
  C:9355H         LINE#         547
  C:935CH         LINE#         548
  -------         ENDPROC       _PCT_WINATTRCLEAR
  -------         ENDMOD        TW28XX_VIDEO

  -------         MODULE        TW2835_INIT
  C:0000H         SYMBOL        _ICE_DUMMY_
  D:0090H         PUBLIC        P1
  D:00B0H         PUBLIC        P3
  D:00A8H         PUBLIC        IE
  C:33ACH         PUBLIC        TW2835_Page0
  C:35ACH         PUBLIC        TW2835_Page1
  C:37ACH         PUBLIC        TW2837_Page0
  C:39ACH         PUBLIC        TW2837_Page1
  C:3BACH         PUBLIC        TW2837_Page2
  C:8BD0H         PUBLIC        PCT_InitialTW2835
  D:00B8H         PUBLIC        IP
  C:3C2CH         PUBLIC        tbl_ntsc_pg1_pic_fl
  C:3C3CH         PUBLIC        tbl_ntsc_pg1_pic_qd
  C:9835H         PUBLIC        PCT_TW2835ResetN
  C:3C7CH         PUBLIC        tbl_pal_pg1_pic_qd
BL51 BANKED LINKER/LOCATER V6.22.2.0                                                  07/13/2021  11:06:07  PAGE 77


  D:00D8H         PUBLIC        CCON
  D:00C0H         PUBLIC        WDTC
  D:0098H         PUBLIC        SCON
  C:3C5CH         PUBLIC        tbl_ntsc_pg1_pic_9_rb
  D:0088H         PUBLIC        TCON
  C:3C9CH         PUBLIC        tbl_pal_pg1_pic_9_rb
  C:9787H         PUBLIC        PCT_TW2837IDCheck
  C:3C4CH         PUBLIC        tbl_ntsc_pg1_pic_9_lt
  C:872DH         PUBLIC        _PCT_ChangeSystemType
  C:3C8CH         PUBLIC        tbl_pal_pg1_pic_9_lt
  D:00E8H         PUBLIC        IEA
  D:00F8H         PUBLIC        IPA
  C:3C6CH         PUBLIC        tbl_ntsc_pg1_enc
  C:3CACH         PUBLIC        tbl_pal_pg1_enc
  D:00C8H         PUBLIC        T2CON
  B:00B0H.4       PUBLIC        RSTn
  X:009AH         PUBLIC        TW2837IDCheck
  C:6E44H         PUBLIC        PCT_TW2835_Initial
  D:00D0H         PUBLIC        PSW
  C:9564H         SYMBOL        Com001B
  C:9564H         SYMBOL        L?0028
  C:956DH         SYMBOL        L?0029
  C:957CH         SYMBOL        L?0042
  C:9588H         SYMBOL        L?0043
  -------         PROC          COM001B
  -------         ENDPROC       COM001B
  C:8C27H         SYMBOL        L?0044
  -------         PROC          PCT_INITIALTW2835
  C:8BD0H         LINE#         73
  C:8BD0H         LINE#         74
  C:8BD0H         LINE#         75
  C:8BD3H         LINE#         76
  C:8BD7H         LINE#         79
  C:8BDCH         LINE#         81
  C:8BDFH         LINE#         83
  C:8BE7H         LINE#         85
  C:8BEEH         LINE#         86
  C:8BEEH         LINE#         87
  C:8BF4H         LINE#         89
  C:8BFDH         LINE#         90
  C:8BFDH         LINE#         91
  C:8BFFH         LINE#         92
  C:8BFFH         LINE#         94
  C:8BFFH         LINE#         96
  C:8BFFH         LINE#         97
  C:8C08H         LINE#         98
  C:8C11H         LINE#         99
  C:8C13H         LINE#         100
  C:8C13H         LINE#         102
  C:8C13H         LINE#         103
  C:8C1AH         LINE#         104
  C:8C1CH         LINE#         105
  C:8C21H         LINE#         107
  C:8C24H         LINE#         108
  C:8C27H         LINE#         109
  -------         ENDPROC       PCT_INITIALTW2835
  -------         PROC          PCT_TW2835RESETN
BL51 BANKED LINKER/LOCATER V6.22.2.0                                                  07/13/2021  11:06:07  PAGE 78


  -------         DO            
  D:0006H         SYMBOL        _delay
  -------         ENDDO         
  C:9835H         LINE#         115
  C:9835H         LINE#         116
  C:9835H         LINE#         131
  C:9837H         LINE#         132
  C:9845H         LINE#         133
  C:9847H         LINE#         135
  -------         ENDPROC       PCT_TW2835RESETN
  -------         PROC          PCT_TW2837IDCHECK
  C:9787H         LINE#         142
  C:9787H         LINE#         143
  C:9787H         LINE#         144
  C:9796H         LINE#         145
  C:979BH         LINE#         147
  C:979FH         LINE#         148
  -------         ENDPROC       PCT_TW2837IDCHECK
  C:6F88H         SYMBOL        L?0030
  C:6F9EH         SYMBOL        L?0031
  C:6FB1H         SYMBOL        L?0032
  C:6FC7H         SYMBOL        L?0033
  C:6FD6H         SYMBOL        L?0035
  C:6FE8H         SYMBOL        L?0036
  C:6FF8H         SYMBOL        L?0038
  C:7006H         SYMBOL        L?0039
  C:7013H         SYMBOL        L?0041
  -------         PROC          PCT_TW2835_INITIAL
  -------         DO            
  X:00A5H         SYMBOL        offset
  -------         ENDDO         
  C:6E44H         LINE#         154
  C:6E44H         LINE#         155
  C:6E44H         LINE#         158
  C:6E49H         LINE#         159
  C:6E51H         LINE#         160
  C:6E51H         LINE#         162
  C:6E58H         LINE#         164
  C:6E68H         LINE#         165
  C:6E78H         LINE#         167
  C:6E8EH         LINE#         169
  C:6E9CH         LINE#         171
  C:6EA7H         LINE#         173
  C:6EB7H         LINE#         176
  C:6EC7H         LINE#         177
  C:6ED7H         LINE#         178
  C:6EEEH         LINE#         180
  C:6EF5H         LINE#         181
  C:6EFEH         LINE#         182
  C:6F06H         LINE#         183
  C:6F11H         LINE#         184
  C:6F15H         LINE#         185
  C:6F17H         LINE#         186
  C:6F17H         LINE#         187
  C:6F20H         LINE#         188
  C:6F30H         LINE#         189
  C:6F38H         LINE#         190
BL51 BANKED LINKER/LOCATER V6.22.2.0                                                  07/13/2021  11:06:07  PAGE 79


  C:6F43H         LINE#         191
  C:6F50H         LINE#         192
  C:6F50H         LINE#         194
  C:6F50H         LINE#         196
  C:6F50H         LINE#         197
  C:6F5AH         LINE#         198
  C:6F65H         LINE#         200
  C:6F70H         LINE#         202
  C:6F87H         LINE#         204
  C:6F87H         LINE#         208
  -------         ENDPROC       PCT_TW2835_INITIAL
  C:878EH         SYMBOL        L?0034
  C:87A1H         SYMBOL        L?0037
  C:87B3H         SYMBOL        L?0040
  -------         PROC          _PCT_CHANGESYSTEMTYPE
  D:0007H         SYMBOL        _sys
  -------         DO            
  X:009FH         SYMBOL        offset
  -------         ENDDO         
  C:872DH         LINE#         214
  C:872DH         LINE#         215
  C:872DH         LINE#         218
  C:8730H         LINE#         220
  C:8737H         LINE#         221
  C:8737H         LINE#         222
  C:873AH         LINE#         224
  C:8745H         LINE#         226
  C:8750H         LINE#         227
  C:8758H         LINE#         228
  C:875AH         LINE#         231
  C:875AH         LINE#         232
  C:8760H         LINE#         234
  C:876BH         LINE#         236
  C:8776H         LINE#         237
  C:878DH         LINE#         239
  C:878DH         LINE#         241
  -------         ENDPROC       _PCT_CHANGESYSTEMTYPE
  -------         ENDMOD        TW2835_INIT

  -------         MODULE        ?C?CLDPTR
  C:4FF3H         PUBLIC        ?C?CLDPTR
  -------         ENDMOD        ?C?CLDPTR

  -------         MODULE        ?C?CLDOPTR
  C:500CH         PUBLIC        ?C?CLDOPTR
  -------         ENDMOD        ?C?CLDOPTR

  -------         MODULE        ?C?CSTPTR
  C:5039H         PUBLIC        ?C?CSTPTR
  -------         ENDMOD        ?C?CSTPTR

  -------         MODULE        ?C?IMUL
  C:504BH         PUBLIC        ?C?IMUL
  -------         ENDMOD        ?C?IMUL

  -------         MODULE        ?C?ILDPTR
  C:505DH         PUBLIC        ?C?ILDPTR
BL51 BANKED LINKER/LOCATER V6.22.2.0                                                  07/13/2021  11:06:07  PAGE 80


  -------         ENDMOD        ?C?ILDPTR

  -------         MODULE        ?C?IILDOPTR
  C:5088H         PUBLIC        ?C?IILDOPTR
  -------         ENDMOD        ?C?IILDOPTR

  -------         MODULE        ?C?ULCMP
  C:50D5H         PUBLIC        ?C?ULCMP
  -------         ENDMOD        ?C?ULCMP

  -------         MODULE        ?C?PLDPTR
  C:50E6H         PUBLIC        ?C?PLDPTR
  -------         ENDMOD        ?C?PLDPTR

  -------         MODULE        ?C?PSTPTR
  C:5106H         PUBLIC        ?C?PSTPTR
  -------         ENDMOD        ?C?PSTPTR

  -------         MODULE        ?C?CCASE
  C:5155H         PUBLIC        ?C?CCASE
  -------         ENDMOD        ?C?CCASE

  -------         MODULE        PRINTF
  X:00A5H         PUBLIC        ?_PRINTF517?BYTE
  X:00A5H         PUBLIC        ?_PRINTF?BYTE
  X:00A5H         PUBLIC        ?_SPRINTF517?BYTE
  X:00A5H         PUBLIC        ?_SPRINTF?BYTE
  C:5C27H         PUBLIC        _PRINTF
  C:5C27H         PUBLIC        _PRINTF517
  C:5C21H         PUBLIC        _SPRINTF
  C:5C21H         PUBLIC        _SPRINTF517
  -------         ENDMOD        PRINTF

  -------         MODULE        PUTS
  C:9592H         PUBLIC        _PUTS
  -------         ENDMOD        PUTS

  -------         MODULE        SCANF
  X:00ABH         PUBLIC        ?_SCANF517?BYTE
  X:00ABH         PUBLIC        ?_SCANF?BYTE
  X:00ABH         PUBLIC        ?_SSCANF517?BYTE
  X:00ABH         PUBLIC        ?_SSCANF?BYTE
  C:5FA2H         PUBLIC        _SCANF
  C:5FA2H         PUBLIC        _SCANF517
  C:5F9EH         PUBLIC        _SSCANF
  C:5F9EH         PUBLIC        _SSCANF517
  -------         ENDMOD        SCANF

  -------         MODULE        ?C?STRCMP
  C:52F9H         PUBLIC        ?C?STRCMP
  -------         ENDMOD        ?C?STRCMP

  -------         MODULE        STRLEN
  C:000EH         PUBLIC        _STRLEN
  -------         ENDMOD        STRLEN

  -------         MODULE        ATOI
BL51 BANKED LINKER/LOCATER V6.22.2.0                                                  07/13/2021  11:06:07  PAGE 81


  C:847BH         PUBLIC        _atoi
  -------         ENDMOD        ATOI

  -------         MODULE        ?C?IILDX
  C:5316H         PUBLIC        ?C?IILDX
  -------         ENDMOD        ?C?IILDX

  -------         MODULE        ?C?ISTPTR
  C:532CH         PUBLIC        ?C?ISTPTR
  -------         ENDMOD        ?C?ISTPTR

  -------         MODULE        ?C?LNEG
  C:534BH         PUBLIC        ?C?LNEG
  -------         ENDMOD        ?C?LNEG

  -------         MODULE        ?C?LSTPTR
  C:5359H         PUBLIC        ?C?LSTPTR
  -------         ENDMOD        ?C?LSTPTR

  -------         MODULE        ?C?PLDIDATA
  C:5373H         PUBLIC        ?C?PLDIDATA
  -------         ENDMOD        ?C?PLDIDATA

  -------         MODULE        ?C?PSTIDATA
  C:537CH         PUBLIC        ?C?PSTIDATA
  -------         ENDMOD        ?C?PSTIDATA

  -------         MODULE        ?C?PLDXDATA
  C:5385H         PUBLIC        ?C?PLDXDATA
  -------         ENDMOD        ?C?PLDXDATA

  -------         MODULE        ?C?PSTXDATA
  C:538EH         PUBLIC        ?C?PSTXDATA
  -------         ENDMOD        ?C?PSTXDATA

  -------         MODULE        ?C?PLDPDATA
  C:5397H         PUBLIC        ?C?PLDPDATA
  -------         ENDMOD        ?C?PLDPDATA

  -------         MODULE        ?C?PLDIPDATA
  C:53A0H         PUBLIC        ?C?PLDIPDATA
  -------         ENDMOD        ?C?PLDIPDATA

  -------         MODULE        ?C?PILDPDATA
  C:53B0H         PUBLIC        ?C?PILDPDATA
  -------         ENDMOD        ?C?PILDPDATA

  -------         MODULE        ?C?PSTPDATA
  C:53C0H         PUBLIC        ?C?PSTPDATA
  -------         ENDMOD        ?C?PSTPDATA

  -------         MODULE        ?C?PLDCODE
  C:53C9H         PUBLIC        ?C?PLDCODE
  -------         ENDMOD        ?C?PLDCODE

  -------         MODULE        PUTCHAR
  C:9635H         PUBLIC        _PUTCHAR
BL51 BANKED LINKER/LOCATER V6.22.2.0                                                  07/13/2021  11:06:07  PAGE 82


  -------         ENDMOD        PUTCHAR

  -------         MODULE        GETCHAR
  B:0024H.2       PUBLIC        ?C?CHARLOADED
  X:009BH         PUBLIC        ?_UNGETCHAR?BYTE
  C:9848H         PUBLIC        GETCHAR
  -------         ENDMOD        GETCHAR

  -------         MODULE        UNGETC
  C:98FEH         PUBLIC        _UNGETCHAR
  -------         ENDMOD        UNGETC

  -------         MODULE        ISDIGIT
  C:98AAH         PUBLIC        _isdigit
  -------         ENDMOD        ISDIGIT

  -------         MODULE        ISSPACE
  C:9821H         PUBLIC        _isspace
  -------         ENDMOD        ISSPACE

  -------         MODULE        ?C?LSTIDATA
  C:53D5H         PUBLIC        ?C?LSTIDATA
  -------         ENDMOD        ?C?LSTIDATA

  -------         MODULE        ?C?LSTXDATA
  C:53E1H         PUBLIC        ?C?LSTXDATA
  -------         ENDMOD        ?C?LSTXDATA

  -------         MODULE        ?C?LSTPDATA
  C:53EDH         PUBLIC        ?C?LSTPDATA
  -------         ENDMOD        ?C?LSTPDATA

  -------         MODULE        _GETKEY
  C:98DBH         PUBLIC        _GETKEY
  -------         ENDMOD        _GETKEY

Program Size: data=46.3 xdata=219 code=39190
LINK/LOCATE RUN COMPLETE.  0 WARNING(S),  0 ERROR(S)
