BL51 BANKED LINKER/LOCATER V6.22.2.0                                                    06/22/2021  15:07:28  PAGE 1


BL51 BANKED LINKER/LOCATER V6.22.2.0, INVOKED BY:
C:\KEIL_V5\C51\BIN\BL51.EXE .\OBJ\STARTUP.obj, .\OBJ\UART.obj, .\OBJ\BusCtrl.obj, .\OBJ\CommandShell.obj, .\OBJ\Main.obj
>> , .\OBJ\OSD_Graph.obj, .\OBJ\OSDAction.obj, .\OBJ\OSDCtrl.obj, .\OBJ\Timer.obj, .\OBJ\TW28xx_Audio.obj, .\OBJ\TW28xx_
>> Video.obj, .\OBJ\TW2835_Init.obj TO .\OBJ\TW2835 PRINT (.\OBJ\TW2835.m51) RAMSIZE (256)


MEMORY MODEL: COMPACT


INPUT MODULES INCLUDED:
  .\OBJ\STARTUP.obj (?C_STARTUP)
  .\OBJ\UART.obj (UART)
  .\OBJ\BusCtrl.obj (BUSCTRL)
  .\OBJ\CommandShell.obj (COMMANDSHELL)
  .\OBJ\Main.obj (MAIN)
  .\OBJ\OSD_Graph.obj (OSD_GRAPH)
  .\OBJ\OSDAction.obj (OSDACTION)
  .\OBJ\OSDCtrl.obj (OSDCTRL)
  .\OBJ\Timer.obj (TIMER)
  .\OBJ\TW28xx_Audio.obj (TW28XX_AUDIO)
  .\OBJ\TW28xx_Video.obj (TW28XX_VIDEO)
  .\OBJ\TW2835_Init.obj (TW2835_INIT)
  C:\KEIL_V5\C51\LIB\C51C.LIB (?C_INIT)
  C:\KEIL_V5\C51\LIB\C51C.LIB (?C?CLDPTR)
  C:\KEIL_V5\C51\LIB\C51C.LIB (?C?CLDOPTR)
  C:\KEIL_V5\C51\LIB\C51C.LIB (?C?CSTPTR)
  C:\KEIL_V5\C51\LIB\C51C.LIB (?C?IMUL)
  C:\KEIL_V5\C51\LIB\C51C.LIB (?C?ILDPTR)
  C:\KEIL_V5\C51\LIB\C51C.LIB (?C?IILDOPTR)
  C:\KEIL_V5\C51\LIB\C51C.LIB (?C?ULCMP)
  C:\KEIL_V5\C51\LIB\C51C.LIB (?C?PLDPTR)
  C:\KEIL_V5\C51\LIB\C51C.LIB (?C?PSTPTR)
  C:\KEIL_V5\C51\LIB\C51C.LIB (?C?CCASE)
  C:\KEIL_V5\C51\LIB\C51C.LIB (PRINTF)
  C:\KEIL_V5\C51\LIB\C51C.LIB (PUTS)
  C:\KEIL_V5\C51\LIB\C51C.LIB (SCANF)
  C:\KEIL_V5\C51\LIB\C51C.LIB (?C?STRCMP)
  C:\KEIL_V5\C51\LIB\C51C.LIB (STRLEN)
  C:\KEIL_V5\C51\LIB\C51C.LIB (ATOI)
  C:\KEIL_V5\C51\LIB\C51C.LIB (?C?IILDX)
  C:\KEIL_V5\C51\LIB\C51C.LIB (?C?ISTPTR)
  C:\KEIL_V5\C51\LIB\C51C.LIB (?C?LNEG)
  C:\KEIL_V5\C51\LIB\C51C.LIB (?C?LSTPTR)
  C:\KEIL_V5\C51\LIB\C51C.LIB (?C?PLDIDATA)
  C:\KEIL_V5\C51\LIB\C51C.LIB (?C?PSTIDATA)
  C:\KEIL_V5\C51\LIB\C51C.LIB (?C?PLDXDATA)
  C:\KEIL_V5\C51\LIB\C51C.LIB (?C?PSTXDATA)
  C:\KEIL_V5\C51\LIB\C51C.LIB (?C?PLDPDATA)
  C:\KEIL_V5\C51\LIB\C51C.LIB (?C?PLDIPDATA)
  C:\KEIL_V5\C51\LIB\C51C.LIB (?C?PILDPDATA)
  C:\KEIL_V5\C51\LIB\C51C.LIB (?C?PSTPDATA)
  C:\KEIL_V5\C51\LIB\C51C.LIB (?C?PLDCODE)
  C:\KEIL_V5\C51\LIB\C51C.LIB (PUTCHAR)
  C:\KEIL_V5\C51\LIB\C51C.LIB (GETCHAR)
  C:\KEIL_V5\C51\LIB\C51C.LIB (UNGETC)
  C:\KEIL_V5\C51\LIB\C51C.LIB (ISDIGIT)
  C:\KEIL_V5\C51\LIB\C51C.LIB (ISSPACE)
  C:\KEIL_V5\C51\LIB\C51C.LIB (?C?LSTIDATA)
BL51 BANKED LINKER/LOCATER V6.22.2.0                                                  06/22/2021  15:07:28  PAGE 2


  C:\KEIL_V5\C51\LIB\C51C.LIB (?C?LSTXDATA)
  C:\KEIL_V5\C51\LIB\C51C.LIB (?C?LSTPDATA)
  C:\KEIL_V5\C51\LIB\C51C.LIB (_GETKEY)


LINK MAP OF MODULE:  .\OBJ\TW2835 (?C_STARTUP)


            TYPE    BASE      LENGTH    RELOCATION   SEGMENT NAME
            -----------------------------------------------------

            * * * * * * *   D A T A   M E M O R Y   * * * * * * *
            REG     0000H     0008H     ABSOLUTE     "REG BANK 0"
            REG     0008H     0008H     ABSOLUTE     "REG BANK 1"
            DATA    0010H     0006H     UNIT         ?DT?TIMER
            DATA    0016H     0002H     UNIT         ?DT?OSDCTRL
                    0018H     0008H                  *** GAP ***
            DATA    0020H     0001H     BIT_ADDR     ?BA?MAIN
            DATA    0021H     0001H     BIT_ADDR     ?BA?OSDACTION
            DATA    0022H     0001H     BIT_ADDR     ?BA?OSDCTRL
            BIT     0023H.0   0001H.1   UNIT         _BIT_GROUP_
            BIT     0024H.1   0000H.1   UNIT         ?BI?MAIN
            BIT     0024H.2   0000H.1   UNIT         ?BI?GETCHAR
                    0024H.3   0000H.5                *** GAP ***
            DATA    0025H     0011H     UNIT         _DATA_GROUP_
            IDATA   0036H     0001H     UNIT         ?STACK

            * * * * * * *  X D A T A   M E M O R Y  * * * * * * *
            XDATA   0000H     0052H     INPAGE       ?PD?UART
            XDATA   0052H     0019H     INPAGE       ?PD?COMMANDSHELL
            XDATA   006BH     002DH     INPAGE       ?PD?MAIN
            XDATA   0098H     0001H     INPAGE       ?PD?OSD_GRAPH
            XDATA   0099H     0001H     INPAGE       ?PD?OSDACTION
            XDATA   009AH     0001H     INPAGE       ?PD?GETCHAR
            XDATA   009BH     003EH     INPAGE       _PDATA_GROUP_
            XDATA   00D9H     0001H     UNIT         ?XD?COMMANDSHELL

            * * * * * * *   C O D E   M E M O R Y   * * * * * * *
            CODE    0000H     0003H     ABSOLUTE     
            CODE    0003H     0008H     UNIT         ?PR?_RS_TX?UART
            CODE    000BH     0003H     ABSOLUTE     
            CODE    000EH     0015H     UNIT         ?PR?_STRLEN?STRLEN
            CODE    0023H     0003H     ABSOLUTE     
            CODE    0026H     24E6H     UNIT         ?CO?OSD_GRAPH
            CODE    250CH     0EA0H     UNIT         ?CO?OSDCTRL
            CODE    33ACH     0565H     UNIT         ?PR?PCT_SHOWVLOSS?OSDACTION
            CODE    3911H     0510H     UNIT         ?CO?TW2835_INIT
            CODE    3E21H     04C2H     UNIT         ?PR?_PCT_SHOWMIRRORICON?OSDACTION
            CODE    42E3H     04ADH     UNIT         ?PR?_PCT_SHOWSPEAKICON?OSDACTION
            CODE    4790H     0453H     UNIT         ?CO?TW28XX_VIDEO
            CODE    4BE3H     0406H     UNIT         ?C?LIB_CODE
            CODE    4FE9H     03C8H     UNIT         ?PR?_PCT_OSD_ACTIONPTHX?OSDACTION
            CODE    53B1H     0367H     UNIT         ?PR?_PCT_SETVIDEOHDELAY?TW28XX_VIDEO
            CODE    5718H     035BH     UNIT         ?PR?PRINTF?PRINTF
            CODE    5A73H     0316H     UNIT         ?PR?SCANF?SCANF
            CODE    5D89H     02DFH     UNIT         ?CO?COMMANDSHELL
            CODE    6068H     0296H     UNIT         ?PR?_PCT_RUNCOMMSHELL?COMMANDSHELL
BL51 BANKED LINKER/LOCATER V6.22.2.0                                                  06/22/2021  15:07:28  PAGE 3


            CODE    62FEH     027EH     UNIT         ?PR?_PCT_SHOWINDICATEICON?OSDACTION
            CODE    657CH     0210H     UNIT         ?PR?_MONIVIDEOMIXATTR?COMMANDSHELL
            CODE    678CH     020BH     UNIT         ?PR?COMMANDSHELL
            CODE    6997H     01B8H     UNIT         ?PR?PCT_AUDIOREGLIST?TW28XX_AUDIO
            CODE    6B4FH     0195H     UNIT         ?PR?_PCT_SETXVIDEOMIXING?TW28XX_VIDEO
            CODE    6CE4H     0191H     UNIT         ?PR?PCT_TW2835_INITIAL?TW2835_INIT
            CODE    6E75H     018AH     UNIT         ?PR?_MONIAUDIOMIXING?COMMANDSHELL
            CODE    6FFFH     017BH     UNIT         ?PR?_PCT_OSD16X16GRAPHX?OSD_GRAPH
            CODE    717AH     0169H     UNIT         ?PR?_PCT_WRITEOSDDATABUFFERX?OSDCTRL
            CODE    72E3H     0165H     UNIT         ?PR?OSDCTRL
            CODE    7448H     013DH     UNIT         ?PR?_MONIAUDIOGAIN?COMMANDSHELL
            CODE    7585H     013CH     UNIT         ?PR?_MONIHSCOMM?COMMANDSHELL
            CODE    76C1H     012FH     UNIT         ?PR?PCT_INITOSDCOLOR?OSDCTRL
            CODE    77F0H     0120H     UNIT         ?PR?_PCT_RECOMPENSEYHDELAY?TW28XX_VIDEO
            CODE    7910H     011DH     UNIT         ?PR?_PCT_WRITEOSDDATABUFFERY?OSDCTRL
            CODE    7A2DH     0117H     UNIT         ?PR?_MONISETVIDEOFORMAT?COMMANDSHELL
            CODE    7B44H     0109H     UNIT         ?PR?TW28XX_VIDEO
            CODE    7C4DH     00FFH     UNIT         ?PR?_PCT_WRITEOSDFNTX?OSDCTRL
            CODE    7D4CH     00FAH     UNIT         ?PR?OSDACTION
            CODE    7E46H     00EAH     UNIT         ?PR?_PCT_WRITEOSDFNTY?OSDCTRL
            CODE    7F30H     00D0H     UNIT         ?PR?_ATOI?ATOI
            CODE    8000H     00A1H     UNIT         ?PR?_PCT_CLEARWORDSPATHX?OSDCTRL
            CODE    80A1H     009EH     UNIT         ?PR?_PCT_FULLCOLORONOSD?OSDCTRL
            CODE    813FH     0097H     UNIT         ?PR?_PCT_SETCHANELSCALE?TW28XX_VIDEO
            CODE    81D6H     008CH     UNIT         ?C_C51STARTUP
            CODE    8262H     0077H     UNIT         ?PR?MAIN?MAIN
            CODE    82D9H     006BH     UNIT         ?PR?PCT_CHECKSYSTEM?COMMANDSHELL
            CODE    8344H     0068H     UNIT         ?PR?_PCT_GETFIRSTSTR?COMMANDSHELL
            CODE    83ACH     0062H     UNIT         ?PR?_PCT_CHANGESYSTEMTYPE?TW2835_INIT
            CODE    840EH     0061H     UNIT         ?PR?_PCT_AUDIOMIXCTRL?TW28XX_AUDIO
            CODE    846FH     0060H     UNIT         ?PR?_PCT_SHOWOSDSTRING?OSDCTRL
            CODE    84CFH     005DH     UNIT         ?PR?_MONISHOWSODSTR?COMMANDSHELL
            CODE    852CH     005BH     UNIT         ?PR?_PCT_SHOWGRAPHSTRING?OSD_GRAPH
            CODE    8587H     005BH     UNIT         ?PR?_PCT_AUDIOGAINCTRL?TW28XX_AUDIO
            CODE    85E2H     0057H     UNIT         ?PR?_PCT_WRITESTABLE?BUSCTRL
            CODE    8639H     0056H     UNIT         ?PR?_MONIVIDEOMIXWIN?COMMANDSHELL
            CODE    868FH     0054H     UNIT         ?PR?TIMER0_INTERRUPT?TIMER
            CODE    86E3H     0053H     UNIT         ?PR?_PCT_SETOSDCOLOR?OSDCTRL
            CODE    8736H     0052H     UNIT         ?PR?COMMANDSHELL?MAIN
            CODE    8788H     0052H     UNIT         ?PR?OSD_GRAPH
            CODE    87DAH     0050H     UNIT         ?PR?PCT_INITIALOSD?OSDACTION
            CODE    882AH     004FH     UNIT         ?PR?MONIREGISTERDUMP?COMMANDSHELL
            CODE    8879H     004CH     UNIT         ?PR?_MONIWRITEASICBYTE?COMMANDSHELL
            CODE    88C5H     004BH     UNIT         ?PR?_PCT_DETECTVIDEOFORMAT?TW28XX_VIDEO
            CODE    8910H     0047H     UNIT         ?PR?_MONIREADASICBYTE?COMMANDSHELL
            CODE    8957H     0046H     UNIT         ?PR?_WAIT_MS?MAIN
            CODE    899DH     0046H     UNIT         ?PR?PCT_SHOWMODEICON?OSDACTION
            CODE    89E3H     0043H     UNIT         ?PR?_MONIREADPAGEBUFFER?COMMANDSHELL
            CODE    8A26H     0042H     UNIT         ?PR?PCT_INITIALTW2835?TW2835_INIT
            CODE    8A68H     0041H     UNIT         ?PR?_PCT_CHECKVMIXTYPE?COMMANDSHELL
            CODE    8AA9H     0041H     UNIT         ?PR?PCT_AUDIOACTIONFORHS?COMMANDSHELL
            CODE    8AEAH     0041H     UNIT         ?PR?TW28XX_AUDIO
            CODE    8B2BH     0040H     UNIT         ?CO?TW28XX_AUDIO
            CODE    8B6BH     003EH     UNIT         ?PR?_PCT_STRTOCOMMCODE?COMMANDSHELL
            CODE    8BA9H     003CH     UNIT         ?PR?_PCT_WINATTRCLEAR?TW28XX_VIDEO
            CODE    8BE5H     003BH     UNIT         ?PR?_PCT_WRITEASICTABLE?BUSCTRL
            CODE    8C20H     0038H     UNIT         ?PR?PCT_GETVIDEOSIGNALSTATUS?OSDACTION
BL51 BANKED LINKER/LOCATER V6.22.2.0                                                  06/22/2021  15:07:28  PAGE 4


            CODE    8C58H     0038H     UNIT         ?PR?_PCT_WINATTRCTRLY?TW28XX_VIDEO
            CODE    8C90H     0036H     UNIT         ?PR?_PUTSP?MAIN
            CODE    8CC6H     0035H     UNIT         ?PR?_PCT_ENSHOWOSDPAGE?OSDCTRL
            CODE    8CFBH     0034H     UNIT         ?PR?_PCT_AUDIOMIXMUTE?TW28XX_AUDIO
            CODE    8D2FH     0033H     UNIT         ?PR?_MONIREADONEBUFFER?COMMANDSHELL
            CODE    8D62H     0033H     UNIT         ?PR?_MONIWRITEONEBUFFER?COMMANDSHELL
            CODE    8D95H     0033H     UNIT         ?PR?MONIVIDEOAUTODETECT?COMMANDSHELL
            CODE    8DC8H     0031H     UNIT         ?PR?_PCT_WINATTRCTRL?TW28XX_VIDEO
            CODE    8DF9H     002EH     UNIT         ?PR?_CHKSTARTCOMMSHELL?MAIN
            CODE    8E27H     002AH     UNIT         ?PR?MONIHSCOMMVERSION?COMMANDSHELL
            CODE    8E51H     002AH     UNIT         ?PR?_PUTS?PUTS
            CODE    8E7BH     0029H     UNIT         ?PR?_PCT_AUDIOSELLIVE?TW28XX_AUDIO
            CODE    8EA4H     0028H     UNIT         ?PR?BUSCTRL
            CODE    8ECCH     0028H     UNIT         ?PR?PCT_OSDACTIONFORHS?OSDACTION
            CODE    8EF4H     0028H     UNIT         ?PR?_PCT_SETVIDEOFORMAT?TW28XX_VIDEO
            CODE    8F1CH     0027H     UNIT         ?PR?PUTCHAR?PUTCHAR
            CODE    8F43H     0026H     UNIT         ?PR?INITIALTIMER0?TIMER
            CODE    8F69H     0025H     UNIT         ?CO?OSDACTION
            CODE    8F8EH     0023H     UNIT         ?PR?RS_INTERRUPT?UART
            CODE    8FB1H     0023H     UNIT         ?PR?INITIALMPU?MAIN
            CODE    8FD4H     001DH     UNIT         ?PR?_PCT_SETOSDDRAWPAGE?OSDCTRL
            CODE    8FF1H     001CH     UNIT         ?PR?_PCT_DISSHOWOSDPAGE?OSDCTRL
            CODE    900DH     001BH     UNIT         ?PR?_PCT_PAGECHANGE?BUSCTRL
            CODE    9028H     001BH     UNIT         ?PR?_PCT_READASICBYTE?BUSCTRL
            CODE    9043H     0019H     UNIT         ?PR?_PCT_CLEAROSDPAGEX?OSDCTRL
            CODE    905CH     0018H     UNIT         ?PR?TW2835_INIT
            CODE    9074H     0017H     UNIT         ?CO?MAIN
            CODE    908BH     0016H     UNIT         ?PR?RS_RX?UART
            CODE    90A1H     0016H     UNIT         ?PR?_MONIHSCOMMSJMODE?COMMANDSHELL
            CODE    90B7H     0016H     UNIT         ?PR?RESETCOMMSELL?MAIN
            CODE    90CDH     0014H     UNIT         ?PR?_MONIAUDIOLIVE?COMMANDSHELL
            CODE    90E1H     0014H     UNIT         ?PR?_PCT_SETYVIDEOMIXING?TW28XX_VIDEO
            CODE    90F5H     0014H     UNIT         ?PR?_ISSPACE?ISSPACE
            CODE    9109H     0013H     UNIT         ?PR?_PCT_WRITEASICBYTE?BUSCTRL
            CODE    911CH     0013H     UNIT         ?PR?PCT_TW2835RESETN?TW2835_INIT
            CODE    912FH     0013H     UNIT         ?PR?GETCHAR?GETCHAR
            CODE    9142H     0012H     UNIT         ?PR?_MONIYVIDEOMIX?COMMANDSHELL
            CODE    9154H     0010H     UNIT         ?PR?INITIALUART?UART
            CODE    9164H     000FH     UNIT         ?PR?RS_RXREADY?UART
            CODE    9173H     000FH     UNIT         ?PR?PCT_SENDACK?COMMANDSHELL
            CODE    9182H     000FH     UNIT         ?PR?MONIAUDIOMUTE?COMMANDSHELL
            CODE    9191H     000FH     UNIT         ?PR?_ISDIGIT?ISDIGIT
            CODE    91A0H     000CH     UNIT         ?PR?UART
            CODE    91ACH     000BH     UNIT         ?PR?INITIALCOMMSHELL?MAIN
            CODE    91B7H     000AH     UNIT         ?PR?_GETKEY?_GETKEY
            CODE    91C1H     0009H     UNIT         ?PR?NEWLINE?MAIN
            CODE    91CAH     0009H     UNIT         ?PR?_PCT_FLASHOSDCTRL?MAIN
            CODE    91D3H     0008H     UNIT         ?C_INITSEG
            CODE    91DBH     0007H     UNIT         ?PR?PCT_ENFALSHVLOSS?OSDACTION
            CODE    91E2H     0007H     UNIT         ?PR?GETCHAR?UNGETCHAR
            CODE    91E9H     0005H     UNIT         ?PR?MONIHSCOMMDISSCROLL?COMMANDSHELL
            CODE    91EEH     0005H     UNIT         ?PR?PCT_CLEARGRAPHATTR?OSD_GRAPH
            CODE    91F3H     0003H     UNIT         ?PR?_PCT_PRESETFOREGROUNDCOLOR?OSDCTRL
            CODE    91F6H     0003H     UNIT         ?PR?_PCT_PRESETBACKGROUNDCOLOR?OSDCTRL
            CODE    91F9H     0001H     UNIT         ?PR?PTC_SWITCHTOI2CMODE?BUSCTRL


BL51 BANKED LINKER/LOCATER V6.22.2.0                                                  06/22/2021  15:07:28  PAGE 5



OVERLAY MAP OF MODULE:   .\OBJ\TW2835 (?C_STARTUP)


SEGMENT                                            BIT_GROUP          DATA_GROUP          PDATA_GROUP
  +--> CALLED SEGMENT                           START    LENGTH     START    LENGTH     START    LENGTH
-------------------------------------------------------------------------------------------------------
?C_C51STARTUP                                   -----    -----      -----    -----      -----    -----
  +--> ?PR?MAIN?MAIN
  +--> ?C_INITSEG

?PR?MAIN?MAIN                                   -----    -----      -----    -----      009BH    0003H
  +--> ?PR?INITIALMPU?MAIN
  +--> ?PR?INITIALCOMMSHELL?MAIN
  +--> ?PR?PTC_SWITCHTOI2CMODE?BUSCTRL
  +--> ?PR?PCT_INITIALTW2835?TW2835_INIT
  +--> ?PR?RESETCOMMSELL?MAIN
  +--> ?PR?COMMANDSHELL?MAIN
  +--> ?PR?_PCT_RUNCOMMSHELL?COMMANDSHELL
  +--> ?PR?PCT_CHECKSYSTEM?COMMANDSHELL
  +--> ?PR?RS_RXREADY?UART
  +--> ?PR?PCT_GETVIDEOSIGNALSTATUS?OSDACTION

?PR?INITIALMPU?MAIN                             -----    -----      -----    -----      -----    -----
  +--> ?PR?INITIALUART?UART
  +--> ?PR?INITIALTIMER0?TIMER

?PR?PCT_INITIALTW2835?TW2835_INIT               -----    -----      -----    -----      -----    -----
  +--> ?PR?PCT_TW2835RESETN?TW2835_INIT
  +--> ?PR?_PCT_READASICBYTE?BUSCTRL
  +--> ?PR?_PCT_DETECTVIDEOFORMAT?TW28XX_VIDEO
  +--> ?PR?_WAIT_MS?MAIN
  +--> ?PR?PCT_TW2835_INITIAL?TW2835_INIT
  +--> ?PR?PCT_INITIALOSD?OSDACTION

?PR?_PCT_READASICBYTE?BUSCTRL                   -----    -----      -----    -----      -----    -----
  +--> ?PR?_PCT_PAGECHANGE?BUSCTRL
  +--> ?PR?BUSCTRL

?PR?_PCT_PAGECHANGE?BUSCTRL                     -----    -----      -----    -----      00D8H    0001H
  +--> ?PR?BUSCTRL

?PR?_PCT_DETECTVIDEOFORMAT?TW28XX_VIDEO         -----    -----      -----    -----      00A4H    0002H
  +--> ?PR?_PCT_READASICBYTE?BUSCTRL

?PR?_WAIT_MS?MAIN                               -----    -----      -----    -----      00A4H    0004H

?PR?PCT_TW2835_INITIAL?TW2835_INIT              -----    -----      -----    -----      00A4H    0002H
  +--> ?PR?TW2835_INIT
  +--> ?CO?TW2835_INIT
  +--> ?PR?_PCT_WRITEASICTABLE?BUSCTRL
  +--> ?PR?_PCT_WRITEASICBYTE?BUSCTRL

?PR?TW2835_INIT                                 -----    -----      -----    -----      -----    -----
  +--> ?CO?TW2835_INIT

?PR?_PCT_WRITEASICTABLE?BUSCTRL                 -----    -----      -----    -----      00A6H    0007H
BL51 BANKED LINKER/LOCATER V6.22.2.0                                                  06/22/2021  15:07:28  PAGE 6


  +--> ?PR?_PCT_PAGECHANGE?BUSCTRL
  +--> ?PR?BUSCTRL

?PR?_PCT_WRITEASICBYTE?BUSCTRL                  -----    -----      -----    -----      00D4H    0004H
  +--> ?PR?_PCT_PAGECHANGE?BUSCTRL
  +--> ?PR?BUSCTRL

?PR?PCT_INITIALOSD?OSDACTION                    -----    -----      0027H    0001H      -----    -----
  +--> ?PR?PCT_INITOSDCOLOR?OSDCTRL
  +--> ?PR?PCT_CLEARGRAPHATTR?OSD_GRAPH
  +--> ?PR?_PCT_PRESETFOREGROUNDCOLOR?OSDCTRL
  +--> ?PR?_PCT_PRESETBACKGROUNDCOLOR?OSDCTRL
  +--> ?PR?_PCT_ENSHOWOSDPAGE?OSDCTRL
  +--> ?PR?_PCT_SETOSDDRAWPAGE?OSDCTRL
  +--> ?PR?_PCT_FULLCOLORONOSD?OSDCTRL

?PR?PCT_INITOSDCOLOR?OSDCTRL                    -----    -----      -----    -----      -----    -----
  +--> ?PR?_PCT_WRITEASICBYTE?BUSCTRL
  +--> ?PR?OSDCTRL
  +--> ?PR?_PCT_SETOSDCOLOR?OSDCTRL

?PR?OSDCTRL                                     -----    -----      -----    -----      -----    -----
  +--> ?CO?OSDCTRL

?PR?_PCT_SETOSDCOLOR?OSDCTRL                    -----    -----      -----    -----      00A4H    0005H
  +--> ?PR?_PCT_WRITEASICBYTE?BUSCTRL

?PR?_PCT_ENSHOWOSDPAGE?OSDCTRL                  -----    -----      -----    -----      00AAH    0001H
  +--> ?PR?OSDCTRL
  +--> ?PR?_PCT_WRITEASICBYTE?BUSCTRL
  +--> ?PR?_PCT_READASICBYTE?BUSCTRL

?PR?_PCT_SETOSDDRAWPAGE?OSDCTRL                 -----    -----      -----    -----      00AAH    0001H
  +--> ?PR?OSDCTRL
  +--> ?PR?_PCT_READASICBYTE?BUSCTRL
  +--> ?PR?_PCT_WRITEASICBYTE?BUSCTRL

?PR?_PCT_FULLCOLORONOSD?OSDCTRL                 -----    -----      -----    -----      00A4H    0006H
  +--> ?PR?OSDCTRL
  +--> ?PR?_PCT_WRITEASICBYTE?BUSCTRL
  +--> ?PR?_PCT_READASICBYTE?BUSCTRL

?PR?RESETCOMMSELL?MAIN                          -----    -----      -----    -----      -----    -----
  +--> ?CO?MAIN
  +--> ?PR?_PUTSP?MAIN

?PR?_PUTSP?MAIN                                 -----    -----      0025H    0001H      009EH    0003H
  +--> ?PR?_RS_TX?UART

?PR?COMMANDSHELL?MAIN                           -----    -----      0025H    0001H      -----    -----
  +--> ?PR?RS_RXREADY?UART
  +--> ?PR?RS_RX?UART
  +--> ?PR?_RS_TX?UART
  +--> ?PR?_CHKSTARTCOMMSHELL?MAIN
  +--> ?PR?NEWLINE?MAIN

?PR?RS_RX?UART                                  -----    -----      -----    -----      -----    -----
BL51 BANKED LINKER/LOCATER V6.22.2.0                                                  06/22/2021  15:07:28  PAGE 7


  +--> ?PR?UART

?PR?_CHKSTARTCOMMSHELL?MAIN                     -----    -----      -----    -----      009EH    0003H
  +--> ?CO?MAIN

?PR?NEWLINE?MAIN                                -----    -----      -----    -----      -----    -----
  +--> ?CO?MAIN
  +--> ?PR?_PUTS?PUTS

?PR?_PUTS?PUTS                                  -----    -----      -----    -----      -----    -----
  +--> ?PR?PUTCHAR?PUTCHAR

?PR?_PCT_RUNCOMMSHELL?COMMANDSHELL              -----    -----      0025H    0002H      009EH    0006H
  +--> ?PR?COMMANDSHELL
  +--> ?PR?_PCT_GETFIRSTSTR?COMMANDSHELL
  +--> ?PR?_PCT_STRTOCOMMCODE?COMMANDSHELL
  +--> ?CO?COMMANDSHELL
  +--> ?PR?_MONIREADPAGEBUFFER?COMMANDSHELL
  +--> ?PR?_MONIREADONEBUFFER?COMMANDSHELL
  +--> ?PR?_MONIWRITEONEBUFFER?COMMANDSHELL
  +--> ?PR?_MONIWRITEASICBYTE?COMMANDSHELL
  +--> ?PR?_MONIREADASICBYTE?COMMANDSHELL
  +--> ?PR?_MONIAUDIOMIXING?COMMANDSHELL
  +--> ?PR?MONIAUDIOMUTE?COMMANDSHELL
  +--> ?PR?PCT_AUDIOREGLIST?TW28XX_AUDIO
  +--> ?PR?_MONIAUDIOGAIN?COMMANDSHELL
  +--> ?PR?_MONIAUDIOLIVE?COMMANDSHELL
  +--> ?PR?MONIREGISTERDUMP?COMMANDSHELL
  +--> ?PR?_PCT_WINATTRCLEAR?TW28XX_VIDEO
  +--> ?PR?_MONIVIDEOMIXWIN?COMMANDSHELL
  +--> ?PR?PCT_SENDACK?COMMANDSHELL
  +--> ?PR?_MONIVIDEOMIXATTR?COMMANDSHELL
  +--> ?PR?_MONIYVIDEOMIX?COMMANDSHELL
  +--> ?PR?PCT_INITIALTW2835?TW2835_INIT
  +--> ?PR?MONIVIDEOAUTODETECT?COMMANDSHELL
  +--> ?PR?_MONISETVIDEOFORMAT?COMMANDSHELL
  +--> ?PR?_MONISHOWSODSTR?COMMANDSHELL
  +--> ?PR?_MONIHSCOMM?COMMANDSHELL
  +--> ?PR?PCT_AUDIOACTIONFORHS?COMMANDSHELL
  +--> ?PR?PCT_OSDACTIONFORHS?OSDACTION
  +--> ?PR?_PCT_FLASHOSDCTRL?MAIN
  +--> ?PR?_MONIHSCOMMSJMODE?COMMANDSHELL
  +--> ?PR?MONIHSCOMMDISSCROLL?COMMANDSHELL
  +--> ?PR?MONIHSCOMMVERSION?COMMANDSHELL

?PR?COMMANDSHELL                                -----    -----      -----    -----      -----    -----
  +--> ?CO?COMMANDSHELL

?PR?_PCT_GETFIRSTSTR?COMMANDSHELL               -----    -----      -----    -----      00AAH    0006H
  +--> ?PR?COMMANDSHELL

?PR?_PCT_STRTOCOMMCODE?COMMANDSHELL             -----    -----      0031H    0002H      00AAH    0003H
  +--> ?PR?COMMANDSHELL

?PR?_MONIREADPAGEBUFFER?COMMANDSHELL            -----    -----      0027H    0003H      -----    -----
  +--> ?PR?COMMANDSHELL
  +--> ?CO?COMMANDSHELL
BL51 BANKED LINKER/LOCATER V6.22.2.0                                                  06/22/2021  15:07:28  PAGE 8


  +--> ?PR?SCANF?SCANF
  +--> ?PR?_PCT_READASICBYTE?BUSCTRL
  +--> ?PR?PRINTF?PRINTF

?PR?SCANF?SCANF                                 0023H.0  0000H.6    0031H    0005H      00AAH    0015H
  +--> ?PR?GETCHAR?UNGETCHAR
  +--> ?PR?_ISSPACE?ISSPACE
  +--> ?PR?GETCHAR?GETCHAR

?PR?GETCHAR?GETCHAR                             -----    -----      -----    -----      -----    -----
  +--> ?PR?_GETKEY?_GETKEY
  +--> ?PR?PUTCHAR?PUTCHAR

?PR?PRINTF?PRINTF                               0023H.0  0001H.1    002BH    0005H      00A4H    000FH
  +--> ?PR?PUTCHAR?PUTCHAR

?PR?_MONIREADONEBUFFER?COMMANDSHELL             -----    -----      0027H    0002H      -----    -----
  +--> ?PR?COMMANDSHELL
  +--> ?CO?COMMANDSHELL
  +--> ?PR?SCANF?SCANF
  +--> ?PR?_PCT_READASICBYTE?BUSCTRL
  +--> ?PR?PRINTF?PRINTF

?PR?_MONIWRITEONEBUFFER?COMMANDSHELL            -----    -----      0027H    0003H      -----    -----
  +--> ?PR?COMMANDSHELL
  +--> ?CO?COMMANDSHELL
  +--> ?PR?SCANF?SCANF
  +--> ?PR?_PCT_WRITEASICBYTE?BUSCTRL

?PR?_MONIWRITEASICBYTE?COMMANDSHELL             -----    -----      0027H    0004H      -----    -----
  +--> ?PR?COMMANDSHELL
  +--> ?CO?COMMANDSHELL
  +--> ?PR?SCANF?SCANF
  +--> ?PR?_PCT_WRITEASICBYTE?BUSCTRL

?PR?_MONIREADASICBYTE?COMMANDSHELL              -----    -----      0027H    0004H      -----    -----
  +--> ?PR?COMMANDSHELL
  +--> ?CO?COMMANDSHELL
  +--> ?PR?SCANF?SCANF
  +--> ?PR?_PCT_READASICBYTE?BUSCTRL
  +--> ?PR?PRINTF?PRINTF

?PR?_MONIAUDIOMIXING?COMMANDSHELL               -----    -----      0027H    000AH      00A4H    0006H
  +--> ?PR?COMMANDSHELL
  +--> ?PR?_PCT_GETFIRSTSTR?COMMANDSHELL
  +--> ?PR?_PCT_AUDIOMIXMUTE?TW28XX_AUDIO
  +--> ?PR?_ATOI?ATOI
  +--> ?PR?SCANF?SCANF
  +--> ?PR?_PCT_AUDIOMIXCTRL?TW28XX_AUDIO
  +--> ?CO?COMMANDSHELL

?PR?_PCT_AUDIOMIXMUTE?TW28XX_AUDIO              -----    -----      0031H    0001H      00AAH    0002H
  +--> ?PR?_PCT_READASICBYTE?BUSCTRL
  +--> ?PR?_PCT_WRITEASICBYTE?BUSCTRL

?PR?_ATOI?ATOI                                  0023H.0  0000H.1    -----    -----      00AAH    0005H
  +--> ?PR?_ISSPACE?ISSPACE
BL51 BANKED LINKER/LOCATER V6.22.2.0                                                  06/22/2021  15:07:28  PAGE 9


  +--> ?PR?_ISDIGIT?ISDIGIT

?PR?_PCT_AUDIOMIXCTRL?TW28XX_AUDIO              -----    -----      -----    -----      00AAH    0004H
  +--> ?PR?TW28XX_AUDIO
  +--> ?PR?_PCT_READASICBYTE?BUSCTRL
  +--> ?CO?TW28XX_AUDIO
  +--> ?PR?_PCT_WRITEASICBYTE?BUSCTRL
  +--> ?PR?_PCT_AUDIOSELLIVE?TW28XX_AUDIO

?PR?TW28XX_AUDIO                                -----    -----      -----    -----      -----    -----
  +--> ?CO?TW28XX_AUDIO

?PR?_PCT_AUDIOSELLIVE?TW28XX_AUDIO              -----    -----      -----    -----      00AEH    0001H
  +--> ?PR?_PCT_WRITEASICBYTE?BUSCTRL

?PR?MONIAUDIOMUTE?COMMANDSHELL                  -----    -----      -----    -----      -----    -----
  +--> ?PR?_PCT_AUDIOMIXMUTE?TW28XX_AUDIO
  +--> ?PR?_PCT_AUDIOSELLIVE?TW28XX_AUDIO

?PR?PCT_AUDIOREGLIST?TW28XX_AUDIO               -----    -----      -----    -----      -----    -----
  +--> ?PR?PRINTF?PRINTF
  +--> ?PR?_PCT_READASICBYTE?BUSCTRL
  +--> ?CO?TW28XX_AUDIO

?PR?_MONIAUDIOGAIN?COMMANDSHELL                 -----    -----      0027H    000AH      00A4H    0006H
  +--> ?PR?COMMANDSHELL
  +--> ?PR?_PCT_GETFIRSTSTR?COMMANDSHELL
  +--> ?PR?_ATOI?ATOI
  +--> ?PR?SCANF?SCANF
  +--> ?CO?COMMANDSHELL
  +--> ?PR?_PCT_AUDIOGAINCTRL?TW28XX_AUDIO

?PR?_PCT_AUDIOGAINCTRL?TW28XX_AUDIO             -----    -----      -----    -----      00AAH    0003H
  +--> ?PR?TW28XX_AUDIO
  +--> ?PR?_PCT_READASICBYTE?BUSCTRL
  +--> ?CO?TW28XX_AUDIO
  +--> ?PR?_PCT_WRITEASICBYTE?BUSCTRL

?PR?_MONIAUDIOLIVE?COMMANDSHELL                 -----    -----      0027H    0001H      -----    -----
  +--> ?PR?COMMANDSHELL
  +--> ?PR?SCANF?SCANF
  +--> ?PR?_PCT_AUDIOSELLIVE?TW28XX_AUDIO

?PR?MONIREGISTERDUMP?COMMANDSHELL               -----    -----      0027H    0002H      -----    -----
  +--> ?CO?COMMANDSHELL
  +--> ?PR?PRINTF?PRINTF
  +--> ?PR?_PCT_READASICBYTE?BUSCTRL

?PR?_PCT_WINATTRCLEAR?TW28XX_VIDEO              -----    -----      -----    -----      00A4H    0003H
  +--> ?PR?TW28XX_VIDEO
  +--> ?PR?_PCT_READASICBYTE?BUSCTRL
  +--> ?PR?_PCT_WRITEASICBYTE?BUSCTRL

?PR?TW28XX_VIDEO                                -----    -----      -----    -----      -----    -----
  +--> ?CO?TW28XX_VIDEO

?PR?_MONIVIDEOMIXWIN?COMMANDSHELL               -----    -----      0027H    0002H      -----    -----
BL51 BANKED LINKER/LOCATER V6.22.2.0                                                  06/22/2021  15:07:28  PAGE 10


  +--> ?PR?COMMANDSHELL
  +--> ?CO?COMMANDSHELL
  +--> ?PR?SCANF?SCANF
  +--> ?PR?_PCT_SETXVIDEOMIXING?TW28XX_VIDEO

?PR?_PCT_SETXVIDEOMIXING?TW28XX_VIDEO           -----    -----      -----    -----      00A4H    0007H
  +--> ?PR?TW28XX_VIDEO
  +--> ?PR?_PCT_WRITEASICBYTE?BUSCTRL
  +--> ?CO?TW28XX_VIDEO
  +--> ?PR?_PCT_SETCHANELSCALE?TW28XX_VIDEO
  +--> ?PR?_PCT_WRITESTABLE?BUSCTRL

?PR?_PCT_SETCHANELSCALE?TW28XX_VIDEO            -----    -----      -----    -----      00ABH    0008H
  +--> ?PR?TW28XX_VIDEO
  +--> ?CO?TW28XX_VIDEO
  +--> ?PR?_PCT_WRITEASICBYTE?BUSCTRL

?PR?_PCT_WRITESTABLE?BUSCTRL                    -----    -----      -----    -----      00ABH    0003H
  +--> ?PR?BUSCTRL
  +--> ?PR?_PCT_READASICBYTE?BUSCTRL
  +--> ?PR?_PCT_WRITEASICBYTE?BUSCTRL

?PR?PCT_SENDACK?COMMANDSHELL                    -----    -----      -----    -----      -----    -----
  +--> ?PR?_RS_TX?UART

?PR?_MONIVIDEOMIXATTR?COMMANDSHELL              -----    -----      0027H    000AH      00A4H    0006H
  +--> ?PR?COMMANDSHELL
  +--> ?PR?_ATOI?ATOI
  +--> ?PR?_PCT_STRTOCOMMCODE?COMMANDSHELL
  +--> ?CO?COMMANDSHELL
  +--> ?PR?_PCT_GETFIRSTSTR?COMMANDSHELL
  +--> ?PR?_PCT_WINATTRCTRL?TW28XX_VIDEO

?PR?_PCT_WINATTRCTRL?TW28XX_VIDEO               -----    -----      -----    -----      00AAH    0003H
  +--> ?PR?TW28XX_VIDEO
  +--> ?PR?_PCT_READASICBYTE?BUSCTRL
  +--> ?PR?_PCT_WRITEASICBYTE?BUSCTRL

?PR?_MONIYVIDEOMIX?COMMANDSHELL                 -----    -----      0027H    0001H      -----    -----
  +--> ?PR?COMMANDSHELL
  +--> ?PR?SCANF?SCANF
  +--> ?PR?_PCT_SETYVIDEOMIXING?TW28XX_VIDEO

?PR?_PCT_SETYVIDEOMIXING?TW28XX_VIDEO           -----    -----      -----    -----      -----    -----
  +--> ?CO?TW28XX_VIDEO
  +--> ?PR?_PCT_WRITESTABLE?BUSCTRL

?PR?MONIVIDEOAUTODETECT?COMMANDSHELL            -----    -----      -----    -----      -----    -----
  +--> ?PR?_PCT_DETECTVIDEOFORMAT?TW28XX_VIDEO
  +--> ?CO?COMMANDSHELL
  +--> ?PR?PRINTF?PRINTF

?PR?_MONISETVIDEOFORMAT?COMMANDSHELL            -----    -----      0027H    0008H      00A4H    0006H
  +--> ?PR?COMMANDSHELL
  +--> ?PR?_PCT_GETFIRSTSTR?COMMANDSHELL
  +--> ?PR?_ATOI?ATOI
  +--> ?CO?COMMANDSHELL
BL51 BANKED LINKER/LOCATER V6.22.2.0                                                  06/22/2021  15:07:28  PAGE 11


  +--> ?PR?_PCT_SETVIDEOFORMAT?TW28XX_VIDEO
  +--> ?PR?SCANF?SCANF

?PR?_PCT_SETVIDEOFORMAT?TW28XX_VIDEO            -----    -----      -----    -----      00AAH    0002H
  +--> ?PR?_PCT_READASICBYTE?BUSCTRL
  +--> ?PR?TW28XX_VIDEO
  +--> ?PR?_PCT_WRITEASICBYTE?BUSCTRL

?PR?_MONISHOWSODSTR?COMMANDSHELL                -----    -----      0027H    0002H      00A4H    0006H
  +--> ?PR?COMMANDSHELL
  +--> ?PR?_ATOI?ATOI
  +--> ?PR?_PCT_PRESETFOREGROUNDCOLOR?OSDCTRL
  +--> ?PR?_PCT_PRESETBACKGROUNDCOLOR?OSDCTRL
  +--> ?PR?_PCT_SETOSDDRAWPAGE?OSDCTRL
  +--> ?PR?_PCT_SHOWOSDSTRING?OSDCTRL
  +--> ?PR?_PCT_ENSHOWOSDPAGE?OSDCTRL
  +--> ?PR?_PCT_GETFIRSTSTR?COMMANDSHELL

?PR?_PCT_SHOWOSDSTRING?OSDCTRL                  -----    -----      -----    -----      00AAH    0007H
  +--> ?PR?OSDCTRL
  +--> ?PR?_STRLEN?STRLEN
  +--> ?PR?_PCT_WRITEOSDFNTX?OSDCTRL
  +--> ?PR?_PCT_WRITEOSDFNTY?OSDCTRL
  +--> ?PR?PTC_SWITCHTOI2CMODE?BUSCTRL

?PR?_PCT_WRITEOSDFNTX?OSDCTRL                   -----    -----      0029H    0003H      00B1H    0013H
  +--> ?PR?OSDCTRL
  +--> ?PR?_PCT_WRITEOSDDATABUFFERX?OSDCTRL
  +--> ?PR?_PCT_WRITEASICBYTE?BUSCTRL
  +--> ?PR?_PCT_READASICBYTE?BUSCTRL

?PR?_PCT_WRITEOSDDATABUFFERX?OSDCTRL            -----    -----      -----    -----      00C4H    0004H
  +--> ?PR?OSDCTRL
  +--> ?PR?_PCT_WRITEASICBYTE?BUSCTRL

?PR?_PCT_WRITEOSDFNTY?OSDCTRL                   -----    -----      0029H    0002H      00B1H    001FH
  +--> ?PR?OSDCTRL
  +--> ?PR?_PCT_WRITEOSDDATABUFFERY?OSDCTRL
  +--> ?PR?_PCT_WRITEASICBYTE?BUSCTRL
  +--> ?PR?_PCT_READASICBYTE?BUSCTRL

?PR?_PCT_WRITEOSDDATABUFFERY?OSDCTRL            -----    -----      -----    -----      00D0H    0004H
  +--> ?PR?OSDCTRL
  +--> ?PR?_PCT_WRITEASICBYTE?BUSCTRL

?PR?_MONIHSCOMM?COMMANDSHELL                    -----    -----      0027H    0003H      -----    -----
  +--> ?PR?COMMANDSHELL
  +--> ?CO?COMMANDSHELL
  +--> ?PR?SCANF?SCANF
  +--> ?PR?_PCT_WINATTRCTRLY?TW28XX_VIDEO
  +--> ?PR?_PCT_RECOMPENSEYHDELAY?TW28XX_VIDEO
  +--> ?PR?_PCT_SETVIDEOHDELAY?TW28XX_VIDEO
  +--> ?PR?_PCT_SETXVIDEOMIXING?TW28XX_VIDEO
  +--> ?PR?_PCT_WINATTRCTRL?TW28XX_VIDEO
  +--> ?PR?_PCT_FLASHOSDCTRL?MAIN
  +--> ?PR?_PCT_CHECKVMIXTYPE?COMMANDSHELL
  +--> ?PR?_PCT_DISSHOWOSDPAGE?OSDCTRL
BL51 BANKED LINKER/LOCATER V6.22.2.0                                                  06/22/2021  15:07:28  PAGE 12


  +--> ?PR?_PCT_CLEAROSDPAGEX?OSDCTRL
  +--> ?PR?PCT_SHOWMODEICON?OSDACTION
  +--> ?PR?_PCT_OSD_ACTIONPTHX?OSDACTION

?PR?_PCT_WINATTRCTRLY?TW28XX_VIDEO              -----    -----      -----    -----      00A4H    0003H
  +--> ?PR?TW28XX_VIDEO
  +--> ?PR?_PCT_READASICBYTE?BUSCTRL
  +--> ?PR?_PCT_WRITEASICBYTE?BUSCTRL

?PR?_PCT_RECOMPENSEYHDELAY?TW28XX_VIDEO         -----    -----      -----    -----      00A4H    0003H
  +--> ?PR?TW28XX_VIDEO
  +--> ?PR?_PCT_READASICBYTE?BUSCTRL
  +--> ?CO?TW28XX_VIDEO
  +--> ?PR?_PCT_WRITEASICBYTE?BUSCTRL

?PR?_PCT_SETVIDEOHDELAY?TW28XX_VIDEO            -----    -----      -----    -----      00A4H    0008H
  +--> ?PR?TW28XX_VIDEO
  +--> ?PR?_PCT_WRITEASICBYTE?BUSCTRL
  +--> ?PR?_PCT_READASICBYTE?BUSCTRL
  +--> ?CO?TW28XX_VIDEO

?PR?_PCT_CHECKVMIXTYPE?COMMANDSHELL             -----    -----      002AH    0001H      -----    -----
  +--> ?PR?COMMANDSHELL

?PR?_PCT_DISSHOWOSDPAGE?OSDCTRL                 -----    -----      -----    -----      00A4H    0001H
  +--> ?PR?OSDCTRL
  +--> ?PR?_PCT_READASICBYTE?BUSCTRL
  +--> ?PR?_PCT_WRITEASICBYTE?BUSCTRL

?PR?_PCT_CLEAROSDPAGEX?OSDCTRL                  -----    -----      -----    -----      -----    -----
  +--> ?PR?_PCT_SETOSDDRAWPAGE?OSDCTRL
  +--> ?PR?_PCT_PRESETBACKGROUNDCOLOR?OSDCTRL
  +--> ?PR?_PCT_FULLCOLORONOSD?OSDCTRL

?PR?PCT_SHOWMODEICON?OSDACTION                  -----    -----      -----    -----      -----    -----
  +--> ?PR?_PCT_SETOSDDRAWPAGE?OSDCTRL
  +--> ?PR?OSDACTION
  +--> ?CO?OSDACTION
  +--> ?PR?_PCT_SHOWGRAPHSTRING?OSD_GRAPH
  +--> ?PR?_PCT_PRESETBACKGROUNDCOLOR?OSDCTRL
  +--> ?PR?_PCT_PRESETFOREGROUNDCOLOR?OSDCTRL

?PR?OSDACTION                                   -----    -----      -----    -----      -----    -----
  +--> ?CO?OSDACTION

?PR?_PCT_SHOWGRAPHSTRING?OSD_GRAPH              -----    -----      -----    -----      00A7H    0007H
  +--> ?PR?OSD_GRAPH
  +--> ?PR?_STRLEN?STRLEN
  +--> ?PR?_PCT_OSD16X16GRAPHX?OSD_GRAPH
  +--> ?PR?PTC_SWITCHTOI2CMODE?BUSCTRL

?PR?_PCT_OSD16X16GRAPHX?OSD_GRAPH               -----    -----      -----    -----      00AEH    000BH
  +--> ?PR?OSD_GRAPH
  +--> ?CO?OSD_GRAPH
  +--> ?PR?_PCT_WRITEASICBYTE?BUSCTRL
  +--> ?PR?_PCT_READASICBYTE?BUSCTRL

BL51 BANKED LINKER/LOCATER V6.22.2.0                                                  06/22/2021  15:07:28  PAGE 13


?PR?_PCT_OSD_ACTIONPTHX?OSDACTION               -----    -----      -----    -----      00A4H    0003H
  +--> ?PR?OSDACTION
  +--> ?PR?_PCT_PRESETFOREGROUNDCOLOR?OSDCTRL
  +--> ?PR?_PCT_PRESETBACKGROUNDCOLOR?OSDCTRL
  +--> ?PR?_PCT_SHOWGRAPHSTRING?OSD_GRAPH

?PR?PCT_AUDIOACTIONFORHS?COMMANDSHELL           -----    -----      0027H    0002H      -----    -----
  +--> ?PR?_PCT_AUDIOSELLIVE?TW28XX_AUDIO
  +--> ?PR?_PCT_AUDIOMIXMUTE?TW28XX_AUDIO

?PR?PCT_OSDACTIONFORHS?OSDACTION                -----    -----      -----    -----      -----    -----
  +--> ?PR?_PCT_SETOSDDRAWPAGE?OSDCTRL
  +--> ?PR?OSDACTION
  +--> ?PR?_PCT_SHOWMIRRORICON?OSDACTION
  +--> ?PR?_PCT_SHOWSPEAKICON?OSDACTION
  +--> ?PR?_PCT_SHOWINDICATEICON?OSDACTION
  +--> ?PR?PCT_ENFALSHVLOSS?OSDACTION
  +--> ?PR?_PCT_ENSHOWOSDPAGE?OSDCTRL

?PR?_PCT_SHOWMIRRORICON?OSDACTION               -----    -----      -----    -----      00A4H    0003H
  +--> ?PR?OSDACTION
  +--> ?PR?_PCT_PRESETFOREGROUNDCOLOR?OSDCTRL
  +--> ?PR?_PCT_CLEARWORDSPATHX?OSDCTRL
  +--> ?PR?_PCT_SHOWGRAPHSTRING?OSD_GRAPH

?PR?_PCT_CLEARWORDSPATHX?OSDCTRL                -----    -----      -----    -----      00A7H    0007H
  +--> ?PR?OSDCTRL
  +--> ?PR?_PCT_WRITEASICBYTE?BUSCTRL
  +--> ?PR?_PCT_READASICBYTE?BUSCTRL

?PR?_PCT_SHOWSPEAKICON?OSDACTION                -----    -----      -----    -----      00A4H    0003H
  +--> ?PR?OSDACTION
  +--> ?PR?_PCT_PRESETFOREGROUNDCOLOR?OSDCTRL
  +--> ?PR?_PCT_CLEARWORDSPATHX?OSDCTRL
  +--> ?PR?_PCT_SHOWGRAPHSTRING?OSD_GRAPH

?PR?_PCT_SHOWINDICATEICON?OSDACTION             -----    -----      0027H    0001H      00A4H    0003H
  +--> ?PR?OSDACTION
  +--> ?PR?_PCT_PRESETFOREGROUNDCOLOR?OSDCTRL
  +--> ?PR?_PCT_CLEARWORDSPATHX?OSDCTRL
  +--> ?PR?_PCT_SHOWGRAPHSTRING?OSD_GRAPH
  +--> ?CO?OSDACTION

?PR?_MONIHSCOMMSJMODE?COMMANDSHELL              -----    -----      -----    -----      -----    -----
  +--> ?PR?COMMANDSHELL
  +--> ?CO?COMMANDSHELL
  +--> ?PR?SCANF?SCANF

?PR?MONIHSCOMMDISSCROLL?COMMANDSHELL            -----    -----      -----    -----      -----    -----
  +--> ?PR?_PCT_ENSHOWOSDPAGE?OSDCTRL

?PR?MONIHSCOMMVERSION?COMMANDSHELL              -----    -----      -----    -----      00A4H    0001H
  +--> ?PR?_RS_TX?UART
  +--> ?CO?COMMANDSHELL

?PR?PCT_CHECKSYSTEM?COMMANDSHELL                -----    -----      -----    -----      -----    -----
  +--> ?PR?_PCT_DETECTVIDEOFORMAT?TW28XX_VIDEO
BL51 BANKED LINKER/LOCATER V6.22.2.0                                                  06/22/2021  15:07:28  PAGE 14


  +--> ?PR?_PCT_ENSHOWOSDPAGE?OSDCTRL
  +--> ?PR?_PCT_CHANGESYSTEMTYPE?TW2835_INIT
  +--> ?PR?_PCT_RECOMPENSEYHDELAY?TW28XX_VIDEO
  +--> ?PR?COMMANDSHELL
  +--> ?PR?_PCT_SETVIDEOHDELAY?TW28XX_VIDEO
  +--> ?PR?_PCT_SETXVIDEOMIXING?TW28XX_VIDEO
  +--> ?PR?_PCT_CLEAROSDPAGEX?OSDCTRL
  +--> ?PR?PCT_SHOWMODEICON?OSDACTION
  +--> ?PR?_PCT_OSD_ACTIONPTHX?OSDACTION
  +--> ?PR?PCT_OSDACTIONFORHS?OSDACTION

?PR?_PCT_CHANGESYSTEMTYPE?TW2835_INIT           -----    -----      -----    -----      009EH    0002H
  +--> ?PR?TW2835_INIT
  +--> ?CO?TW2835_INIT
  +--> ?PR?_PCT_WRITEASICTABLE?BUSCTRL

?PR?PCT_GETVIDEOSIGNALSTATUS?OSDACTION          -----    -----      -----    -----      -----    -----
  +--> ?PR?_PCT_READASICBYTE?BUSCTRL
  +--> ?PR?_PCT_WRITEASICBYTE?BUSCTRL
  +--> ?PR?PCT_SHOWVLOSS?OSDACTION

?PR?PCT_SHOWVLOSS?OSDACTION                     -----    -----      -----    -----      -----    -----
  +--> ?PR?OSDACTION
  +--> ?PR?_PCT_SHOWGRAPHSTRING?OSD_GRAPH
  +--> ?PR?_PCT_CLEARWORDSPATHX?OSDCTRL

*** NEW ROOT ***************************************************

?PR?RS_INTERRUPT?UART                           -----    -----      -----    -----      -----    -----
  +--> ?PR?UART



SYMBOL TABLE OF MODULE:  .\OBJ\TW2835 (?C_STARTUP)

  VALUE           TYPE          NAME
  ----------------------------------

  -------         MODULE        ?C_STARTUP
  C:81D6H         SEGMENT       ?C_C51STARTUP
  I:0036H         SEGMENT       ?STACK
  C:0000H         PUBLIC        ?C_STARTUP
  D:00E0H         SYMBOL        ACC
  D:00F0H         SYMBOL        B
  D:0083H         SYMBOL        DPH
  D:0082H         SYMBOL        DPL
  N:0000H         SYMBOL        IBPSTACK
  N:0100H         SYMBOL        IBPSTACKTOP
  N:0080H         SYMBOL        IDATALEN
  C:81D9H         SYMBOL        IDATALOOP
  N:0000H         SYMBOL        PBPSTACK
  N:0100H         SYMBOL        PBPSTACKTOP
  N:0000H         SYMBOL        PDATALEN
  N:0000H         SYMBOL        PDATASTART
  N:0000H         SYMBOL        PPAGE
  N:0000H         SYMBOL        PPAGEENABLE
  D:00A0H         SYMBOL        PPAGE_SFR
BL51 BANKED LINKER/LOCATER V6.22.2.0                                                  06/22/2021  15:07:28  PAGE 15


  D:0081H         SYMBOL        SP
  C:81D6H         SYMBOL        STARTUP1
  N:0000H         SYMBOL        XBPSTACK
  N:0000H         SYMBOL        XBPSTACKTOP
  N:0000H         SYMBOL        XDATALEN
  N:0000H         SYMBOL        XDATASTART
  C:0000H         LINE#         126
  C:81D6H         LINE#         133
  C:81D8H         LINE#         134
  C:81D9H         LINE#         135
  C:81DAH         LINE#         136
  C:81DCH         LINE#         185
  C:81DFH         LINE#         196
  -------         ENDMOD        ?C_STARTUP

  -------         MODULE        UART
  C:0000H         SYMBOL        _ICE_DUMMY_
  D:0090H         PUBLIC        P1
  D:00B0H         PUBLIC        P3
  C:9154H         PUBLIC        InitialUART
  D:00A8H         PUBLIC        IE
  X:0000H         PUBLIC        RS_RECVBUF
  B:00A8H.4       PUBLIC        ES
  D:00B8H         PUBLIC        IP
  B:0098H.0       PUBLIC        RI
  B:0098H.1       PUBLIC        TI
  B:00B8H.4       PUBLIC        PS
  D:00D8H         PUBLIC        CCON
  D:0099H         PUBLIC        SBUF
  D:00C0H         PUBLIC        WDTC
  D:0098H         PUBLIC        SCON
  D:0088H         PUBLIC        TCON
  C:9164H         PUBLIC        RS_RxReady
  D:008DH         PUBLIC        TH1
  D:00E8H         PUBLIC        IEA
  X:0050H         PUBLIC        RsRxRp
  B:0088H.6       PUBLIC        TR1
  X:0051H         PUBLIC        RsRxWp
  D:00F8H         PUBLIC        IPA
  D:00C8H         PUBLIC        T2CON
  C:908BH         PUBLIC        RS_rx
  C:0003H         PUBLIC        _RS_tx
  C:8F8EH         PUBLIC        RS_interrupt
  D:00D0H         PUBLIC        PSW
  C:91A0H         SYMBOL        Com000E
  C:91A0H         SYMBOL        L?0015
  -------         PROC          COM000E
  -------         ENDPROC       COM000E
  -------         PROC          INITIALUART
  C:9154H         LINE#         66
  C:9154H         LINE#         67
  C:9154H         LINE#         69
  C:9156H         LINE#         70
  C:9158H         LINE#         77
  C:915BH         LINE#         84
  C:915DH         LINE#         86
  C:9161H         LINE#         87
BL51 BANKED LINKER/LOCATER V6.22.2.0                                                  06/22/2021  15:07:28  PAGE 16


  C:9163H         LINE#         88
  -------         ENDPROC       INITIALUART
  -------         PROC          RS_RXREADY
  C:9164H         LINE#         94
  C:9164H         LINE#         95
  C:9164H         LINE#         96
  C:9170H         LINE#         97
  C:9172H         LINE#         98
  -------         ENDPROC       RS_RXREADY
  -------         PROC          RS_RX
  -------         DO            
  D:0007H         SYMBOL        ret
  -------         ENDDO         
  C:908BH         LINE#         104
  C:908BH         LINE#         105
  C:908BH         LINE#         108
  C:908DH         LINE#         112
  C:9095H         LINE#         113
  C:9097H         LINE#         114
  C:909CH         LINE#         115
  C:909EH         LINE#         116
  C:90A0H         LINE#         118
  C:90A0H         LINE#         119
  -------         ENDPROC       RS_RX
  -------         PROC          _RS_TX
  D:0007H         SYMBOL        tx_buf
  C:0003H         LINE#         125
  C:0003H         LINE#         126
  C:0003H         LINE#         127
  C:0003H         LINE#         128
  C:0006H         LINE#         129
  C:0008H         LINE#         130
  C:000AH         LINE#         131
  C:000AH         LINE#         132
  C:000AH         LINE#         133
  C:000AH         LINE#         134
  -------         ENDPROC       _RS_TX
  -------         PROC          RS_INTERRUPT
  C:8F8EH         LINE#         140
  C:8F95H         LINE#         142
  C:8F98H         LINE#         143
  C:8F9AH         LINE#         147
  C:8FA3H         LINE#         148
  C:8FA5H         LINE#         149
  C:8FACH         LINE#         161
  C:8FACH         LINE#         162
  -------         ENDPROC       RS_INTERRUPT
  -------         ENDMOD        UART

  -------         MODULE        BUSCTRL
  C:0000H         SYMBOL        _ICE_DUMMY_
  D:0080H         PUBLIC        P0
  D:0090H         PUBLIC        P1
  D:00B0H         PUBLIC        P3
  B:00A8H.7       PUBLIC        EA
  D:00A8H         PUBLIC        IE
  C:900DH         PUBLIC        _PCT_PageChange
BL51 BANKED LINKER/LOCATER V6.22.2.0                                                  06/22/2021  15:07:28  PAGE 17


  C:85E2H         PUBLIC        _PCT_WriteSTable
  D:00B8H         PUBLIC        IP
  B:0090H.3       PUBLIC        HALE
  B:0090H.2       PUBLIC        HRDB
  D:00D8H         PUBLIC        CCON
  D:00C0H         PUBLIC        WDTC
  B:0090H.1       PUBLIC        HWRB
  D:0098H         PUBLIC        SCON
  D:0088H         PUBLIC        TCON
  C:8BE5H         PUBLIC        _PCT_WriteAsicTable
  C:91F9H         PUBLIC        PTC_SwitchToI2CMode
  D:00E8H         PUBLIC        IEA
  B:00B0H.6       PUBLIC        HCSB0
  B:00B0H.7       PUBLIC        HCSB1
  D:00F8H         PUBLIC        IPA
  C:9028H         PUBLIC        _PCT_ReadAsicByte
  D:00C8H         PUBLIC        T2CON
  C:9109H         PUBLIC        _PCT_WriteAsicByte
  D:00D0H         PUBLIC        PSW
  C:8EA4H         SYMBOL        Com000E
  C:8EA4H         SYMBOL        L?0015
  C:8EA4H         SYMBOL        L?0016
  C:8EAFH         SYMBOL        L?0017
  C:8EB8H         SYMBOL        L?0018
  C:8EBFH         SYMBOL        L?0019
  C:8EC3H         SYMBOL        L?0020
  -------         PROC          COM000E
  -------         ENDPROC       COM000E
  -------         PROC          _PCT_PAGECHANGE
  D:0007H         SYMBOL        _pg
  -------         DO            
  X:00D8H         SYMBOL        _dvc
  D:0006H         SYMBOL        _addr
  -------         ENDDO         
  C:900DH         LINE#         64
  C:900DH         LINE#         65
  C:900DH         LINE#         66
  C:9011H         LINE#         67
  C:9013H         LINE#         69
  C:9015H         LINE#         71
  C:9018H         LINE#         75
  C:901AH         LINE#         76
  C:901CH         LINE#         78
  C:901EH         LINE#         79
  C:9020H         LINE#         80
  C:9022H         LINE#         81
  C:9024H         LINE#         82
  C:9024H         LINE#         83
  C:9024H         LINE#         85
  C:9024H         LINE#         88
  C:9024H         LINE#         89
  C:9027H         LINE#         90
  -------         ENDPROC       _PCT_PAGECHANGE
  -------         PROC          _PCT_WRITEASICBYTE
  D:0007H         SYMBOL        _dvc
  D:0005H         SYMBOL        _pg
  D:0003H         SYMBOL        _addr
BL51 BANKED LINKER/LOCATER V6.22.2.0                                                  06/22/2021  15:07:28  PAGE 18


  X:00D7H         SYMBOL        _wdat
  C:9109H         LINE#         92
  C:9109H         LINE#         93
  C:9109H         LINE#         94
  C:9109H         LINE#         96
  C:910BH         LINE#         100
  C:9110H         LINE#         101
  C:9110H         LINE#         102
  C:9110H         LINE#         105
  C:9110H         LINE#         111
  C:9110H         LINE#         112
  C:9110H         LINE#         113
  C:9113H         LINE#         114
  C:9118H         LINE#         115
  C:9118H         LINE#         116
  C:9118H         LINE#         118
  C:9118H         LINE#         121
  C:9118H         LINE#         122
  C:911BH         LINE#         123
  -------         ENDPROC       _PCT_WRITEASICBYTE
  -------         PROC          _PCT_WRITEASICTABLE
  D:0007H         SYMBOL        _dvc
  D:0005H         SYMBOL        _pg
  D:0004H         SYMBOL        _addr
  X:00A9H         SYMBOL        _tbl_ptr
  X:00ACH         SYMBOL        _tbl_cnt
  C:8BE5H         LINE#         129
  C:8BE7H         LINE#         130
  C:8BE7H         LINE#         131
  C:8BE7H         LINE#         133
  C:8BE9H         LINE#         138
  C:8BEEH         LINE#         139
  C:8BF0H         LINE#         140
  C:8BF2H         LINE#         143
  C:8BF5H         LINE#         153
  C:8BF5H         LINE#         154
  C:8BF8H         LINE#         156
  C:8BF8H         LINE#         159
  C:8BFBH         LINE#         161
  C:8C11H         LINE#         162
  C:8C13H         LINE#         165
  C:8C15H         LINE#         166
  C:8C1CH         LINE#         170
  C:8C1CH         LINE#         175
  C:8C1CH         LINE#         177
  C:8C1FH         LINE#         178
  -------         ENDPROC       _PCT_WRITEASICTABLE
  -------         PROC          _PCT_READASICBYTE
  D:0004H         SYMBOL        _dvc
  D:0005H         SYMBOL        _pg
  D:0003H         SYMBOL        _addr
  -------         DO            
  D:0007H         SYMBOL        _rdat_
  -------         ENDDO         
  C:9028H         LINE#         185
  C:902AH         LINE#         186
  C:902AH         LINE#         189
BL51 BANKED LINKER/LOCATER V6.22.2.0                                                  06/22/2021  15:07:28  PAGE 19


  C:902CH         LINE#         191
  C:9031H         LINE#         192
  C:9031H         LINE#         193
  C:9031H         LINE#         197
  C:9031H         LINE#         199
  C:9031H         LINE#         204
  C:9031H         LINE#         205
  C:9031H         LINE#         206
  C:9034H         LINE#         207
  C:9037H         LINE#         208
  C:9039H         LINE#         209
  C:903BH         LINE#         210
  C:903DH         LINE#         212
  C:9040H         LINE#         215
  C:9042H         LINE#         216
  C:9042H         LINE#         217
  -------         ENDPROC       _PCT_READASICBYTE
  -------         PROC          _PCT_WRITESTABLE
  D:0007H         SYMBOL        _dvc
  X:00ABH         SYMBOL        _tbl_ptr
  C:85E2H         LINE#         224
  C:85ECH         LINE#         225
  C:85ECH         LINE#         229
  C:85ECH         LINE#         230
  C:85FAH         LINE#         231
  C:8617H         LINE#         232
  C:8617H         LINE#         233
  C:862BH         LINE#         234
  C:862BH         LINE#         235
  C:8636H         LINE#         236
  C:8638H         LINE#         237
  -------         ENDPROC       _PCT_WRITESTABLE
  -------         PROC          PTC_SWITCHTOI2CMODE
  C:91F9H         LINE#         243
  C:91F9H         LINE#         244
  C:91F9H         LINE#         254
  -------         ENDPROC       PTC_SWITCHTOI2CMODE
  -------         ENDMOD        BUSCTRL

  -------         MODULE        COMMANDSHELL
  C:0000H         SYMBOL        _ICE_DUMMY_
  D:0090H         PUBLIC        P1
  D:00B0H         PUBLIC        P3
  C:90A1H         PUBLIC        _MoniHSCommSJmode
  C:8D95H         PUBLIC        MoniVideoAutoDetect
  C:6068H         PUBLIC        _PCT_RunCommShell
  C:7448H         PUBLIC        _MoniAudioGain
  D:00A8H         PUBLIC        IE
  C:8D2FH         PUBLIC        _MoniReadOneBuffer
  D:00B8H         PUBLIC        IP
  C:9142H         PUBLIC        _MoniYVideoMix
  X:0052H         PUBLIC        sysdat
  C:90CDH         PUBLIC        _MoniAudioLive
  D:00D8H         PUBLIC        CCON
  C:9173H         PUBLIC        PCT_SendACK
  C:8D62H         PUBLIC        _MoniWriteOneBuffer
  C:9182H         PUBLIC        MoniAudioMute
BL51 BANKED LINKER/LOCATER V6.22.2.0                                                  06/22/2021  15:07:28  PAGE 20


  C:8E27H         PUBLIC        MoniHSCommVersion
  C:7A2DH         PUBLIC        _MoniSetVideoFormat
  C:8910H         PUBLIC        _MoniReadAsicByte
  C:8344H         PUBLIC        _PCT_GetFirstStr
  C:82D9H         PUBLIC        PCT_CheckSystem
  D:00C0H         PUBLIC        WDTC
  D:0098H         PUBLIC        SCON
  D:0088H         PUBLIC        TCON
  C:8879H         PUBLIC        _MoniWriteAsicByte
  C:7585H         PUBLIC        _MoniHSComm
  X:0063H         PUBLIC        msg
  D:00E8H         PUBLIC        IEA
  C:8B6BH         PUBLIC        _PCT_StrToCommCode
  C:8A68H         PUBLIC        _PCT_CheckVMixType
  C:91E9H         PUBLIC        MoniHSCommDisScroll
  D:00F8H         PUBLIC        IPA
  C:84CFH         PUBLIC        _MoniShowSODStr
  C:657CH         PUBLIC        _MoniVideoMixAttr
  C:8AA9H         PUBLIC        PCT_AudioActionForHS
  D:00C8H         PUBLIC        T2CON
  C:8639H         PUBLIC        _MoniVideoMixWin
  C:89E3H         PUBLIC        _MoniReadPageBuffer
  X:00D9H         PUBLIC        Original_selwintype
  C:882AH         PUBLIC        MoniRegisterDump
  D:00D0H         PUBLIC        PSW
  C:6E75H         PUBLIC        _MoniAudioMixing
  C:678CH         SYMBOL        Com00E5
  C:678CH         SYMBOL        L?0230
  C:678DH         SYMBOL        L?0231
  C:67C3H         SYMBOL        L?0232
  C:67CAH         SYMBOL        L?0233
  C:67CBH         SYMBOL        L?0234
  C:6801H         SYMBOL        L?0235
  C:6808H         SYMBOL        L?0236
  C:6808H         SYMBOL        L?0237
  C:680AH         SYMBOL        L?0238
  C:6813H         SYMBOL        L?0239
  C:6814H         SYMBOL        L?0240
  C:6834H         SYMBOL        L?0241
  C:683BH         SYMBOL        L?0242
  C:683BH         SYMBOL        L?0243
  C:6846H         SYMBOL        L?0244
  C:684DH         SYMBOL        L?0245
  C:685DH         SYMBOL        L?0246
  C:6864H         SYMBOL        L?0247
  C:6874H         SYMBOL        L?0248
  C:687BH         SYMBOL        L?0249
  C:688BH         SYMBOL        L?0250
  C:6892H         SYMBOL        L?0251
  C:689DH         SYMBOL        L?0252
  C:68A4H         SYMBOL        L?0253
  C:68AFH         SYMBOL        L?0254
  C:68B6H         SYMBOL        L?0255
  C:68BBH         SYMBOL        L?0256
  C:68C2H         SYMBOL        L?0257
  C:68C7H         SYMBOL        L?0258
  C:68CEH         SYMBOL        L?0260
BL51 BANKED LINKER/LOCATER V6.22.2.0                                                  06/22/2021  15:07:28  PAGE 21


  C:68DAH         SYMBOL        L?0261
  C:68DBH         SYMBOL        L?0262
  C:68E2H         SYMBOL        L?0264
  C:68E2H         SYMBOL        L?0265
  C:68EAH         SYMBOL        L?0266
  C:68F1H         SYMBOL        L?0267
  C:68F8H         SYMBOL        L?0271
  C:68F8H         SYMBOL        L?0272
  C:68FFH         SYMBOL        L?0273
  C:6906H         SYMBOL        L?0277
  C:690DH         SYMBOL        L?0280
  C:6914H         SYMBOL        L?0285
  C:691BH         SYMBOL        L?0287
  C:692AH         SYMBOL        L?0288
  C:6931H         SYMBOL        L?0291
  C:6938H         SYMBOL        L?0294
  C:693FH         SYMBOL        L?0298
  C:693FH         SYMBOL        L?0299
  C:6940H         SYMBOL        L?0300
  C:6948H         SYMBOL        L?0301
  C:6948H         SYMBOL        L?0302
  C:6952H         SYMBOL        L?0304
  C:6959H         SYMBOL        L?0305
  C:695AH         SYMBOL        L?0306
  C:6961H         SYMBOL        L?0307
  C:6961H         SYMBOL        L?0308
  C:6968H         SYMBOL        L?0310
  C:6968H         SYMBOL        L?0311
  C:6971H         SYMBOL        L?0312
  C:697EH         SYMBOL        L?0315
  C:698AH         SYMBOL        L?0317
  C:698AH         SYMBOL        L?0318
  C:6990H         SYMBOL        L?0319
  -------         PROC          COM00E5
  -------         ENDPROC       COM00E5
  -------         PROC          _PCT_GETFIRSTSTR
  X:00AAH         SYMBOL        tagStr
  X:00ADH         SYMBOL        sourceStr
  C:8344H         LINE#         103
  C:8349H         LINE#         104
  C:8349H         LINE#         105
  C:8354H         LINE#         106
  C:8369H         LINE#         107
  C:837FH         LINE#         108
  C:8381H         LINE#         109
  C:8381H         LINE#         110
  C:838DH         LINE#         111
  C:8391H         LINE#         112
  C:8399H         LINE#         113
  C:839CH         LINE#         114
  C:839FH         LINE#         115
  C:83A2H         LINE#         116
  C:83AAH         LINE#         117
  -------         ENDPROC       _PCT_GETFIRSTSTR
  -------         PROC          _PCT_STRTOCOMMCODE
  X:00AAH         SYMBOL        Str
  -------         DO            
BL51 BANKED LINKER/LOCATER V6.22.2.0                                                  06/22/2021  15:07:28  PAGE 22


  D:0031H         SYMBOL        ret
  -------         ENDDO         
  C:8B6BH         LINE#         124
  C:8B70H         LINE#         125
  C:8B70H         LINE#         126
  C:8B75H         LINE#         128
  C:8BA4H         LINE#         129
  C:8BA8H         LINE#         130
  -------         ENDPROC       _PCT_STRTOCOMMCODE
  -------         PROC          PCT_SENDACK
  C:9173H         LINE#         136
  C:9173H         LINE#         137
  C:9173H         LINE#         138
  C:9178H         LINE#         139
  C:917DH         LINE#         140
  -------         ENDPROC       PCT_SENDACK
  -------         PROC          _PCT_CHECKVMIXTYPE
  D:0007H         SYMBOL        _typ
  -------         DO            
  D:002AH         SYMBOL        tmplktp
  -------         ENDDO         
  C:8A68H         LINE#         147
  C:8A68H         LINE#         148
  C:8A68H         LINE#         149
  C:8A6BH         LINE#         151
  C:8A70H         LINE#         152
  C:8A77H         LINE#         153
  C:8A7DH         LINE#         154
  C:8A89H         LINE#         156
  C:8A95H         LINE#         157
  C:8A9AH         LINE#         159
  C:8A9AH         LINE#         160
  C:8A9FH         LINE#         161
  C:8AA4H         LINE#         162
  C:8AA8H         LINE#         163
  -------         ENDPROC       _PCT_CHECKVMIXTYPE
  -------         PROC          _MONIREADPAGEBUFFER
  D:0001H         SYMBOL        szParam
  -------         DO            
  D:0027H         SYMBOL        page
  D:0028H         SYMBOL        start
  D:0029H         SYMBOL        end
  -------         ENDDO         
  C:89E3H         LINE#         173
  C:89E3H         LINE#         174
  C:89E3H         LINE#         177
  C:8A08H         LINE#         179
  C:8A08H         LINE#         180
  C:8A1EH         LINE#         181
  C:8A20H         LINE#         182
  C:8A25H         LINE#         183
  -------         ENDPROC       _MONIREADPAGEBUFFER
  -------         PROC          _MONIREADONEBUFFER
  D:0001H         SYMBOL        szParam
  -------         DO            
  D:0027H         SYMBOL        page
  D:0028H         SYMBOL        addr
BL51 BANKED LINKER/LOCATER V6.22.2.0                                                  06/22/2021  15:07:28  PAGE 23


  -------         ENDDO         
  C:8D2FH         LINE#         189
  C:8D2FH         LINE#         190
  C:8D2FH         LINE#         193
  C:8D4CH         LINE#         195
  -------         ENDPROC       _MONIREADONEBUFFER
  -------         PROC          _MONIWRITEONEBUFFER
  D:0001H         SYMBOL        szParam
  -------         DO            
  D:0027H         SYMBOL        page
  D:0028H         SYMBOL        addr
  D:0029H         SYMBOL        dat
  -------         ENDDO         
  C:8D62H         LINE#         202
  C:8D62H         LINE#         203
  C:8D62H         LINE#         206
  C:8D87H         LINE#         207
  -------         ENDPROC       _MONIWRITEONEBUFFER
  -------         PROC          _MONIWRITEASICBYTE
  D:0001H         SYMBOL        szParam
  -------         DO            
  D:0027H         SYMBOL        _dev
  D:0028H         SYMBOL        _pg
  D:0029H         SYMBOL        _addr
  D:002AH         SYMBOL        _wdat
  -------         ENDDO         
  C:8879H         LINE#         214
  C:8879H         LINE#         215
  C:8879H         LINE#         216
  C:887CH         LINE#         217
  C:887EH         LINE#         218
  C:8880H         LINE#         219
  C:8882H         LINE#         221
  C:88B7H         LINE#         222
  -------         ENDPROC       _MONIWRITEASICBYTE
  -------         PROC          _MONIREADASICBYTE
  D:0001H         SYMBOL        szParam
  -------         DO            
  D:0027H         SYMBOL        _dev
  D:0028H         SYMBOL        _pg
  D:0029H         SYMBOL        _addr
  D:002AH         SYMBOL        _rdat
  -------         ENDDO         
  C:8910H         LINE#         229
  C:8910H         LINE#         230
  C:8910H         LINE#         231
  C:8913H         LINE#         232
  C:8915H         LINE#         233
  C:8917H         LINE#         234
  C:8919H         LINE#         236
  C:893EH         LINE#         237
  C:8949H         LINE#         238
  -------         ENDPROC       _MONIREADASICBYTE
  C:6FB0H         SYMBOL        L?0268
  C:6FC6H         SYMBOL        L?0281
  C:6FDCH         SYMBOL        L?0284
  -------         PROC          _MONIAUDIOMIXING
BL51 BANKED LINKER/LOCATER V6.22.2.0                                                  06/22/2021  15:07:28  PAGE 24


  X:00A4H         SYMBOL        szParam
  -------         DO            
  D:0027H         SYMBOL        selch0
  D:0028H         SYMBOL        selch1
  D:0029H         SYMBOL        selch2
  D:002AH         SYMBOL        selch3
  D:002BH         SYMBOL        selch4
  D:002CH         SYMBOL        valch0
  D:002DH         SYMBOL        valch1
  D:002EH         SYMBOL        valch2
  D:002FH         SYMBOL        valch3
  D:0030H         SYMBOL        valch4
  X:00A7H         SYMBOL        getStr
  C:6063H         SYMBOL        chaddr
  -------         ENDDO         
  C:6E75H         LINE#         246
  C:6E77H         LINE#         247
  C:6E77H         LINE#         258
  C:6E8AH         LINE#         260
  C:6E92H         LINE#         266
  C:6EBBH         LINE#         267
  C:6EBBH         LINE#         268
  C:6ED0H         LINE#         269
  C:6ED9H         LINE#         270
  C:6EDFH         LINE#         271
  C:6EE2H         LINE#         273
  C:6EE2H         LINE#         274
  C:6F04H         LINE#         276
  C:6F04H         LINE#         277
  C:6F07H         LINE#         278
  C:6F0AH         LINE#         279
  C:6F0DH         LINE#         281
  C:6F0DH         LINE#         282
  C:6F24H         LINE#         284
  C:6F24H         LINE#         285
  C:6F27H         LINE#         286
  C:6F2BH         LINE#         287
  C:6F2EH         LINE#         288
  C:6F31H         LINE#         290
  C:6F31H         LINE#         291
  C:6F4BH         LINE#         293
  C:6F4BH         LINE#         294
  C:6F4BH         LINE#         295
  C:6F4BH         LINE#         296
  C:6F4EH         LINE#         298
  C:6F56H         LINE#         299
  C:6F59H         LINE#         301
  C:6F59H         LINE#         302
  C:6F84H         LINE#         304
  C:6F84H         LINE#         305
  C:6F84H         LINE#         306
  C:6F84H         LINE#         307
  C:6F8CH         LINE#         308
  C:6F95H         LINE#         310
  C:6FAFH         LINE#         311
  C:6FAFH         LINE#         313
  C:6FAFH         LINE#         314
BL51 BANKED LINKER/LOCATER V6.22.2.0                                                  06/22/2021  15:07:28  PAGE 25


  C:6FAFH         LINE#         315
  C:6FAFH         LINE#         316
  -------         ENDPROC       _MONIAUDIOMIXING
  -------         PROC          MONIAUDIOMUTE
  C:9182H         LINE#         323
  C:9182H         LINE#         324
  C:9182H         LINE#         325
  C:918AH         LINE#         330
  -------         ENDPROC       MONIAUDIOMUTE
  C:7550H         SYMBOL        L?0276
  C:756AH         SYMBOL        L?0303
  C:757BH         SYMBOL        L?0320
  -------         PROC          _MONIAUDIOGAIN
  X:00A4H         SYMBOL        szParam
  -------         DO            
  D:0027H         SYMBOL        selch0
  D:0028H         SYMBOL        selch1
  D:0029H         SYMBOL        selch2
  D:002AH         SYMBOL        selch3
  D:002BH         SYMBOL        selch4
  D:002CH         SYMBOL        ch0val
  D:002DH         SYMBOL        ch1val
  D:002EH         SYMBOL        ch2val
  D:002FH         SYMBOL        ch3val
  D:0030H         SYMBOL        ch4val
  X:00A7H         SYMBOL        getStr
  -------         ENDDO         
  C:7448H         LINE#         338
  C:744AH         LINE#         339
  C:744AH         LINE#         344
  C:745DH         LINE#         346
  C:7483H         LINE#         347
  C:7483H         LINE#         348
  C:7498H         LINE#         349
  C:749CH         LINE#         350
  C:749FH         LINE#         352
  C:749FH         LINE#         353
  C:74C1H         LINE#         355
  C:74C1H         LINE#         356
  C:74C4H         LINE#         357
  C:74C7H         LINE#         359
  C:74C7H         LINE#         360
  C:74DEH         LINE#         362
  C:74DEH         LINE#         363
  C:74DEH         LINE#         364
  C:74E1H         LINE#         365
  C:74E4H         LINE#         367
  C:74E4H         LINE#         368
  C:74FEH         LINE#         370
  C:74FEH         LINE#         371
  C:74FEH         LINE#         372
  C:7501H         LINE#         373
  C:7504H         LINE#         374
  C:7507H         LINE#         376
  C:7507H         LINE#         377
  C:7532H         LINE#         379
  C:7532H         LINE#         380
BL51 BANKED LINKER/LOCATER V6.22.2.0                                                  06/22/2021  15:07:28  PAGE 26


  C:753AH         LINE#         381
  C:753EH         LINE#         382
  C:7546H         LINE#         383
  C:754FH         LINE#         384
  C:754FH         LINE#         386
  C:754FH         LINE#         387
  C:754FH         LINE#         388
  C:754FH         LINE#         389
  -------         ENDPROC       _MONIAUDIOGAIN
  -------         PROC          _MONIAUDIOLIVE
  D:0001H         SYMBOL        szParam
  -------         DO            
  D:0027H         SYMBOL        chan
  -------         ENDDO         
  C:90CDH         LINE#         396
  C:90CDH         LINE#         397
  C:90CDH         LINE#         400
  C:90DAH         LINE#         402
  -------         ENDPROC       _MONIAUDIOLIVE
  -------         PROC          MONIREGISTERDUMP
  -------         DO            
  D:0027H         SYMBOL        addr
  D:0028H         SYMBOL        page
  -------         ENDDO         
  C:882AH         LINE#         409
  C:882AH         LINE#         410
  C:882AH         LINE#         414
  C:8838H         LINE#         415
  C:8846H         LINE#         416
  C:8849H         LINE#         417
  C:8849H         LINE#         418
  C:885FH         LINE#         419
  C:8861H         LINE#         420
  C:8870H         LINE#         421
  C:8874H         LINE#         422
  C:8878H         LINE#         423
  -------         ENDPROC       MONIREGISTERDUMP
  -------         PROC          _MONIVIDEOMIXWIN
  D:0001H         SYMBOL        szParam
  -------         DO            
  D:0027H         SYMBOL        chose
  D:0028H         SYMBOL        wintp
  -------         ENDDO         
  C:8639H         LINE#         429
  C:8639H         LINE#         430
  C:8639H         LINE#         433
  C:867BH         LINE#         435
  C:8688H         LINE#         436
  -------         ENDPROC       _MONIVIDEOMIXWIN
  C:674AH         SYMBOL        L?0275
  C:6751H         SYMBOL        L?0279
  C:6758H         SYMBOL        L?0283
  C:675FH         SYMBOL        L?0289
  C:6766H         SYMBOL        L?0290
  C:6777H         SYMBOL        L?0293
  C:677EH         SYMBOL        L?0296
  C:6785H         SYMBOL        L?0313
BL51 BANKED LINKER/LOCATER V6.22.2.0                                                  06/22/2021  15:07:28  PAGE 27


  -------         PROC          _MONIVIDEOMIXATTR
  X:00A4H         SYMBOL        szParam
  -------         DO            
  D:0027H         SYMBOL        chose
  D:0029H         SYMBOL        attrsel
  D:002AH         SYMBOL        setval
  D:002BH         SYMBOL        winNm
  D:002FH         SYMBOL        wincnt
  D:0030H         SYMBOL        division
  X:00A7H         SYMBOL        getStr
  -------         ENDDO         
  C:657CH         LINE#         443
  C:6581H         LINE#         444
  C:6581H         LINE#         447
  C:6584H         LINE#         451
  C:658AH         LINE#         452
  C:6594H         LINE#         454
  C:659AH         LINE#         455
  C:65A6H         LINE#         457
  C:65B4H         LINE#         458
  C:65B7H         LINE#         459
  C:65B7H         LINE#         460
  C:65C8H         LINE#         461
  C:65CBH         LINE#         462
  C:65CBH         LINE#         463
  C:65DCH         LINE#         464
  C:65DFH         LINE#         465
  C:65DFH         LINE#         466
  C:65EFH         LINE#         467
  C:65F2H         LINE#         468
  C:65F2H         LINE#         469
  C:6602H         LINE#         470
  C:6605H         LINE#         471
  C:6605H         LINE#         472
  C:6615H         LINE#         473
  C:6618H         LINE#         474
  C:6618H         LINE#         475
  C:6628H         LINE#         476
  C:662BH         LINE#         477
  C:662BH         LINE#         478
  C:663BH         LINE#         479
  C:663EH         LINE#         480
  C:6641H         LINE#         481
  C:6652H         LINE#         482
  C:6655H         LINE#         483
  C:6655H         LINE#         484
  C:6666H         LINE#         485
  C:6669H         LINE#         486
  C:6669H         LINE#         487
  C:6679H         LINE#         488
  C:667CH         LINE#         489
  C:667CH         LINE#         490
  C:668CH         LINE#         491
  C:668FH         LINE#         492
  C:668FH         LINE#         493
  C:669FH         LINE#         494
  C:66A2H         LINE#         495
BL51 BANKED LINKER/LOCATER V6.22.2.0                                                  06/22/2021  15:07:28  PAGE 28


  C:66A2H         LINE#         496
  C:66B2H         LINE#         497
  C:66B5H         LINE#         498
  C:66B5H         LINE#         499
  C:66C8H         LINE#         500
  C:66CBH         LINE#         501
  C:66CEH         LINE#         502
  C:66E3H         LINE#         503
  C:66E6H         LINE#         504
  C:66E8H         LINE#         505
  C:66E8H         LINE#         507
  C:66E8H         LINE#         509
  C:66FEH         LINE#         510
  C:671BH         LINE#         511
  C:671BH         LINE#         512
  C:672CH         LINE#         513
  C:672EH         LINE#         514
  C:672EH         LINE#         515
  C:6730H         LINE#         516
  C:6734H         LINE#         517
  C:673EH         LINE#         518
  C:6745H         LINE#         519
  C:6745H         LINE#         520
  C:6749H         LINE#         521
  -------         ENDPROC       _MONIVIDEOMIXATTR
  -------         PROC          _MONIYVIDEOMIX
  D:0001H         SYMBOL        szParam
  -------         DO            
  D:0027H         SYMBOL        chan
  -------         ENDDO         
  C:9142H         LINE#         528
  C:9142H         LINE#         529
  C:9142H         LINE#         532
  C:914FH         LINE#         533
  -------         ENDPROC       _MONIYVIDEOMIX
  -------         PROC          MONIVIDEOAUTODETECT
  C:8D95H         LINE#         540
  C:8D95H         LINE#         541
  C:8D95H         LINE#         542
  -------         ENDPROC       MONIVIDEOAUTODETECT
  C:7B1AH         SYMBOL        L?0270
  C:7B38H         SYMBOL        L?0316
  -------         PROC          _MONISETVIDEOFORMAT
  X:00A4H         SYMBOL        szParam
  -------         DO            
  D:0027H         SYMBOL        selch0
  D:0028H         SYMBOL        selch1
  D:0029H         SYMBOL        selch2
  D:002AH         SYMBOL        selch3
  D:002BH         SYMBOL        valch0
  D:002CH         SYMBOL        valch1
  D:002DH         SYMBOL        valch2
  D:002EH         SYMBOL        valch3
  X:00A7H         SYMBOL        getStr
  -------         ENDDO         
  C:7A2DH         LINE#         554
  C:7A2FH         LINE#         555
BL51 BANKED LINKER/LOCATER V6.22.2.0                                                  06/22/2021  15:07:28  PAGE 29


  C:7A2FH         LINE#         560
  C:7A42H         LINE#         562
  C:7A62H         LINE#         563
  C:7A62H         LINE#         564
  C:7A79H         LINE#         565
  C:7A7CH         LINE#         566
  C:7A7FH         LINE#         568
  C:7A7FH         LINE#         569
  C:7A96H         LINE#         571
  C:7A9EH         LINE#         572
  C:7AA6H         LINE#         573
  C:7AA9H         LINE#         575
  C:7AA9H         LINE#         576
  C:7AC3H         LINE#         578
  C:7AC3H         LINE#         579
  C:7AC6H         LINE#         580
  C:7ACEH         LINE#         581
  C:7AD1H         LINE#         583
  C:7AD1H         LINE#         584
  C:7AFCH         LINE#         586
  C:7AFCH         LINE#         587
  C:7AFFH         LINE#         588
  C:7B0CH         LINE#         589
  C:7B19H         LINE#         590
  C:7B19H         LINE#         592
  C:7B19H         LINE#         593
  C:7B19H         LINE#         594
  C:7B19H         LINE#         595
  -------         ENDPROC       _MONISETVIDEOFORMAT
  C:8519H         SYMBOL        L?0297
  -------         PROC          _MONISHOWSODSTR
  X:00A4H         SYMBOL        szParam
  -------         DO            
  D:0027H         SYMBOL        addrx
  D:0028H         SYMBOL        addry
  X:00A7H         SYMBOL        getStr
  -------         ENDDO         
  C:84CFH         LINE#         601
  C:84D1H         LINE#         602
  C:84D1H         LINE#         606
  C:84D4H         LINE#         607
  C:84DFH         LINE#         608
  C:84E2H         LINE#         609
  C:84EDH         LINE#         611
  C:84F2H         LINE#         612
  C:84F7H         LINE#         613
  C:84FCH         LINE#         614
  C:8514H         LINE#         615
  C:8519H         LINE#         616
  -------         ENDPROC       _MONISHOWSODSTR
  -------         PROC          PCT_AUDIOACTIONFORHS
  -------         DO            
  D:0027H         SYMBOL        winid
  D:0028H         SYMBOL        muteFlage
  -------         ENDDO         
  C:8AA9H         LINE#         622
  C:8AA9H         LINE#         623
BL51 BANKED LINKER/LOCATER V6.22.2.0                                                  06/22/2021  15:07:28  PAGE 30


  C:8AA9H         LINE#         625
  C:8AACH         LINE#         628
  C:8ABAH         LINE#         629
  C:8AC3H         LINE#         630
  C:8ACFH         LINE#         631
  C:8AD2H         LINE#         632
  C:8AD2H         LINE#         633
  C:8AD6H         LINE#         635
  C:8ADAH         LINE#         637
  C:8AE2H         LINE#         642
  C:8AE9H         LINE#         643
  C:8AE9H         LINE#         645
  -------         ENDPROC       PCT_AUDIOACTIONFORHS
  -------         PROC          _MONIHSCOMM
  D:0001H         SYMBOL        szParam
  -------         DO            
  D:0027H         SYMBOL        winid
  D:0028H         SYMBOL        chose
  D:0029H         SYMBOL        wintp
  -------         ENDDO         
  C:7585H         LINE#         652
  C:7585H         LINE#         656
  C:75EFH         LINE#         659
  C:7609H         LINE#         663
  C:7611H         LINE#         664
  C:7619H         LINE#         665
  C:7622H         LINE#         666
  C:762BH         LINE#         668
  C:7635H         LINE#         669
  C:763FH         LINE#         670
  C:7649H         LINE#         671
  C:7653H         LINE#         676
  C:765CH         LINE#         677
  C:7664H         LINE#         679
  C:766EH         LINE#         681
  C:767CH         LINE#         682
  C:768DH         LINE#         686
  C:7692H         LINE#         687
  C:7697H         LINE#         688
  C:769CH         LINE#         689
  C:76A3H         LINE#         690
  C:76A8H         LINE#         691
  C:76ADH         LINE#         692
  C:76B0H         LINE#         693
  C:76B9H         LINE#         694
  C:76C0H         LINE#         696
  -------         ENDPROC       _MONIHSCOMM
  -------         PROC          PCT_CHECKSYSTEM
  -------         DO            
  D:0007H         SYMBOL        TempSystem
  -------         ENDDO         
  C:82D9H         LINE#         702
  C:82D9H         LINE#         703
  C:82D9H         LINE#         706
  C:82DEH         LINE#         708
  C:82EAH         LINE#         709
  C:82ECH         LINE#         710
BL51 BANKED LINKER/LOCATER V6.22.2.0                                                  06/22/2021  15:07:28  PAGE 31


  C:82F2H         LINE#         711
  C:82F4H         LINE#         713
  C:82F8H         LINE#         716
  C:8307H         LINE#         718
  C:830CH         LINE#         720
  C:8313H         LINE#         721
  C:831CH         LINE#         722
  C:8324H         LINE#         724
  C:832EH         LINE#         727
  C:8333H         LINE#         728
  C:8336H         LINE#         729
  C:833FH         LINE#         730
  C:8342H         LINE#         732
  C:8343H         LINE#         733
  -------         ENDPROC       PCT_CHECKSYSTEM
  -------         PROC          _MONIHSCOMMSJMODE
  D:0001H         SYMBOL        szParam
  C:90A1H         LINE#         739
  C:90A1H         LINE#         740
  C:90A1H         LINE#         741
  -------         ENDPROC       _MONIHSCOMMSJMODE
  -------         PROC          MONIHSCOMMDISSCROLL
  C:91E9H         LINE#         748
  C:91E9H         LINE#         749
  C:91E9H         LINE#         750
  -------         ENDPROC       MONIHSCOMMDISSCROLL
  C:8E47H         SYMBOL        L?0314
  -------         PROC          MONIHSCOMMVERSION
  -------         DO            
  X:00A4H         SYMBOL        version
  -------         ENDDO         
  C:8E27H         LINE#         758
  C:8E27H         LINE#         759
  C:8E27H         LINE#         760
  C:8E2BH         LINE#         763
  C:8E30H         LINE#         770
  C:8E33H         LINE#         771
  C:8E37H         LINE#         772
  C:8E42H         LINE#         773
  C:8E47H         LINE#         775
  -------         ENDPROC       MONIHSCOMMVERSION
  C:62B1H         SYMBOL        L?0259
  C:62B8H         SYMBOL        L?0263
  C:62BFH         SYMBOL        L?0269
  C:62C6H         SYMBOL        L?0274
  C:62CDH         SYMBOL        L?0278
  C:62D4H         SYMBOL        L?0282
  C:62DBH         SYMBOL        L?0286
  C:62E2H         SYMBOL        L?0292
  C:62E9H         SYMBOL        L?0295
  C:62F0H         SYMBOL        L?0309
  C:62F7H         SYMBOL        L?0321
  -------         PROC          _PCT_RUNCOMMSHELL
  X:009EH         SYMBOL        strptr
  -------         DO            
  D:0025H         SYMBOL        commcode
  X:00A1H         SYMBOL        getStr
BL51 BANKED LINKER/LOCATER V6.22.2.0                                                  06/22/2021  15:07:28  PAGE 32


  -------         ENDDO         
  C:6068H         LINE#         789
  C:606AH         LINE#         790
  C:606AH         LINE#         796
  C:607DH         LINE#         799
  C:6089H         LINE#         801
  C:6097H         LINE#         803
  C:609DH         LINE#         804
  C:60AEH         LINE#         806
  C:60B4H         LINE#         807
  C:60C5H         LINE#         809
  C:60CBH         LINE#         810
  C:60DCH         LINE#         813
  C:60E2H         LINE#         814
  C:60F3H         LINE#         817
  C:60F9H         LINE#         818
  C:610AH         LINE#         821
  C:6110H         LINE#         822
  C:6121H         LINE#         825
  C:6124H         LINE#         826
  C:6135H         LINE#         829
  C:6138H         LINE#         830
  C:6149H         LINE#         833
  C:614FH         LINE#         834
  C:6160H         LINE#         837
  C:6166H         LINE#         838
  C:6177H         LINE#         841
  C:617AH         LINE#         842
  C:618BH         LINE#         845
  C:6190H         LINE#         846
  C:6196H         LINE#         847
  C:6199H         LINE#         848
  C:61AAH         LINE#         851
  C:61B0H         LINE#         852
  C:61C1H         LINE#         855
  C:61C7H         LINE#         856
  C:61D8H         LINE#         858
  C:61DBH         LINE#         860
  C:61E1H         LINE#         861
  C:61F2H         LINE#         864
  C:61F5H         LINE#         865
  C:6206H         LINE#         868
  C:6209H         LINE#         869
  C:621AH         LINE#         872
  C:6220H         LINE#         873
  C:6231H         LINE#         876
  C:6237H         LINE#         878
  C:6248H         LINE#         879
  C:624BH         LINE#         881
  C:6251H         LINE#         883
  C:6254H         LINE#         884
  C:6257H         LINE#         885
  C:625CH         LINE#         889
  C:6261H         LINE#         890
  C:6266H         LINE#         893
  C:6276H         LINE#         894
  C:6279H         LINE#         896
BL51 BANKED LINKER/LOCATER V6.22.2.0                                                  06/22/2021  15:07:28  PAGE 33


  C:627FH         LINE#         897
  C:628FH         LINE#         898
  C:6292H         LINE#         900
  C:6295H         LINE#         901
  C:62A8H         LINE#         902
  C:62ABH         LINE#         904
  C:62AEH         LINE#         907
  C:62AEH         LINE#         908
  C:62AEH         LINE#         911
  C:62B0H         LINE#         912
  -------         ENDPROC       _PCT_RUNCOMMSHELL
  -------         ENDMOD        COMMANDSHELL

  -------         MODULE        MAIN
  C:0000H         SYMBOL        _ICE_DUMMY_
  C:8C90H         PUBLIC        _PutsP
  D:00B1H         PUBLIC        P3M0
  D:0090H         PUBLIC        P1
  D:00B2H         PUBLIC        P3M1
  D:00B0H         PUBLIC        P3
  B:00A8H.7       PUBLIC        EA
  X:006BH         PUBLIC        RScommand
  D:00A8H         PUBLIC        IE
  B:0024H.1       PUBLIC        VlossFlag
  D:00B8H         PUBLIC        IP
  B:0098H.1       PUBLIC        TI
  D:00D8H         PUBLIC        CCON
  C:8262H         PUBLIC        main
  C:90B7H         PUBLIC        ResetCommSell
  D:0020H         PUBLIC        commFlag
  D:0087H         PUBLIC        PCON
  D:00C0H         PUBLIC        WDTC
  D:0098H         PUBLIC        SCON
  D:0089H         PUBLIC        TMOD
  D:0088H         PUBLIC        TCON
  C:91C1H         PUBLIC        NewLine
  C:91CAH         PUBLIC        _PCT_FlashOSDCtrl
  C:8736H         PUBLIC        CommandShell
  C:8FB1H         PUBLIC        InitialMPU
  B:0020H.0       PUBLIC        comm_chk_flag
  D:00E8H         PUBLIC        IEA
  C:8DF9H         PUBLIC        _chkStartCommShell
  C:8957H         PUBLIC        _Wait_ms
  C:91ACH         PUBLIC        InitialCommShell
  D:00F8H         PUBLIC        IPA
  B:0020H.1       PUBLIC        osd_chk_flag
  D:00C8H         PUBLIC        T2CON
  X:0096H         PUBLIC        _delay
  D:00D0H         PUBLIC        PSW
  -------         PROC          COMMANDSHELL
  -------         DO            
  D:0025H         SYMBOL        ch
  -------         ENDDO         
  C:8736H         LINE#         74
  C:8736H         LINE#         79
  C:8743H         LINE#         80
  C:8748H         LINE#         81
BL51 BANKED LINKER/LOCATER V6.22.2.0                                                  06/22/2021  15:07:28  PAGE 34


  C:874EH         LINE#         83
  C:8758H         LINE#         84
  C:8758H         LINE#         85
  C:8760H         LINE#         86
  C:8764H         LINE#         87
  C:876DH         LINE#         88
  C:8773H         LINE#         89
  C:8773H         LINE#         91
  C:8773H         LINE#         92
  C:8778H         LINE#         93
  C:8779H         LINE#         95
  C:8779H         LINE#         96
  C:8782H         LINE#         97
  C:8787H         LINE#         98
  C:8787H         LINE#         99
  C:8787H         LINE#         100
  C:8787H         LINE#         102
  -------         ENDPROC       COMMANDSHELL
  -------         PROC          NEWLINE
  C:91C1H         LINE#         108
  C:91C1H         LINE#         109
  C:91C1H         LINE#         110
  -------         ENDPROC       NEWLINE
  -------         PROC          _PUTSP
  X:009EH         SYMBOL        ptr
  -------         DO            
  D:0025H         SYMBOL        ch
  -------         ENDDO         
  C:8C90H         LINE#         117
  C:8C9AH         LINE#         118
  C:8C9AH         LINE#         121
  C:8CA9H         LINE#         122
  C:8CBFH         LINE#         123
  C:8CC3H         LINE#         124
  C:8CC5H         LINE#         125
  -------         ENDPROC       _PUTSP
  -------         PROC          RESETCOMMSELL
  C:90B7H         LINE#         131
  C:90B7H         LINE#         132
  C:90B7H         LINE#         133
  C:90C3H         LINE#         135
  C:90C7H         LINE#         136
  C:90C9H         LINE#         137
  C:90CCH         LINE#         138
  -------         ENDPROC       RESETCOMMSELL
  -------         PROC          _PCT_FLASHOSDCTRL
  D:0007H         SYMBOL        _on
  C:91CAH         LINE#         144
  C:91CAH         LINE#         145
  C:91CAH         LINE#         146
  C:91D0H         LINE#         147
  C:91D2H         LINE#         148
  -------         ENDPROC       _PCT_FLASHOSDCTRL
  -------         PROC          INITIALCOMMSHELL
  C:91ACH         LINE#         154
  C:91ACH         LINE#         155
  C:91ACH         LINE#         156
BL51 BANKED LINKER/LOCATER V6.22.2.0                                                  06/22/2021  15:07:28  PAGE 35


  C:91AEH         LINE#         157
  C:91B0H         LINE#         160
  C:91B2H         LINE#         161
  C:91B6H         LINE#         162
  -------         ENDPROC       INITIALCOMMSHELL
  -------         PROC          _CHKSTARTCOMMSHELL
  X:009EH         SYMBOL        ptr
  C:8DF9H         LINE#         168
  C:8E03H         LINE#         169
  C:8E03H         LINE#         170
  C:8E06H         LINE#         171
  C:8E26H         LINE#         172
  -------         ENDPROC       _CHKSTARTCOMMSHELL
  -------         PROC          _WAIT_MS
  X:00A4H         SYMBOL        Tms
  -------         DO            
  X:00A6H         SYMBOL        count
  -------         ENDDO         
  C:8957H         LINE#         174
  C:895EH         LINE#         175
  C:895EH         LINE#         187
  C:8967H         LINE#         188
  C:8967H         LINE#         189
  C:898FH         LINE#         190
  C:899AH         LINE#         191
  C:899CH         LINE#         192
  -------         ENDPROC       _WAIT_MS
  -------         PROC          MAIN
  -------         DO            
  X:009BH         SYMBOL        Counter
  X:009CH         SYMBOL        OsdCount1
  X:009DH         SYMBOL        OsdCount2
  -------         ENDDO         
  C:8262H         LINE#         198
  C:8262H         LINE#         199
  C:8262H         LINE#         200
  C:8266H         LINE#         201
  C:826AH         LINE#         202
  C:826EH         LINE#         205
  C:8271H         LINE#         206
  C:8274H         LINE#         207
  C:8277H         LINE#         208
  C:827AH         LINE#         210
  C:827DH         LINE#         213
  C:827DH         LINE#         214
  C:8280H         LINE#         215
  C:8290H         LINE#         216
  C:829AH         LINE#         237
  C:829DH         LINE#         238
  C:829DH         LINE#         239
  C:82A2H         LINE#         240
  C:82A4H         LINE#         241
  C:82A4H         LINE#         244
  C:82B2H         LINE#         245
  C:82BAH         LINE#         249
  C:82BEH         LINE#         250
  C:82C6H         LINE#         251
BL51 BANKED LINKER/LOCATER V6.22.2.0                                                  06/22/2021  15:07:28  PAGE 36


  C:82C6H         LINE#         252
  C:82CEH         LINE#         253
  C:82D1H         LINE#         254
  C:82D7H         LINE#         255
  C:82D7H         LINE#         256
  -------         ENDPROC       MAIN
  -------         PROC          INITIALMPU
  C:8FB1H         LINE#         265
  C:8FB1H         LINE#         267
  C:8FB4H         LINE#         268
  C:8FB6H         LINE#         271
  C:8FB9H         LINE#         278
  C:8FBBH         LINE#         279
  C:8FBEH         LINE#         282
  C:8FC0H         LINE#         284
  C:8FC3H         LINE#         288
  C:8FC5H         LINE#         289
  C:8FC8H         LINE#         291
  C:8FCBH         LINE#         292
  C:8FCEH         LINE#         294
  C:8FD0H         LINE#         295
  C:8FD2H         LINE#         296
  C:8FD3H         LINE#         297
  -------         ENDPROC       INITIALMPU
  -------         ENDMOD        MAIN

  -------         MODULE        OSD_GRAPH
  C:0000H         SYMBOL        _ICE_DUMMY_
  D:0090H         PUBLIC        P1
  D:00B0H         PUBLIC        P3
  D:00A8H         PUBLIC        IE
  D:00B8H         PUBLIC        IP
  D:00D8H         PUBLIC        CCON
  C:2168H         PUBLIC        GRAPH16_TABLE
  D:00C0H         PUBLIC        WDTC
  D:0098H         PUBLIC        SCON
  D:0088H         PUBLIC        TCON
  C:0026H         PUBLIC        GRAPH_TABLE
  C:6FFFH         PUBLIC        _PCT_OSD16x16GraphX
  C:91EEH         PUBLIC        PCT_ClearGraphAttr
  D:00E8H         PUBLIC        IEA
  X:0098H         PUBLIC        graphattr
  D:00F8H         PUBLIC        IPA
  C:852CH         PUBLIC        _PCT_ShowGraphString
  D:00C8H         PUBLIC        T2CON
  D:00D0H         PUBLIC        PSW
  C:8788H         SYMBOL        Com001D
  C:8788H         SYMBOL        L?0030
  C:8792H         SYMBOL        L?0031
  C:8795H         SYMBOL        L?0032
  C:879EH         SYMBOL        L?0034
  C:87B3H         SYMBOL        L?0035
  C:87B5H         SYMBOL        L?0036
  C:87BEH         SYMBOL        L?0037
  C:87D0H         SYMBOL        L?0038
  C:87D3H         SYMBOL        L?0039
  -------         PROC          COM001D
BL51 BANKED LINKER/LOCATER V6.22.2.0                                                  06/22/2021  15:07:28  PAGE 37


  -------         ENDPROC       COM001D
  -------         PROC          PCT_CLEARGRAPHATTR
  C:91EEH         LINE#         72
  C:91EEH         LINE#         73
  C:91EEH         LINE#         74
  C:91F2H         LINE#         75
  -------         ENDPROC       PCT_CLEARGRAPHATTR
  C:7138H         SYMBOL        L?0028
  C:715FH         SYMBOL        L?0033
  C:7167H         SYMBOL        L?0040
  C:716FH         SYMBOL        L?0041
  -------         PROC          _PCT_OSD16X16GRAPHX
  X:00AEH         SYMBOL        _posx
  X:00AFH         SYMBOL        _posy
  D:0003H         SYMBOL        _indx
  -------         DO            
  X:00B1H         SYMBOL        row
  X:00B2H         SYMBOL        column
  X:00B3H         SYMBOL        cntr
  X:00B4H         SYMBOL        cntc
  X:00B5H         SYMBOL        posx
  X:00B6H         SYMBOL        graph
  -------         ENDDO         
  C:6FFFH         LINE#         96
  C:7009H         LINE#         97
  C:7009H         LINE#         101
  C:7010H         LINE#         102
  C:7017H         LINE#         103
  C:702EH         LINE#         105
  C:7031H         LINE#         106
  C:7036H         LINE#         108
  C:703EH         LINE#         112
  C:705BH         LINE#         113
  C:7060H         LINE#         114
  C:7066H         LINE#         116
  C:7077H         LINE#         117
  C:7088H         LINE#         118
  C:7099H         LINE#         119
  C:70A4H         LINE#         120
  C:70AFH         LINE#         121
  C:70BDH         LINE#         122
  C:70C7H         LINE#         123
  C:70CFH         LINE#         125
  C:70DEH         LINE#         126
  C:70EEH         LINE#         128
  C:70FCH         LINE#         129
  C:70FFH         LINE#         130
  C:7105H         LINE#         132
  C:710EH         LINE#         133
  C:7111H         LINE#         134
  C:7117H         LINE#         136
  C:711CH         LINE#         137
  C:7124H         LINE#         138
  C:712AH         LINE#         139
  C:712FH         LINE#         140
  C:7137H         LINE#         141
  -------         ENDPROC       _PCT_OSD16X16GRAPHX
BL51 BANKED LINKER/LOCATER V6.22.2.0                                                  06/22/2021  15:07:28  PAGE 38


  -------         PROC          _PCT_SHOWGRAPHSTRING
  X:00A7H         SYMBOL        _path
  X:00A8H         SYMBOL        _addrx
  X:00A9H         SYMBOL        _addry
  X:00AAH         SYMBOL        _strptr
  -------         DO            
  X:00ADH         SYMBOL        slen
  -------         ENDDO         
  C:852CH         LINE#         147
  C:8536H         LINE#         148
  C:8536H         LINE#         151
  C:8541H         LINE#         152
  C:854BH         LINE#         154
  C:8554H         LINE#         158
  C:8554H         LINE#         159
  C:8554H         LINE#         160
  C:8568H         LINE#         161
  C:856DH         LINE#         162
  C:8571H         LINE#         163
  C:8577H         LINE#         164
  C:857CH         LINE#         165
  C:857EH         LINE#         166
  C:857EH         LINE#         167
  C:8583H         LINE#         168
  C:8583H         LINE#         169
  C:8586H         LINE#         171
  -------         ENDPROC       _PCT_SHOWGRAPHSTRING
  -------         ENDMOD        OSD_GRAPH

  -------         MODULE        OSDACTION
  C:0000H         SYMBOL        _ICE_DUMMY_
  C:87DAH         PUBLIC        PCT_InitialOSD
  C:899DH         PUBLIC        PCT_ShowModeIcon
  D:0090H         PUBLIC        P1
  D:00B0H         PUBLIC        P3
  C:91DBH         PUBLIC        PCT_EnfalshVLoss
  C:8F69H         PUBLIC        camstr
  D:00A8H         PUBLIC        IE
  D:00B8H         PUBLIC        IP
  C:62FEH         PUBLIC        _PCT_ShowIndicateIcon
  C:8F86H         PUBLIC        SPEAKICON
  D:00D8H         PUBLIC        CCON
  X:0099H         PUBLIC        VlossCount
  D:00C0H         PUBLIC        WDTC
  D:0098H         PUBLIC        SCON
  D:0088H         PUBLIC        TCON
  B:0021H.0       PUBLIC        OSDPAGE2
  B:0021H.1       PUBLIC        OSDPAGE3
  B:0021H.2       PUBLIC        OSDPAGE4
  B:0021H.3       PUBLIC        OSDPAGE5
  D:0021H         PUBLIC        osdflage
  D:00E8H         PUBLIC        IEA
  C:8C20H         PUBLIC        PCT_GetVideoSignalStatus
  C:8F7EH         PUBLIC        indicate_icon
  C:8ECCH         PUBLIC        PCT_OSDActionForHS
  D:00F8H         PUBLIC        IPA
  C:8F88H         PUBLIC        msgVLOSS
BL51 BANKED LINKER/LOCATER V6.22.2.0                                                  06/22/2021  15:07:28  PAGE 39


  C:33ACH         PUBLIC        PCT_ShowVLoss
  D:00C8H         PUBLIC        T2CON
  C:42E3H         PUBLIC        _PCT_ShowSpeakIcon
  C:3E21H         PUBLIC        _PCT_ShowMirrorIcon
  C:4FE9H         PUBLIC        _PCT_OSD_ActionPthX
  D:00D0H         PUBLIC        PSW
  C:7D4CH         SYMBOL        Com0226
  C:7D4CH         SYMBOL        L?0551
  C:7D4CH         SYMBOL        L?0552
  C:7D4EH         SYMBOL        L?0553
  C:7D5AH         SYMBOL        L?0554
  C:7D5BH         SYMBOL        L?0555
  C:7D62H         SYMBOL        L?0556
  C:7D62H         SYMBOL        L?0557
  C:7D64H         SYMBOL        L?0558
  C:7D67H         SYMBOL        L?0559
  C:7D72H         SYMBOL        L?0560
  C:7D72H         SYMBOL        L?0561
  C:7D74H         SYMBOL        L?0562
  C:7D7DH         SYMBOL        L?0563
  C:7D7DH         SYMBOL        L?0564
  C:7D7FH         SYMBOL        L?0565
  C:7D89H         SYMBOL        L?0566
  C:7D89H         SYMBOL        L?0567
  C:7D8BH         SYMBOL        L?0568
  C:7D92H         SYMBOL        L?0569
  C:7D92H         SYMBOL        L?0570
  C:7D9AH         SYMBOL        L?0571
  C:7D9AH         SYMBOL        L?0572
  C:7DA2H         SYMBOL        L?0573
  C:7DA2H         SYMBOL        L?0574
  C:7DAAH         SYMBOL        L?0575
  C:7DAAH         SYMBOL        L?0576
  C:7DB2H         SYMBOL        L?0589
  C:7DB2H         SYMBOL        L?0590
  C:7DB8H         SYMBOL        L?0598
  C:7DB8H         SYMBOL        L?0599
  C:7DC0H         SYMBOL        L?0600
  C:7DC0H         SYMBOL        L?0601
  C:7DC8H         SYMBOL        L?0602
  C:7DC8H         SYMBOL        L?0603
  C:7DD0H         SYMBOL        L?0608
  C:7DD0H         SYMBOL        L?0609
  C:7DD3H         SYMBOL        L?0610
  C:7DDCH         SYMBOL        L?0611
  C:7DDCH         SYMBOL        L?0612
  C:7DE1H         SYMBOL        L?0613
  C:7DE8H         SYMBOL        L?0620
  C:7DE8H         SYMBOL        L?0621
  C:7DEFH         SYMBOL        L?0628
  C:7DEFH         SYMBOL        L?0629
  C:7DF6H         SYMBOL        L?0633
  C:7DF6H         SYMBOL        L?0634
  C:7DFEH         SYMBOL        L?0635
  C:7DFEH         SYMBOL        L?0636
  C:7E06H         SYMBOL        L?0643
  C:7E06H         SYMBOL        L?0644
BL51 BANKED LINKER/LOCATER V6.22.2.0                                                  06/22/2021  15:07:28  PAGE 40


  C:7E10H         SYMBOL        L?0648
  C:7E10H         SYMBOL        L?0649
  C:7E18H         SYMBOL        L?0650
  C:7E18H         SYMBOL        L?0651
  C:7E1AH         SYMBOL        L?0652
  C:7E21H         SYMBOL        L?0654
  C:7E21H         SYMBOL        L?0655
  C:7E2AH         SYMBOL        L?0656
  C:7E2AH         SYMBOL        L?0657
  C:7E30H         SYMBOL        L?0666
  C:7E30H         SYMBOL        L?0667
  C:7E38H         SYMBOL        L?0671
  C:7E3FH         SYMBOL        L?0672
  C:7E3FH         SYMBOL        L?0673
  -------         PROC          COM0226
  -------         ENDPROC       COM0226
  C:8815H         SYMBOL        L?0646
  -------         PROC          PCT_INITIALOSD
  -------         DO            
  D:0027H         SYMBOL        page
  -------         ENDDO         
  C:87DAH         LINE#         107
  C:87DAH         LINE#         108
  C:87DAH         LINE#         111
  C:87DDH         LINE#         112
  C:87E0H         LINE#         114
  C:87E5H         LINE#         115
  C:87EAH         LINE#         116
  C:87F8H         LINE#         117
  C:87FAH         LINE#         118
  C:87FDH         LINE#         119
  C:8801H         LINE#         120
  C:8806H         LINE#         121
  C:880BH         LINE#         122
  C:880DH         LINE#         123
  C:8810H         LINE#         125
  C:8814H         LINE#         126
  -------         ENDPROC       PCT_INITIALOSD
  C:5340H         SYMBOL        L?0583
  C:534FH         SYMBOL        L?0586
  C:535EH         SYMBOL        L?0596
  C:536DH         SYMBOL        L?0605
  C:537CH         SYMBOL        L?0619
  C:538BH         SYMBOL        L?0624
  C:539AH         SYMBOL        L?0639
  C:53A9H         SYMBOL        L?0661
  -------         PROC          _PCT_OSD_ACTIONPTHX
  X:00A4H         SYMBOL        _attr
  C:4FE9H         LINE#         133
  C:4FEEH         LINE#         134
  C:4FEEH         LINE#         135
  C:4FF3H         LINE#         136
  C:4FF8H         LINE#         137
  C:502CH         LINE#         140
  C:502CH         LINE#         141
  C:503FH         LINE#         142
  C:5042H         LINE#         144
BL51 BANKED LINKER/LOCATER V6.22.2.0                                                  06/22/2021  15:07:28  PAGE 41


  C:5042H         LINE#         145
  C:5052H         LINE#         146
  C:5066H         LINE#         147
  C:5069H         LINE#         149
  C:5069H         LINE#         150
  C:5079H         LINE#         151
  C:508DH         LINE#         152
  C:5090H         LINE#         154
  C:5090H         LINE#         155
  C:50A0H         LINE#         156
  C:50B4H         LINE#         157
  C:50CDH         LINE#         158
  C:50D0H         LINE#         160
  C:50D0H         LINE#         161
  C:50D0H         LINE#         163
  C:50D0H         LINE#         164
  C:50E0H         LINE#         165
  C:50F1H         LINE#         166
  C:510AH         LINE#         167
  C:510DH         LINE#         169
  C:510DH         LINE#         170
  C:511DH         LINE#         171
  C:512EH         LINE#         172
  C:5147H         LINE#         173
  C:514AH         LINE#         175
  C:514AH         LINE#         176
  C:515AH         LINE#         177
  C:5172H         LINE#         178
  C:518BH         LINE#         179
  C:51A4H         LINE#         180
  C:51A7H         LINE#         183
  C:51A7H         LINE#         184
  C:51BAH         LINE#         185
  C:51BCH         LINE#         187
  C:51BCH         LINE#         188
  C:51D3H         LINE#         189
  C:51E9H         LINE#         190
  C:51ECH         LINE#         192
  C:51ECH         LINE#         193
  C:51FCH         LINE#         194
  C:5212H         LINE#         195
  C:5215H         LINE#         197
  C:5215H         LINE#         198
  C:522CH         LINE#         199
  C:5244H         LINE#         200
  C:525FH         LINE#         201
  C:5262H         LINE#         203
  C:5262H         LINE#         204
  C:5262H         LINE#         206
  C:5262H         LINE#         207
  C:5272H         LINE#         208
  C:5283H         LINE#         209
  C:529EH         LINE#         210
  C:52A1H         LINE#         212
  C:52A1H         LINE#         213
  C:52B1H         LINE#         214
  C:52C2H         LINE#         215
BL51 BANKED LINKER/LOCATER V6.22.2.0                                                  06/22/2021  15:07:28  PAGE 42


  C:52DAH         LINE#         216
  C:52DDH         LINE#         218
  C:52DDH         LINE#         219
  C:52EDH         LINE#         220
  C:5305H         LINE#         221
  C:5322H         LINE#         222
  C:533FH         LINE#         223
  C:533FH         LINE#         312
  C:533FH         LINE#         313
  C:533FH         LINE#         314
  C:533FH         LINE#         315
  -------         ENDPROC       _PCT_OSD_ACTIONPTHX
  -------         PROC          PCT_ENFALSHVLOSS
  C:91DBH         LINE#         321
  C:91DBH         LINE#         322
  C:91DBH         LINE#         323
  C:91E1H         LINE#         324
  -------         ENDPROC       PCT_ENFALSHVLOSS
  -------         PROC          PCT_GETVIDEOSIGNALSTATUS
  C:8C20H         LINE#         330
  C:8C20H         LINE#         331
  C:8C20H         LINE#         336
  C:8C30H         LINE#         338
  C:8C36H         LINE#         341
  C:8C38H         LINE#         342
  C:8C4EH         LINE#         346
  C:8C4EH         LINE#         348
  C:8C51H         LINE#         349
  C:8C51H         LINE#         360
  C:8C57H         LINE#         401
  -------         ENDPROC       PCT_GETVIDEOSIGNALSTATUS
  C:651EH         SYMBOL        L?0581
  C:653BH         SYMBOL        L?0592
  C:6549H         SYMBOL        L?0616
  C:6566H         SYMBOL        L?0641
  C:6574H         SYMBOL        L?0668
  -------         PROC          _PCT_SHOWINDICATEICON
  X:00A4H         SYMBOL        _attr
  -------         DO            
  D:0027H         SYMBOL        iconid
  -------         ENDDO         
  C:62FEH         LINE#         422
  C:6303H         LINE#         423
  C:6303H         LINE#         427
  C:6308H         LINE#         428
  C:6336H         LINE#         430
  C:6336H         LINE#         431
  C:6336H         LINE#         432
  C:633EH         LINE#         434
  C:6340H         LINE#         435
  C:6340H         LINE#         436
  C:6340H         LINE#         437
  C:6343H         LINE#         438
  C:6343H         LINE#         439
  C:634BH         LINE#         441
  C:6356H         LINE#         442
  C:6356H         LINE#         443
BL51 BANKED LINKER/LOCATER V6.22.2.0                                                  06/22/2021  15:07:28  PAGE 43


  C:6356H         LINE#         444
  C:6356H         LINE#         445
  C:6359H         LINE#         447
  C:6359H         LINE#         448
  C:6361H         LINE#         449
  C:6361H         LINE#         450
  C:6361H         LINE#         452
  C:6361H         LINE#         453
  C:6364H         LINE#         455
  C:6364H         LINE#         456
  C:6364H         LINE#         458
  C:636CH         LINE#         460
  C:636EH         LINE#         461
  C:636EH         LINE#         462
  C:637CH         LINE#         463
  C:637EH         LINE#         464
  C:637EH         LINE#         465
  C:6381H         LINE#         467
  C:638DH         LINE#         468
  C:638DH         LINE#         469
  C:6390H         LINE#         470
  C:639DH         LINE#         471
  C:639FH         LINE#         473
  C:639FH         LINE#         474
  C:63A4H         LINE#         475
  C:63ADH         LINE#         476
  C:63ADH         LINE#         478
  C:63ADH         LINE#         481
  C:63B5H         LINE#         482
  C:63B9H         LINE#         483
  C:63B9H         LINE#         484
  C:63B9H         LINE#         485
  C:63BCH         LINE#         486
  C:63BCH         LINE#         487
  C:63BCH         LINE#         488
  C:63BCH         LINE#         489
  C:63BFH         LINE#         491
  C:63BFH         LINE#         492
  C:63BFH         LINE#         494
  C:63C7H         LINE#         496
  C:63C9H         LINE#         497
  C:63C9H         LINE#         498
  C:63D4H         LINE#         499
  C:63D6H         LINE#         500
  C:63D6H         LINE#         501
  C:63D9H         LINE#         503
  C:63E5H         LINE#         504
  C:63E5H         LINE#         505
  C:63E8H         LINE#         506
  C:63F5H         LINE#         507
  C:63F7H         LINE#         509
  C:63F7H         LINE#         510
  C:63FCH         LINE#         511
  C:6405H         LINE#         512
  C:6405H         LINE#         514
  C:6405H         LINE#         517
  C:640DH         LINE#         518
BL51 BANKED LINKER/LOCATER V6.22.2.0                                                  06/22/2021  15:07:28  PAGE 44


  C:640FH         LINE#         519
  C:6414H         LINE#         520
  C:6414H         LINE#         521
  C:6417H         LINE#         522
  C:6417H         LINE#         523
  C:641EH         LINE#         524
  C:641EH         LINE#         525
  C:6421H         LINE#         527
  C:6421H         LINE#         528
  C:6421H         LINE#         530
  C:6429H         LINE#         532
  C:642BH         LINE#         533
  C:642BH         LINE#         534
  C:6436H         LINE#         535
  C:6439H         LINE#         536
  C:6439H         LINE#         537
  C:6441H         LINE#         539
  C:644CH         LINE#         540
  C:644CH         LINE#         541
  C:644FH         LINE#         542
  C:6457H         LINE#         543
  C:645AH         LINE#         545
  C:645AH         LINE#         546
  C:6462H         LINE#         547
  C:6468H         LINE#         548
  C:6468H         LINE#         550
  C:6468H         LINE#         551
  C:646BH         LINE#         553
  C:646BH         LINE#         554
  C:646BH         LINE#         555
  C:646BH         LINE#         557
  C:646BH         LINE#         558
  C:646BH         LINE#         560
  C:6473H         LINE#         562
  C:6475H         LINE#         563
  C:6475H         LINE#         564
  C:6480H         LINE#         565
  C:6483H         LINE#         566
  C:6483H         LINE#         567
  C:648BH         LINE#         569
  C:6496H         LINE#         570
  C:6496H         LINE#         571
  C:6499H         LINE#         572
  C:64A1H         LINE#         573
  C:64A4H         LINE#         575
  C:64A4H         LINE#         576
  C:64A9H         LINE#         577
  C:64AFH         LINE#         578
  C:64AFH         LINE#         580
  C:64AFH         LINE#         581
  C:64B2H         LINE#         583
  C:64B2H         LINE#         584
  C:64B2H         LINE#         586
  C:64BAH         LINE#         588
  C:64BCH         LINE#         589
  C:64C9H         LINE#         590
  C:64E0H         LINE#         591
BL51 BANKED LINKER/LOCATER V6.22.2.0                                                  06/22/2021  15:07:28  PAGE 45


  C:64E2H         LINE#         592
  C:64E2H         LINE#         593
  C:64EAH         LINE#         595
  C:64F5H         LINE#         596
  C:64F5H         LINE#         597
  C:6502H         LINE#         598
  C:650FH         LINE#         599
  C:650FH         LINE#         601
  C:650FH         LINE#         602
  C:6514H         LINE#         603
  C:651DH         LINE#         604
  C:651DH         LINE#         606
  C:651DH         LINE#         607
  C:651DH         LINE#         609
  C:651DH         LINE#         610
  C:651DH         LINE#         611
  C:651DH         LINE#         613
  C:651DH         LINE#         614
  C:651DH         LINE#         615
  C:651DH         LINE#         616
  -------         ENDPROC       _PCT_SHOWINDICATEICON
  C:424BH         SYMBOL        L?0578
  C:4257H         SYMBOL        L?0582
  C:4263H         SYMBOL        L?0587
  C:426DH         SYMBOL        L?0595
  C:4277H         SYMBOL        L?0607
  C:4283H         SYMBOL        L?0614
  C:428EH         SYMBOL        L?0625
  C:4299H         SYMBOL        L?0626
  C:42A5H         SYMBOL        L?0632
  C:42AFH         SYMBOL        L?0640
  C:42BAH         SYMBOL        L?0658
  C:42C4H         SYMBOL        L?0660
  C:42CEH         SYMBOL        L?0662
  C:42D9H         SYMBOL        L?0674
  -------         PROC          _PCT_SHOWMIRRORICON
  X:00A4H         SYMBOL        _attr
  C:3E21H         LINE#         825
  C:3E26H         LINE#         826
  C:3E26H         LINE#         827
  C:3E2BH         LINE#         828
  C:3E5FH         LINE#         831
  C:3E5FH         LINE#         833
  C:3E67H         LINE#         834
  C:3E6EH         LINE#         835
  C:3E71H         LINE#         836
  C:3E76H         LINE#         837
  C:3E76H         LINE#         838
  C:3E79H         LINE#         840
  C:3E79H         LINE#         842
  C:3E81H         LINE#         843
  C:3E8AH         LINE#         844
  C:3E8CH         LINE#         845
  C:3E8FH         LINE#         846
  C:3E8FH         LINE#         848
  C:3E9AH         LINE#         849
  C:3E9AH         LINE#         850
BL51 BANKED LINKER/LOCATER V6.22.2.0                                                  06/22/2021  15:07:28  PAGE 46


  C:3E9DH         LINE#         851
  C:3EA0H         LINE#         852
  C:3EA0H         LINE#         853
  C:3EA3H         LINE#         855
  C:3EA3H         LINE#         857
  C:3EABH         LINE#         858
  C:3EB4H         LINE#         859
  C:3EB6H         LINE#         860
  C:3EB9H         LINE#         861
  C:3EB9H         LINE#         864
  C:3EC4H         LINE#         865
  C:3ECBH         LINE#         866
  C:3ECEH         LINE#         867
  C:3ED3H         LINE#         868
  C:3ED3H         LINE#         870
  C:3ED6H         LINE#         872
  C:3ED6H         LINE#         874
  C:3EDEH         LINE#         875
  C:3EE7H         LINE#         876
  C:3EE9H         LINE#         877
  C:3EECH         LINE#         878
  C:3EECH         LINE#         881
  C:3EF7H         LINE#         882
  C:3F00H         LINE#         883
  C:3F02H         LINE#         884
  C:3F0AH         LINE#         885
  C:3F0AH         LINE#         888
  C:3F16H         LINE#         889
  C:3F16H         LINE#         890
  C:3F19H         LINE#         891
  C:3F1CH         LINE#         892
  C:3F1CH         LINE#         893
  C:3F1FH         LINE#         895
  C:3F1FH         LINE#         896
  C:3F1FH         LINE#         898
  C:3F1FH         LINE#         900
  C:3F27H         LINE#         901
  C:3F30H         LINE#         902
  C:3F32H         LINE#         903
  C:3F35H         LINE#         904
  C:3F35H         LINE#         907
  C:3F40H         LINE#         908
  C:3F49H         LINE#         909
  C:3F4BH         LINE#         910
  C:3F4EH         LINE#         911
  C:3F4EH         LINE#         914
  C:3F5AH         LINE#         915
  C:3F5AH         LINE#         916
  C:3F5DH         LINE#         917
  C:3F60H         LINE#         918
  C:3F60H         LINE#         919
  C:3F63H         LINE#         921
  C:3F63H         LINE#         923
  C:3F6BH         LINE#         924
  C:3F74H         LINE#         925
  C:3F76H         LINE#         926
  C:3F79H         LINE#         927
BL51 BANKED LINKER/LOCATER V6.22.2.0                                                  06/22/2021  15:07:28  PAGE 47


  C:3F79H         LINE#         930
  C:3F84H         LINE#         931
  C:3F8DH         LINE#         932
  C:3F8FH         LINE#         933
  C:3F92H         LINE#         934
  C:3F92H         LINE#         937
  C:3F9EH         LINE#         938
  C:3FA6H         LINE#         939
  C:3FA9H         LINE#         940
  C:3FADH         LINE#         941
  C:3FADH         LINE#         942
  C:3FB0H         LINE#         944
  C:3FB0H         LINE#         946
  C:3FB8H         LINE#         947
  C:3FC1H         LINE#         948
  C:3FC3H         LINE#         949
  C:3FC6H         LINE#         950
  C:3FC6H         LINE#         953
  C:3FD1H         LINE#         954
  C:3FE0H         LINE#         955
  C:3FE2H         LINE#         956
  C:3FECH         LINE#         957
  C:3FECH         LINE#         960
  C:3FF8H         LINE#         961
  C:4001H         LINE#         962
  C:4003H         LINE#         963
  C:400BH         LINE#         964
  C:400BH         LINE#         967
  C:4017H         LINE#         968
  C:401FH         LINE#         969
  C:4022H         LINE#         970
  C:4025H         LINE#         971
  C:4025H         LINE#         972
  C:4028H         LINE#         975
  C:4028H         LINE#         977
  C:4030H         LINE#         978
  C:403AH         LINE#         979
  C:403CH         LINE#         980
  C:403FH         LINE#         981
  C:403FH         LINE#         982
  C:4041H         LINE#         984
  C:4041H         LINE#         986
  C:4049H         LINE#         987
  C:4052H         LINE#         988
  C:4054H         LINE#         989
  C:405CH         LINE#         990
  C:405CH         LINE#         992
  C:4067H         LINE#         993
  C:4071H         LINE#         994
  C:4074H         LINE#         995
  C:4079H         LINE#         996
  C:4079H         LINE#         997
  C:407CH         LINE#         999
  C:407CH         LINE#         1001
  C:4084H         LINE#         1002
  C:408DH         LINE#         1003
  C:408FH         LINE#         1004
BL51 BANKED LINKER/LOCATER V6.22.2.0                                                  06/22/2021  15:07:28  PAGE 48


  C:4097H         LINE#         1005
  C:4097H         LINE#         1008
  C:40A2H         LINE#         1009
  C:40AEH         LINE#         1010
  C:40B1H         LINE#         1011
  C:40B6H         LINE#         1012
  C:40B6H         LINE#         1014
  C:40B9H         LINE#         1016
  C:40B9H         LINE#         1018
  C:40C1H         LINE#         1019
  C:40CAH         LINE#         1020
  C:40CCH         LINE#         1021
  C:40D4H         LINE#         1022
  C:40D4H         LINE#         1025
  C:40DFH         LINE#         1026
  C:40E8H         LINE#         1027
  C:40EAH         LINE#         1028
  C:40F2H         LINE#         1029
  C:40F2H         LINE#         1032
  C:40FEH         LINE#         1033
  C:4108H         LINE#         1034
  C:410BH         LINE#         1035
  C:4110H         LINE#         1036
  C:4110H         LINE#         1037
  C:4113H         LINE#         1039
  C:4113H         LINE#         1040
  C:4113H         LINE#         1042
  C:4113H         LINE#         1044
  C:411BH         LINE#         1045
  C:4124H         LINE#         1046
  C:4126H         LINE#         1047
  C:412EH         LINE#         1048
  C:412EH         LINE#         1051
  C:4139H         LINE#         1052
  C:4142H         LINE#         1053
  C:4144H         LINE#         1054
  C:414CH         LINE#         1055
  C:414CH         LINE#         1058
  C:4158H         LINE#         1059
  C:4162H         LINE#         1060
  C:4165H         LINE#         1061
  C:416AH         LINE#         1062
  C:416AH         LINE#         1063
  C:416DH         LINE#         1065
  C:416DH         LINE#         1067
  C:4175H         LINE#         1068
  C:417EH         LINE#         1069
  C:4180H         LINE#         1070
  C:4188H         LINE#         1071
  C:4188H         LINE#         1074
  C:4193H         LINE#         1075
  C:419CH         LINE#         1076
  C:419EH         LINE#         1077
  C:41A6H         LINE#         1078
  C:41A6H         LINE#         1081
  C:41B2H         LINE#         1082
  C:41BCH         LINE#         1083
BL51 BANKED LINKER/LOCATER V6.22.2.0                                                  06/22/2021  15:07:28  PAGE 49


  C:41BFH         LINE#         1084
  C:41C7H         LINE#         1085
  C:41C7H         LINE#         1086
  C:41CAH         LINE#         1088
  C:41CAH         LINE#         1090
  C:41D2H         LINE#         1091
  C:41DBH         LINE#         1092
  C:41DDH         LINE#         1093
  C:41E5H         LINE#         1094
  C:41E5H         LINE#         1097
  C:41F0H         LINE#         1098
  C:41FEH         LINE#         1099
  C:4200H         LINE#         1100
  C:4208H         LINE#         1101
  C:4208H         LINE#         1104
  C:4214H         LINE#         1105
  C:421DH         LINE#         1106
  C:421FH         LINE#         1107
  C:4227H         LINE#         1108
  C:4227H         LINE#         1111
  C:4233H         LINE#         1112
  C:4242H         LINE#         1113
  C:4242H         LINE#         1114
  C:424AH         LINE#         1115
  C:424AH         LINE#         1116
  C:424AH         LINE#         1407
  C:424AH         LINE#         1408
  C:424AH         LINE#         1409
  C:424AH         LINE#         1410
  -------         ENDPROC       _PCT_SHOWMIRRORICON
  C:46EFH         SYMBOL        L?0579
  C:46FBH         SYMBOL        L?0584
  C:4707H         SYMBOL        L?0588
  C:4711H         SYMBOL        L?0597
  C:471BH         SYMBOL        L?0604
  C:4726H         SYMBOL        L?0617
  C:4731H         SYMBOL        L?0618
  C:473DH         SYMBOL        L?0627
  C:4747H         SYMBOL        L?0630
  C:4752H         SYMBOL        L?0642
  C:475CH         SYMBOL        L?0647
  C:4767H         SYMBOL        L?0659
  C:4771H         SYMBOL        L?0665
  C:477BH         SYMBOL        L?0669
  C:4786H         SYMBOL        L?0675
  -------         PROC          _PCT_SHOWSPEAKICON
  X:00A4H         SYMBOL        _attr
  C:42E3H         LINE#         2011
  C:42E8H         LINE#         2012
  C:42E8H         LINE#         2013
  C:42EDH         LINE#         2014
  C:431EH         LINE#         2017
  C:431EH         LINE#         2018
  C:4328H         LINE#         2019
  C:4328H         LINE#         2020
  C:432AH         LINE#         2021
  C:432FH         LINE#         2022
BL51 BANKED LINKER/LOCATER V6.22.2.0                                                  06/22/2021  15:07:28  PAGE 50


  C:432FH         LINE#         2023
  C:4332H         LINE#         2025
  C:4332H         LINE#         2026
  C:433CH         LINE#         2027
  C:4345H         LINE#         2028
  C:4347H         LINE#         2029
  C:434AH         LINE#         2030
  C:434AH         LINE#         2031
  C:4354H         LINE#         2032
  C:435BH         LINE#         2033
  C:435EH         LINE#         2034
  C:4361H         LINE#         2035
  C:4361H         LINE#         2036
  C:4364H         LINE#         2038
  C:4364H         LINE#         2039
  C:436EH         LINE#         2040
  C:4377H         LINE#         2041
  C:4379H         LINE#         2042
  C:437CH         LINE#         2043
  C:437CH         LINE#         2044
  C:4387H         LINE#         2045
  C:438EH         LINE#         2046
  C:4391H         LINE#         2047
  C:4396H         LINE#         2048
  C:4396H         LINE#         2049
  C:4399H         LINE#         2051
  C:4399H         LINE#         2052
  C:43A3H         LINE#         2053
  C:43ACH         LINE#         2054
  C:43AEH         LINE#         2055
  C:43B1H         LINE#         2056
  C:43B1H         LINE#         2057
  C:43BCH         LINE#         2058
  C:43C5H         LINE#         2059
  C:43C7H         LINE#         2060
  C:43CFH         LINE#         2061
  C:43CFH         LINE#         2062
  C:43DDH         LINE#         2063
  C:43DDH         LINE#         2064
  C:43E0H         LINE#         2065
  C:43E3H         LINE#         2066
  C:43E3H         LINE#         2067
  C:43E6H         LINE#         2069
  C:43E6H         LINE#         2070
  C:43E6H         LINE#         2072
  C:43E6H         LINE#         2073
  C:43F0H         LINE#         2074
  C:43F9H         LINE#         2075
  C:43FBH         LINE#         2076
  C:43FEH         LINE#         2077
  C:43FEH         LINE#         2078
  C:4409H         LINE#         2079
  C:4412H         LINE#         2080
  C:4414H         LINE#         2081
  C:4417H         LINE#         2082
  C:4417H         LINE#         2083
  C:4425H         LINE#         2084
BL51 BANKED LINKER/LOCATER V6.22.2.0                                                  06/22/2021  15:07:28  PAGE 51


  C:4425H         LINE#         2085
  C:4428H         LINE#         2086
  C:442BH         LINE#         2087
  C:442BH         LINE#         2088
  C:442EH         LINE#         2090
  C:442EH         LINE#         2091
  C:4438H         LINE#         2092
  C:4441H         LINE#         2093
  C:4443H         LINE#         2094
  C:4446H         LINE#         2095
  C:4446H         LINE#         2096
  C:4451H         LINE#         2097
  C:445AH         LINE#         2098
  C:445CH         LINE#         2099
  C:445FH         LINE#         2100
  C:445FH         LINE#         2101
  C:446DH         LINE#         2102
  C:4475H         LINE#         2103
  C:4478H         LINE#         2104
  C:447CH         LINE#         2105
  C:447CH         LINE#         2106
  C:447FH         LINE#         2108
  C:447FH         LINE#         2109
  C:4489H         LINE#         2110
  C:4492H         LINE#         2111
  C:4494H         LINE#         2112
  C:4497H         LINE#         2113
  C:4497H         LINE#         2114
  C:44A2H         LINE#         2115
  C:44ABH         LINE#         2116
  C:44ADH         LINE#         2117
  C:44B0H         LINE#         2118
  C:44B0H         LINE#         2119
  C:44BEH         LINE#         2120
  C:44C7H         LINE#         2121
  C:44C9H         LINE#         2122
  C:44D1H         LINE#         2123
  C:44D1H         LINE#         2124
  C:44DFH         LINE#         2125
  C:44E7H         LINE#         2126
  C:44EAH         LINE#         2127
  C:44EDH         LINE#         2128
  C:44EDH         LINE#         2129
  C:44F0H         LINE#         2132
  C:44F0H         LINE#         2133
  C:44FAH         LINE#         2134
  C:4506H         LINE#         2135
  C:4509H         LINE#         2136
  C:450EH         LINE#         2137
  C:450EH         LINE#         2138
  C:4511H         LINE#         2140
  C:4511H         LINE#         2141
  C:4511H         LINE#         2143
  C:4511H         LINE#         2144
  C:451BH         LINE#         2145
  C:4524H         LINE#         2146
  C:4526H         LINE#         2147
BL51 BANKED LINKER/LOCATER V6.22.2.0                                                  06/22/2021  15:07:28  PAGE 52


  C:452EH         LINE#         2148
  C:452EH         LINE#         2149
  C:4539H         LINE#         2150
  C:4545H         LINE#         2151
  C:4548H         LINE#         2152
  C:454DH         LINE#         2153
  C:454DH         LINE#         2154
  C:4550H         LINE#         2156
  C:4550H         LINE#         2157
  C:455AH         LINE#         2158
  C:4568H         LINE#         2159
  C:456AH         LINE#         2160
  C:4572H         LINE#         2161
  C:4572H         LINE#         2162
  C:457DH         LINE#         2163
  C:4586H         LINE#         2164
  C:4588H         LINE#         2165
  C:4590H         LINE#         2166
  C:4590H         LINE#         2167
  C:459EH         LINE#         2168
  C:45A8H         LINE#         2169
  C:45ABH         LINE#         2170
  C:45B0H         LINE#         2171
  C:45B0H         LINE#         2172
  C:45B3H         LINE#         2174
  C:45B3H         LINE#         2175
  C:45B3H         LINE#         2177
  C:45B3H         LINE#         2178
  C:45BDH         LINE#         2179
  C:45C6H         LINE#         2180
  C:45C8H         LINE#         2181
  C:45D0H         LINE#         2182
  C:45D0H         LINE#         2183
  C:45DBH         LINE#         2184
  C:45E4H         LINE#         2185
  C:45E6H         LINE#         2186
  C:45EEH         LINE#         2187
  C:45EEH         LINE#         2188
  C:45FCH         LINE#         2189
  C:4606H         LINE#         2190
  C:4609H         LINE#         2191
  C:460EH         LINE#         2192
  C:460EH         LINE#         2193
  C:4611H         LINE#         2195
  C:4611H         LINE#         2196
  C:461BH         LINE#         2197
  C:4624H         LINE#         2198
  C:4626H         LINE#         2199
  C:462EH         LINE#         2200
  C:462EH         LINE#         2201
  C:4639H         LINE#         2202
  C:4642H         LINE#         2203
  C:4644H         LINE#         2204
  C:4647H         LINE#         2205
  C:4647H         LINE#         2206
  C:4655H         LINE#         2207
  C:465FH         LINE#         2208
BL51 BANKED LINKER/LOCATER V6.22.2.0                                                  06/22/2021  15:07:28  PAGE 53


  C:4662H         LINE#         2209
  C:466AH         LINE#         2210
  C:466AH         LINE#         2211
  C:466DH         LINE#         2213
  C:466DH         LINE#         2214
  C:4677H         LINE#         2215
  C:4680H         LINE#         2216
  C:4682H         LINE#         2217
  C:468AH         LINE#         2218
  C:468AH         LINE#         2219
  C:4695H         LINE#         2220
  C:469EH         LINE#         2221
  C:46A0H         LINE#         2222
  C:46A8H         LINE#         2223
  C:46A8H         LINE#         2224
  C:46B6H         LINE#         2225
  C:46BFH         LINE#         2226
  C:46C1H         LINE#         2227
  C:46C9H         LINE#         2228
  C:46C9H         LINE#         2229
  C:46D7H         LINE#         2230
  C:46E6H         LINE#         2231
  C:46E6H         LINE#         2232
  C:46EEH         LINE#         2233
  C:46EEH         LINE#         2234
  C:46EEH         LINE#         2457
  C:46EEH         LINE#         2458
  C:46EEH         LINE#         2459
  C:46EEH         LINE#         2460
  -------         ENDPROC       _PCT_SHOWSPEAKICON
  C:385BH         SYMBOL        L?0577
  C:3867H         SYMBOL        L?0580
  C:3873H         SYMBOL        L?0585
  C:387FH         SYMBOL        L?0591
  C:388BH         SYMBOL        L?0593
  C:3895H         SYMBOL        L?0594
  C:38A1H         SYMBOL        L?0606
  C:38ABH         SYMBOL        L?0615
  C:38B7H         SYMBOL        L?0622
  C:38C1H         SYMBOL        L?0623
  C:38CDH         SYMBOL        L?0631
  C:38D7H         SYMBOL        L?0637
  C:38DFH         SYMBOL        L?0638
  C:38EBH         SYMBOL        L?0645
  C:38F5H         SYMBOL        L?0653
  C:38FDH         SYMBOL        L?0663
  C:3907H         SYMBOL        L?0664
  -------         PROC          PCT_SHOWVLOSS
  C:33ACH         LINE#         2955
  C:33ACH         LINE#         2956
  C:33ACH         LINE#         2962
  C:33DAH         LINE#         2964
  C:33DAH         LINE#         2965
  C:33EBH         LINE#         2966
  C:33F6H         LINE#         2968
  C:33FAH         LINE#         2969
  C:33FDH         LINE#         2971
BL51 BANKED LINKER/LOCATER V6.22.2.0                                                  06/22/2021  15:07:28  PAGE 54


  C:33FDH         LINE#         2972
  C:33FDH         LINE#         2974
  C:33FDH         LINE#         2975
  C:340EH         LINE#         2976
  C:3419H         LINE#         2978
  C:341CH         LINE#         2979
  C:342FH         LINE#         2980
  C:343AH         LINE#         2982
  C:343EH         LINE#         2983
  C:3441H         LINE#         2985
  C:3441H         LINE#         2986
  C:3452H         LINE#         2987
  C:3463H         LINE#         2989
  C:3468H         LINE#         2990
  C:347BH         LINE#         2991
  C:3488H         LINE#         2993
  C:348BH         LINE#         2994
  C:349EH         LINE#         2995
  C:34A9H         LINE#         2997
  C:34ADH         LINE#         2998
  C:34B0H         LINE#         3000
  C:34B0H         LINE#         3001
  C:34B0H         LINE#         3003
  C:34B0H         LINE#         3004
  C:34C1H         LINE#         3005
  C:34CCH         LINE#         3007
  C:34CFH         LINE#         3008
  C:34E2H         LINE#         3009
  C:34EDH         LINE#         3011
  C:34F0H         LINE#         3012
  C:3503H         LINE#         3013
  C:350EH         LINE#         3015
  C:3512H         LINE#         3016
  C:3515H         LINE#         3018
  C:3515H         LINE#         3019
  C:3526H         LINE#         3020
  C:3531H         LINE#         3022
  C:3534H         LINE#         3023
  C:3547H         LINE#         3024
  C:3554H         LINE#         3026
  C:355CH         LINE#         3027
  C:356FH         LINE#         3028
  C:357AH         LINE#         3030
  C:357EH         LINE#         3031
  C:3581H         LINE#         3033
  C:3581H         LINE#         3034
  C:3592H         LINE#         3035
  C:359DH         LINE#         3037
  C:35A0H         LINE#         3038
  C:35B3H         LINE#         3039
  C:35BEH         LINE#         3041
  C:35C1H         LINE#         3042
  C:35D4H         LINE#         3043
  C:35E5H         LINE#         3045
  C:35E8H         LINE#         3046
  C:35FBH         LINE#         3047
  C:3606H         LINE#         3049
BL51 BANKED LINKER/LOCATER V6.22.2.0                                                  06/22/2021  15:07:28  PAGE 55


  C:360AH         LINE#         3050
  C:360DH         LINE#         3053
  C:360DH         LINE#         3054
  C:361EH         LINE#         3055
  C:362BH         LINE#         3057
  C:3633H         LINE#         3058
  C:3636H         LINE#         3060
  C:3636H         LINE#         3061
  C:3636H         LINE#         3063
  C:3636H         LINE#         3064
  C:3647H         LINE#         3065
  C:3654H         LINE#         3067
  C:3657H         LINE#         3068
  C:366AH         LINE#         3069
  C:3677H         LINE#         3071
  C:367FH         LINE#         3072
  C:3682H         LINE#         3074
  C:3682H         LINE#         3075
  C:3693H         LINE#         3076
  C:36A4H         LINE#         3078
  C:36A9H         LINE#         3079
  C:36BCH         LINE#         3080
  C:36C7H         LINE#         3082
  C:36CAH         LINE#         3083
  C:36DDH         LINE#         3084
  C:36EAH         LINE#         3086
  C:36EDH         LINE#         3087
  C:36F0H         LINE#         3089
  C:36F0H         LINE#         3090
  C:36F0H         LINE#         3092
  C:36F0H         LINE#         3093
  C:3701H         LINE#         3094
  C:370EH         LINE#         3096
  C:3711H         LINE#         3097
  C:3724H         LINE#         3098
  C:372FH         LINE#         3100
  C:3732H         LINE#         3101
  C:3745H         LINE#         3102
  C:3752H         LINE#         3104
  C:3755H         LINE#         3105
  C:3758H         LINE#         3107
  C:3758H         LINE#         3108
  C:3769H         LINE#         3109
  C:3774H         LINE#         3111
  C:3777H         LINE#         3112
  C:378AH         LINE#         3113
  C:379BH         LINE#         3115
  C:37A6H         LINE#         3116
  C:37B9H         LINE#         3117
  C:37C6H         LINE#         3119
  C:37CEH         LINE#         3120
  C:37D1H         LINE#         3122
  C:37D1H         LINE#         3123
  C:37E2H         LINE#         3124
  C:37EDH         LINE#         3126
  C:37F0H         LINE#         3127
  C:3803H         LINE#         3128
BL51 BANKED LINKER/LOCATER V6.22.2.0                                                  06/22/2021  15:07:28  PAGE 56


  C:380EH         LINE#         3130
  C:3811H         LINE#         3131
  C:3824H         LINE#         3132
  C:382FH         LINE#         3134
  C:3832H         LINE#         3135
  C:3845H         LINE#         3136
  C:3854H         LINE#         3138
  C:385AH         LINE#         3139
  C:385AH         LINE#         3141
  C:385AH         LINE#         3142
  C:385AH         LINE#         3143
  C:385AH         LINE#         3144
  -------         ENDPROC       PCT_SHOWVLOSS
  C:89D8H         SYMBOL        L?0670
  -------         PROC          PCT_SHOWMODEICON
  C:899DH         LINE#         3151
  C:899DH         LINE#         3152
  C:899DH         LINE#         3153
  C:89A2H         LINE#         3155
  C:89ACH         LINE#         3156
  C:89ACH         LINE#         3157
  C:89ACH         LINE#         3158
  C:89ACH         LINE#         3159
  C:89AFH         LINE#         3160
  C:89B8H         LINE#         3161
  C:89B8H         LINE#         3162
  C:89BAH         LINE#         3164
  C:89BAH         LINE#         3165
  C:89BAH         LINE#         3166
  C:89BDH         LINE#         3167
  C:89D2H         LINE#         3168
  C:89D7H         LINE#         3169
  C:89D7H         LINE#         3171
  C:89D7H         LINE#         3172
  C:89D7H         LINE#         3173
  C:89D7H         LINE#         3174
  -------         ENDPROC       PCT_SHOWMODEICON
  -------         PROC          PCT_OSDACTIONFORHS
  C:8ECCH         LINE#         3205
  C:8ECCH         LINE#         3206
  C:8ECCH         LINE#         3207
  C:8ED1H         LINE#         3209
  C:8EDAH         LINE#         3213
  C:8EDAH         LINE#         3215
  C:8EE0H         LINE#         3218
  C:8EE6H         LINE#         3220
  C:8EECH         LINE#         3221
  C:8EECH         LINE#         3222
  C:8EEFH         LINE#         3223
  -------         ENDPROC       PCT_OSDACTIONFORHS
  -------         ENDMOD        OSDACTION

  -------         MODULE        OSDCTRL
  C:0000H         SYMBOL        _ICE_DUMMY_
  D:0090H         PUBLIC        P1
  C:250CH         PUBLIC        FONT_TABLE
  D:00B0H         PUBLIC        P3
BL51 BANKED LINKER/LOCATER V6.22.2.0                                                  06/22/2021  15:07:28  PAGE 57


  C:80A1H         PUBLIC        _PCT_FullColorOnOSD
  C:8CC6H         PUBLIC        _PCT_EnShowOSDPage
  D:00A8H         PUBLIC        IE
  D:0016H         PUBLIC        backColor
  D:00B8H         PUBLIC        IP
  D:00D8H         PUBLIC        CCON
  C:91F6H         PUBLIC        _PCT_PreSetBackgroundColor
  C:8000H         PUBLIC        _PCT_ClearWordsPathX
  D:0017H         PUBLIC        foreColor
  D:00C0H         PUBLIC        WDTC
  D:0098H         PUBLIC        SCON
  D:0088H         PUBLIC        TCON
  C:7C4DH         PUBLIC        _PCT_WriteOSDFntX
  C:7E46H         PUBLIC        _PCT_WriteOSDFntY
  C:91F3H         PUBLIC        _PCT_PreSetForegroundColor
  C:76C1H         PUBLIC        PCT_InitOSDColor
  B:0022H.0       PUBLIC        DAT_BIT0
  B:0022H.1       PUBLIC        DAT_BIT1
  B:0022H.2       PUBLIC        DAT_BIT2
  B:0022H.3       PUBLIC        DAT_BIT3
  B:0022H.4       PUBLIC        DAT_BIT4
  B:0022H.5       PUBLIC        DAT_BIT5
  C:846FH         PUBLIC        _PCT_ShowOSDString
  D:00E8H         PUBLIC        IEA
  B:0022H.6       PUBLIC        DAT_BIT6
  B:0022H.7       PUBLIC        DAT_BIT7
  D:00F8H         PUBLIC        IPA
  C:86E3H         PUBLIC        _PCT_SetOSDColor
  D:00C8H         PUBLIC        T2CON
  C:8FD4H         PUBLIC        _PCT_SetOSDDrawPage
  C:717AH         PUBLIC        _PCT_WriteOSDDataBufferX
  C:9043H         PUBLIC        _PCT_ClearOSDPageX
  C:7910H         PUBLIC        _PCT_WriteOSDDataBufferY
  C:8FF1H         PUBLIC        _PCT_DisShowOSDPage
  D:00D0H         PUBLIC        PSW
  D:0022H         PUBLIC        bitdat
  C:72E3H         SYMBOL        Com0080
  C:72E3H         SYMBOL        L?0129
  C:72EFH         SYMBOL        L?0130
  C:72F7H         SYMBOL        L?0131
  C:72FAH         SYMBOL        L?0132
  C:7303H         SYMBOL        L?0133
  C:7303H         SYMBOL        L?0134
  C:7308H         SYMBOL        L?0135
  C:730AH         SYMBOL        L?0136
  C:730BH         SYMBOL        L?0137
  C:7312H         SYMBOL        L?0142
  C:731FH         SYMBOL        L?0143
  C:7321H         SYMBOL        L?0144
  C:7328H         SYMBOL        L?0146
  C:7331H         SYMBOL        L?0147
  C:733BH         SYMBOL        L?0149
  C:7342H         SYMBOL        L?0150
  C:734EH         SYMBOL        L?0151
  C:7350H         SYMBOL        L?0152
  C:7352H         SYMBOL        L?0153
  C:735AH         SYMBOL        L?0154
BL51 BANKED LINKER/LOCATER V6.22.2.0                                                  06/22/2021  15:07:28  PAGE 58


  C:735CH         SYMBOL        L?0155
  C:735EH         SYMBOL        L?0156
  C:7366H         SYMBOL        L?0157
  C:7368H         SYMBOL        L?0158
  C:736AH         SYMBOL        L?0159
  C:7372H         SYMBOL        L?0160
  C:7390H         SYMBOL        L?0161
  C:7390H         SYMBOL        L?0162
  C:739CH         SYMBOL        L?0163
  C:73A0H         SYMBOL        L?0164
  C:73A8H         SYMBOL        L?0166
  C:73ABH         SYMBOL        L?0167
  C:73B8H         SYMBOL        L?0168
  C:73D0H         SYMBOL        L?0169
  C:73D0H         SYMBOL        L?0170
  C:73D2H         SYMBOL        L?0171
  C:73D9H         SYMBOL        L?0172
  C:73EFH         SYMBOL        L?0173
  C:73EFH         SYMBOL        L?0174
  C:73F1H         SYMBOL        L?0175
  C:73F9H         SYMBOL        L?0178
  C:73FBH         SYMBOL        L?0179
  C:7403H         SYMBOL        L?0180
  C:7406H         SYMBOL        L?0181
  C:740DH         SYMBOL        L?0183
  C:740FH         SYMBOL        L?0184
  C:7417H         SYMBOL        L?0185
  C:7418H         SYMBOL        L?0186
  C:7420H         SYMBOL        L?0187
  C:742CH         SYMBOL        L?0188
  C:7437H         SYMBOL        L?0189
  C:7442H         SYMBOL        L?0190
  C:7442H         SYMBOL        L?0191
  -------         PROC          COM0080
  -------         ENDPROC       COM0080
  -------         PROC          _PCT_PRESETFOREGROUNDCOLOR
  D:0007H         SYMBOL        _color
  C:91F3H         LINE#         81
  C:91F3H         LINE#         82
  C:91F3H         LINE#         83
  C:91F5H         LINE#         85
  -------         ENDPROC       _PCT_PRESETFOREGROUNDCOLOR
  -------         PROC          _PCT_PRESETBACKGROUNDCOLOR
  D:0007H         SYMBOL        _color
  C:91F6H         LINE#         91
  C:91F6H         LINE#         92
  C:91F6H         LINE#         93
  C:91F8H         LINE#         95
  -------         ENDPROC       _PCT_PRESETBACKGROUNDCOLOR
  C:872EH         SYMBOL        L?0182
  -------         PROC          _PCT_SETOSDCOLOR
  X:00A4H         SYMBOL        _pth
  X:00A5H         SYMBOL        _col_num
  D:0003H         SYMBOL        _y
  X:00A7H         SYMBOL        _cb
  X:00A8H         SYMBOL        _cr
  C:86E3H         LINE#         101
BL51 BANKED LINKER/LOCATER V6.22.2.0                                                  06/22/2021  15:07:28  PAGE 59


  C:86EAH         LINE#         102
  C:86EAH         LINE#         103
  C:86F3H         LINE#         104
  C:86FEH         LINE#         105
  C:870DH         LINE#         107
  C:8716H         LINE#         111
  C:871CH         LINE#         113
  C:872DH         LINE#         114
  -------         ENDPROC       _PCT_SETOSDCOLOR
  C:77BCH         SYMBOL        L?0139
  C:77C6H         SYMBOL        L?0141
  C:77D0H         SYMBOL        L?0145
  C:77D8H         SYMBOL        L?0148
  C:77E0H         SYMBOL        L?0165
  C:77E8H         SYMBOL        L?0176
  -------         PROC          PCT_INITOSDCOLOR
  C:76C1H         LINE#         120
  C:76C1H         LINE#         121
  C:76C1H         LINE#         122
  C:76CFH         LINE#         123
  C:76D9H         LINE#         124
  C:76DEH         LINE#         125
  C:76ECH         LINE#         126
  C:76F8H         LINE#         128
  C:7703H         LINE#         129
  C:770BH         LINE#         130
  C:7719H         LINE#         131
  C:7725H         LINE#         132
  C:7731H         LINE#         133
  C:773DH         LINE#         134
  C:7749H         LINE#         135
  C:7755H         LINE#         136
  C:7763H         LINE#         137
  C:7775H         LINE#         138
  C:7787H         LINE#         139
  C:7799H         LINE#         140
  C:77AAH         LINE#         141
  C:77B6H         LINE#         143
  C:77B9H         LINE#         144
  C:77BBH         LINE#         145
  -------         ENDPROC       PCT_INITOSDCOLOR
  -------         PROC          _PCT_SETOSDDRAWPAGE
  X:00AAH         SYMBOL        _page
  C:8FD4H         LINE#         151
  C:8FD7H         LINE#         152
  C:8FD7H         LINE#         153
  C:8FEBH         LINE#         154
  -------         ENDPROC       _PCT_SETOSDDRAWPAGE
  C:8CE7H         SYMBOL        L?0177
  -------         PROC          _PCT_ENSHOWOSDPAGE
  X:00AAH         SYMBOL        _page
  C:8CC6H         LINE#         161
  C:8CCAH         LINE#         162
  C:8CCAH         LINE#         163
  C:8CD2H         LINE#         164
  C:8CD5H         LINE#         165
  C:8CD7H         LINE#         166
BL51 BANKED LINKER/LOCATER V6.22.2.0                                                  06/22/2021  15:07:28  PAGE 60


  C:8CD9H         LINE#         167
  C:8CDDH         LINE#         168
  C:8CE6H         LINE#         169
  C:8CE6H         LINE#         170
  -------         ENDPROC       _PCT_ENSHOWOSDPAGE
  -------         PROC          _PCT_DISSHOWOSDPAGE
  X:00A4H         SYMBOL        _bit
  -------         DO            
  D:0006H         SYMBOL        dat
  -------         ENDDO         
  C:8FF1H         LINE#         176
  C:8FF4H         LINE#         177
  C:8FF4H         LINE#         179
  C:9000H         LINE#         180
  -------         ENDPROC       _PCT_DISSHOWOSDPAGE
  -------         PROC          _PCT_FULLCOLORONOSD
  X:00A4H         SYMBOL        _posx
  X:00A5H         SYMBOL        _posy
  X:00A7H         SYMBOL        _wide
  X:00A8H         SYMBOL        _high
  C:80A1H         LINE#         189
  C:80A3H         LINE#         190
  C:80A3H         LINE#         191
  C:80A9H         LINE#         192
  C:80AFH         LINE#         193
  C:80B5H         LINE#         194
  C:80BBH         LINE#         196
  C:80C1H         LINE#         197
  C:80D5H         LINE#         198
  C:80E2H         LINE#         199
  C:80FBH         LINE#         201
  C:8102H         LINE#         202
  C:810AH         LINE#         203
  C:8112H         LINE#         204
  C:811AH         LINE#         205
  C:8125H         LINE#         207
  C:8134H         LINE#         208
  C:813EH         LINE#         209
  -------         ENDPROC       _PCT_FULLCOLORONOSD
  -------         PROC          _PCT_CLEAROSDPAGEX
  D:0007H         SYMBOL        _page
  C:9043H         LINE#         211
  C:9043H         LINE#         212
  C:9043H         LINE#         213
  C:9046H         LINE#         215
  C:904BH         LINE#         216
  -------         ENDPROC       _PCT_CLEAROSDPAGEX
  C:72A1H         SYMBOL        L?0127
  C:72C0H         SYMBOL        L?0138
  C:72CEH         SYMBOL        L?0140
  C:72DCH         SYMBOL        L?0192
  -------         PROC          _PCT_WRITEOSDDATABUFFERX
  X:00C4H         SYMBOL        _index
  X:00C5H         SYMBOL        _dat
  C:717AH         LINE#         223
  C:717FH         LINE#         224
  C:717FH         LINE#         225
BL51 BANKED LINKER/LOCATER V6.22.2.0                                                  06/22/2021  15:07:28  PAGE 61


  C:7189H         LINE#         226
  C:7199H         LINE#         227
  C:71A5H         LINE#         228
  C:71B1H         LINE#         229
  C:71BAH         LINE#         230
  C:71BDH         LINE#         231
  C:71C2H         LINE#         233
  C:71D4H         LINE#         234
  C:71E0H         LINE#         235
  C:71ECH         LINE#         236
  C:71F5H         LINE#         237
  C:71F8H         LINE#         238
  C:71FDH         LINE#         240
  C:7206H         LINE#         241
  C:7218H         LINE#         242
  C:7228H         LINE#         243
  C:7238H         LINE#         244
  C:7245H         LINE#         245
  C:724BH         LINE#         246
  C:7250H         LINE#         248
  C:7262H         LINE#         249
  C:7274H         LINE#         250
  C:7286H         LINE#         251
  C:7298H         LINE#         252
  C:72A1H         LINE#         253
  -------         ENDPROC       _PCT_WRITEOSDDATABUFFERX
  -------         PROC          _PCT_WRITEOSDFNTX
  D:0007H         SYMBOL        _posx
  X:00B2H         SYMBOL        _posy
  X:00B4H         SYMBOL        _len
  X:00B5H         SYMBOL        _indx
  -------         DO            
  D:0029H         SYMBOL        i
  D:002AH         SYMBOL        j
  D:002BH         SYMBOL        posx
  X:00B8H         SYMBOL        charPtr
  -------         ENDDO         
  C:7C4DH         LINE#         263
  C:7C52H         LINE#         264
  C:7C52H         LINE#         268
  C:7C55H         LINE#         269
  C:7C5AH         LINE#         270
  C:7C6CH         LINE#         271
  C:7C76H         LINE#         272
  C:7C80H         LINE#         273
  C:7C88H         LINE#         274
  C:7C93H         LINE#         275
  C:7CA3H         LINE#         277
  C:7CB2H         LINE#         278
  C:7CC3H         LINE#         279
  C:7CEFH         LINE#         280
  C:7CF7H         LINE#         281
  C:7CFFH         LINE#         283
  C:7D08H         LINE#         284
  C:7D14H         LINE#         285
  C:7D1EH         LINE#         287
  C:7D29H         LINE#         288
BL51 BANKED LINKER/LOCATER V6.22.2.0                                                  06/22/2021  15:07:28  PAGE 62


  C:7D35H         LINE#         289
  C:7D3FH         LINE#         291
  C:7D44H         LINE#         292
  C:7D4BH         LINE#         293
  -------         ENDPROC       _PCT_WRITEOSDFNTX
  -------         PROC          _PCT_CLEARWORDSPATHX
  X:00A7H         SYMBOL        _posx
  X:00A8H         SYMBOL        _posy
  X:00AAH         SYMBOL        _len
  -------         DO            
  X:00ABH         SYMBOL        wide
  X:00ACH         SYMBOL        high
  -------         ENDDO         
  C:8000H         LINE#         302
  C:8002H         LINE#         303
  C:8002H         LINE#         307
  C:8008H         LINE#         308
  C:800EH         LINE#         309
  C:8014H         LINE#         310
  C:801AH         LINE#         312
  C:8021H         LINE#         313
  C:8024H         LINE#         314
  C:8034H         LINE#         316
  C:803CH         LINE#         320
  C:804DH         LINE#         321
  C:805BH         LINE#         323
  C:8064H         LINE#         324
  C:806CH         LINE#         325
  C:8074H         LINE#         326
  C:807CH         LINE#         327
  C:8087H         LINE#         329
  C:8096H         LINE#         330
  C:80A0H         LINE#         331
  -------         ENDPROC       _PCT_CLEARWORDSPATHX
  -------         PROC          _PCT_WRITEOSDDATABUFFERY
  X:00D0H         SYMBOL        _index
  X:00D1H         SYMBOL        _dat
  C:7910H         LINE#         337
  C:7915H         LINE#         338
  C:7915H         LINE#         339
  C:791FH         LINE#         340
  C:793EH         LINE#         341
  C:795DH         LINE#         342
  C:797CH         LINE#         343
  C:799BH         LINE#         344
  C:79A1H         LINE#         346
  C:79ABH         LINE#         347
  C:79CAH         LINE#         348
  C:79E9H         LINE#         349
  C:7A08H         LINE#         350
  C:7A27H         LINE#         351
  -------         ENDPROC       _PCT_WRITEOSDDATABUFFERY
  -------         PROC          _PCT_WRITEOSDFNTY
  X:00B1H         SYMBOL        _posx
  X:00B2H         SYMBOL        _posy
  X:00B4H         SYMBOL        _len
  X:00B5H         SYMBOL        _indx
BL51 BANKED LINKER/LOCATER V6.22.2.0                                                  06/22/2021  15:07:28  PAGE 63


  -------         DO            
  D:0029H         SYMBOL        i
  D:002AH         SYMBOL        j
  X:00B8H         SYMBOL        charPtr
  -------         ENDDO         
  C:7E46H         LINE#         362
  C:7E4EH         LINE#         363
  C:7E4EH         LINE#         367
  C:7E55H         LINE#         368
  C:7E58H         LINE#         369
  C:7E68H         LINE#         370
  C:7E70H         LINE#         372
  C:7E7FH         LINE#         373
  C:7E8CH         LINE#         374
  C:7EABH         LINE#         376
  C:7EB9H         LINE#         377
  C:7EE3H         LINE#         378
  C:7EECH         LINE#         379
  C:7EF4H         LINE#         380
  C:7F0DH         LINE#         381
  C:7F19H         LINE#         382
  C:7F23H         LINE#         383
  C:7F28H         LINE#         384
  C:7F2FH         LINE#         385
  -------         ENDPROC       _PCT_WRITEOSDFNTY
  -------         PROC          _PCT_SHOWOSDSTRING
  X:00AAH         SYMBOL        _path
  X:00ABH         SYMBOL        _addrx
  X:00ACH         SYMBOL        _addry
  X:00ADH         SYMBOL        _strptr
  -------         DO            
  X:00B0H         SYMBOL        slen
  -------         ENDDO         
  C:846FH         LINE#         391
  C:8475H         LINE#         392
  C:8475H         LINE#         395
  C:8480H         LINE#         396
  C:848AH         LINE#         398
  C:8493H         LINE#         402
  C:8493H         LINE#         403
  C:8493H         LINE#         404
  C:849FH         LINE#         405
  C:84A5H         LINE#         406
  C:84A9H         LINE#         407
  C:84A9H         LINE#         408
  C:84AEH         LINE#         409
  C:84B0H         LINE#         410
  C:84B0H         LINE#         411
  C:84BCH         LINE#         412
  C:84C2H         LINE#         413
  C:84C6H         LINE#         414
  C:84C6H         LINE#         415
  C:84CBH         LINE#         416
  C:84CBH         LINE#         417
  C:84CEH         LINE#         418
  -------         ENDPROC       _PCT_SHOWOSDSTRING
  -------         ENDMOD        OSDCTRL
BL51 BANKED LINKER/LOCATER V6.22.2.0                                                  06/22/2021  15:07:28  PAGE 64



  -------         MODULE        TIMER
  C:0000H         SYMBOL        _ICE_DUMMY_
  D:0090H         PUBLIC        P1
  D:00B0H         PUBLIC        P3
  C:8F43H         PUBLIC        InitialTimer0
  B:00A8H.7       PUBLIC        EA
  C:868FH         PUBLIC        Timer0_interrupt
  D:00A8H         PUBLIC        IE
  D:00B8H         PUBLIC        IP
  D:00D8H         PUBLIC        CCON
  D:00C0H         PUBLIC        WDTC
  D:0098H         PUBLIC        SCON
  D:0088H         PUBLIC        TCON
  D:0010H         PUBLIC        user_timer
  B:00A8H.1       PUBLIC        ET0
  B:0088H.5       PUBLIC        TF0
  D:008CH         PUBLIC        TH0
  D:00E8H         PUBLIC        IEA
  D:008AH         PUBLIC        TL0
  B:00B8H.1       PUBLIC        PT0
  B:0088H.4       PUBLIC        TR0
  D:00F8H         PUBLIC        IPA
  D:00C8H         PUBLIC        T2CON
  D:00D0H         PUBLIC        PSW
  -------         PROC          INITIALTIMER0
  -------         DO            
  D:0007H         SYMBOL        i
  -------         ENDDO         
  C:8F43H         LINE#         63
  C:8F43H         LINE#         66
  C:8F45H         LINE#         67
  C:8F47H         LINE#         68
  C:8F4AH         LINE#         69
  C:8F4DH         LINE#         70
  C:8F4FH         LINE#         72
  C:8F5BH         LINE#         73
  C:8F68H         LINE#         74
  -------         ENDPROC       INITIALTIMER0
  -------         PROC          TIMER0_INTERRUPT
  C:868FH         LINE#         80
  C:8693H         LINE#         82
  C:8695H         LINE#         83
  C:8698H         LINE#         84
  C:869BH         LINE#         85
  C:869DH         LINE#         87
  C:86B2H         LINE#         88
  C:86C7H         LINE#         89
  C:86DCH         LINE#         91
  C:86DEH         LINE#         92
  -------         ENDPROC       TIMER0_INTERRUPT
  -------         ENDMOD        TIMER

  -------         MODULE        TW28XX_AUDIO
  C:0000H         SYMBOL        _ICE_DUMMY_
  D:0090H         PUBLIC        P1
  D:00B0H         PUBLIC        P3
BL51 BANKED LINKER/LOCATER V6.22.2.0                                                  06/22/2021  15:07:28  PAGE 65


  C:840EH         PUBLIC        _PCT_AudioMixCtrl
  C:8CFBH         PUBLIC        _PCT_AudioMixMute
  D:00A8H         PUBLIC        IE
  D:00B8H         PUBLIC        IP
  D:00D8H         PUBLIC        CCON
  D:00C0H         PUBLIC        WDTC
  D:0098H         PUBLIC        SCON
  D:0088H         PUBLIC        TCON
  D:00E8H         PUBLIC        IEA
  C:8587H         PUBLIC        _PCT_AudioGainCtrl
  D:00F8H         PUBLIC        IPA
  D:00C8H         PUBLIC        T2CON
  C:8E7BH         PUBLIC        _PCT_AudioSelLive
  D:00D0H         PUBLIC        PSW
  C:6997H         PUBLIC        PCT_AudioRegList
  C:8AEAH         SYMBOL        Com0017
  C:8AEAH         SYMBOL        L?0024
  C:8AECH         SYMBOL        L?0025
  C:8AF8H         SYMBOL        L?0026
  C:8B04H         SYMBOL        L?0028
  C:8B07H         SYMBOL        L?0029
  C:8B13H         SYMBOL        L?0031
  C:8B1FH         SYMBOL        L?0032
  -------         PROC          COM0017
  -------         ENDPROC       COM0017
  C:6A89H         SYMBOL        L?0014
  C:6A9BH         SYMBOL        L?0015
  C:6AADH         SYMBOL        L?0016
  C:6ABFH         SYMBOL        L?0017
  C:6AD1H         SYMBOL        L?0018
  C:6AE3H         SYMBOL        L?0019
  C:6AF5H         SYMBOL        L?0020
  C:6B07H         SYMBOL        L?0021
  C:6B19H         SYMBOL        L?0022
  C:6B2BH         SYMBOL        L?0027
  C:6B3DH         SYMBOL        L?0030
  -------         PROC          PCT_AUDIOREGLIST
  C:6997H         LINE#         60
  C:6997H         LINE#         61
  C:6997H         LINE#         62
  C:69A2H         LINE#         63
  C:69ADH         LINE#         64
  C:69B8H         LINE#         65
  C:69C3H         LINE#         66
  C:69CEH         LINE#         68
  C:69D9H         LINE#         69
  C:69E4H         LINE#         70
  C:69EFH         LINE#         71
  C:69FAH         LINE#         72
  C:6A05H         LINE#         73
  C:6A10H         LINE#         74
  C:6A1BH         LINE#         75
  C:6A26H         LINE#         77
  C:6A31H         LINE#         78
  C:6A3CH         LINE#         79
  C:6A47H         LINE#         80
  C:6A52H         LINE#         81
BL51 BANKED LINKER/LOCATER V6.22.2.0                                                  06/22/2021  15:07:28  PAGE 66


  C:6A5DH         LINE#         83
  C:6A68H         LINE#         84
  C:6A73H         LINE#         85
  C:6A7EH         LINE#         86
  C:6A89H         LINE#         87
  -------         ENDPROC       PCT_AUDIOREGLIST
  -------         PROC          _PCT_AUDIOGAINCTRL
  D:0007H         SYMBOL        _dvc
  X:00AAH         SYMBOL        _channel
  X:00ABH         SYMBOL        _gain
  -------         DO            
  D:0004H         SYMBOL        dat
  X:00ACH         SYMBOL        result
  C:8B43H         SYMBOL        chanData
  -------         ENDDO         
  C:8587H         LINE#         93
  C:858EH         LINE#         94
  C:858EH         LINE#         110
  C:8590H         LINE#         111
  C:859DH         LINE#         113
  C:85ACH         LINE#         114
  C:85C1H         LINE#         116
  C:85D0H         LINE#         117
  C:85DFH         LINE#         118
  C:85E1H         LINE#         119
  -------         ENDPROC       _PCT_AUDIOGAINCTRL
  -------         PROC          _PCT_AUDIOMIXCTRL
  X:00AAH         SYMBOL        _dvc
  X:00ABH         SYMBOL        _channel
  X:00ACH         SYMBOL        _gain
  -------         DO            
  D:0004H         SYMBOL        dat
  X:00ADH         SYMBOL        result
  C:8B57H         SYMBOL        chanData
  -------         ENDDO         
  C:840EH         LINE#         126
  C:8418H         LINE#         127
  C:8418H         LINE#         143
  C:841CH         LINE#         144
  C:8427H         LINE#         146
  C:8436H         LINE#         147
  C:844BH         LINE#         149
  C:8457H         LINE#         150
  C:8463H         LINE#         152
  C:846CH         LINE#         153
  C:846EH         LINE#         154
  -------         ENDPROC       _PCT_AUDIOMIXCTRL
  -------         PROC          _PCT_AUDIOMIXMUTE
  D:0007H         SYMBOL        _dvc
  X:00AAH         SYMBOL        _ch
  X:00ABH         SYMBOL        _ctrl
  -------         DO            
  D:0031H         SYMBOL        dat
  -------         ENDDO         
  C:8CFBH         LINE#         160
  C:8D02H         LINE#         161
  C:8D02H         LINE#         167
BL51 BANKED LINKER/LOCATER V6.22.2.0                                                  06/22/2021  15:07:28  PAGE 67


  C:8D04H         LINE#         168
  C:8D0CH         LINE#         169
  C:8D13H         LINE#         170
  C:8D18H         LINE#         171
  C:8D1AH         LINE#         172
  C:8D1FH         LINE#         173
  C:8D1FH         LINE#         174
  C:8D2CH         LINE#         176
  C:8D2EH         LINE#         177
  -------         ENDPROC       _PCT_AUDIOMIXMUTE
  -------         PROC          _PCT_AUDIOSELLIVE
  D:0007H         SYMBOL        _dvc
  X:00AEH         SYMBOL        _chan
  C:8E7BH         LINE#         183
  C:8E7FH         LINE#         184
  C:8E7FH         LINE#         188
  C:8E81H         LINE#         189
  C:8E85H         LINE#         190
  C:8E8EH         LINE#         191
  C:8E90H         LINE#         192
  C:8E90H         LINE#         194
  C:8E96H         LINE#         195
  C:8EA1H         LINE#         196
  C:8EA3H         LINE#         197
  -------         ENDPROC       _PCT_AUDIOSELLIVE
  -------         ENDMOD        TW28XX_AUDIO

  -------         MODULE        TW28XX_VIDEO
  C:0000H         SYMBOL        _ICE_DUMMY_
  C:8BA9H         PUBLIC        _PCT_WinAttrClear
  D:0090H         PUBLIC        P1
  D:00B0H         PUBLIC        P3
  C:4AFAH         PUBLIC        VidoW2_ModifyACHM
  C:8C58H         PUBLIC        _PCT_WinAttrCtrlY
  C:4AEEH         PUBLIC        VidoW2_ModifyACNM
  C:88C5H         PUBLIC        _PCT_DetectVideoFormat
  D:00A8H         PUBLIC        IE
  C:4ADEH         PUBLIC        Video_HDelay
  C:4B12H         PUBLIC        VidoW2_ModifyRBHM
  C:77F0H         PUBLIC        _PCT_RecompenseYHdelay
  D:00B8H         PUBLIC        IP
  C:4B06H         PUBLIC        VidoW2_ModifyRBNM
  C:4BABH         PUBLIC        XWinAttr_RegAddr
  D:00D8H         PUBLIC        CCON
  C:4BCBH         PUBLIC        YWinAttr_RegAddr
  C:4AC0H         PUBLIC        Video_HDelayInit
  C:53B1H         PUBLIC        _PCT_SetVideoHDelay
  C:8DC8H         PUBLIC        _PCT_WinAttrCtrl
  C:813FH         PUBLIC        _PCT_SetChanelScale
  D:00C0H         PUBLIC        WDTC
  D:0098H         PUBLIC        SCON
  D:0088H         PUBLIC        TCON
  C:6B4FH         PUBLIC        _PCT_SetXVideoMixing
  C:90E1H         PUBLIC        _PCT_SetYVideoMixing
  C:4B2AH         PUBLIC        Init_Vido_Y
  C:4B1EH         PUBLIC        VidoW2_ModifyACHM_PAL
  D:00E8H         PUBLIC        IEA
BL51 BANKED LINKER/LOCATER V6.22.2.0                                                  06/22/2021  15:07:28  PAGE 68


  D:00F8H         PUBLIC        IPA
  C:8EF4H         PUBLIC        _PCT_SetVideoFormat
  D:00C8H         PUBLIC        T2CON
  C:4790H         PUBLIC        Init_Vido_W1
  C:4802H         PUBLIC        Init_Vido_W2
  C:4886H         PUBLIC        Init_Vido_W3
  C:4BBBH         PUBLIC        XWinPOP_RegAddr
  C:4A4EH         PUBLIC        Init_Vido_W4
  D:00D0H         PUBLIC        PSW
  C:7B44H         SYMBOL        Com006B
  C:7B44H         SYMBOL        L?0108
  C:7B44H         SYMBOL        L?0109
  C:7B49H         SYMBOL        L?0110
  C:7B50H         SYMBOL        L?0111
  C:7B5AH         SYMBOL        L?0112
  C:7B63H         SYMBOL        L?0113
  C:7B65H         SYMBOL        L?0114
  C:7B66H         SYMBOL        L?0115
  C:7B68H         SYMBOL        L?0116
  C:7B71H         SYMBOL        L?0128
  C:7B74H         SYMBOL        L?0129
  C:7B82H         SYMBOL        L?0131
  C:7B83H         SYMBOL        L?0132
  C:7B8CH         SYMBOL        L?0133
  C:7B98H         SYMBOL        L?0135
  C:7B98H         SYMBOL        L?0136
  C:7B9CH         SYMBOL        L?0137
  C:7B9FH         SYMBOL        L?0138
  C:7BA7H         SYMBOL        L?0139
  C:7BA7H         SYMBOL        L?0140
  C:7BAAH         SYMBOL        L?0141
  C:7BADH         SYMBOL        L?0142
  C:7BBBH         SYMBOL        L?0145
  C:7BBBH         SYMBOL        L?0146
  C:7BC5H         SYMBOL        L?0147
  C:7BC5H         SYMBOL        L?0148
  C:7BC8H         SYMBOL        L?0149
  C:7BD0H         SYMBOL        L?0150
  C:7BF2H         SYMBOL        L?0151
  C:7BF2H         SYMBOL        L?0152
  C:7BF8H         SYMBOL        L?0154
  C:7BF8H         SYMBOL        L?0155
  C:7BFEH         SYMBOL        L?0158
  C:7C03H         SYMBOL        L?0159
  C:7C0AH         SYMBOL        L?0161
  C:7C0AH         SYMBOL        L?0162
  C:7C15H         SYMBOL        L?0163
  C:7C1CH         SYMBOL        L?0164
  C:7C23H         SYMBOL        L?0165
  C:7C23H         SYMBOL        L?0166
  C:7C29H         SYMBOL        L?0167
  C:7C29H         SYMBOL        L?0168
  C:7C31H         SYMBOL        L?0171
  C:7C3CH         SYMBOL        L?0173
  C:7C3CH         SYMBOL        L?0174
  C:7C43H         SYMBOL        L?0175
  -------         PROC          COM006B
BL51 BANKED LINKER/LOCATER V6.22.2.0                                                  06/22/2021  15:07:28  PAGE 69


  -------         ENDPROC       COM006B
  -------         PROC          _PCT_DETECTVIDEOFORMAT
  X:00A4H         SYMBOL        _ch
  -------         DO            
  X:00A5H         SYMBOL        tmpSta
  -------         ENDDO         
  C:88C5H         LINE#         75
  C:88C9H         LINE#         76
  C:88C9H         LINE#         82
  C:88CCH         LINE#         84
  C:88DAH         LINE#         85
  C:88EBH         LINE#         87
  C:88F1H         LINE#         88
  C:88F4H         LINE#         90
  C:88FAH         LINE#         91
  C:8900H         LINE#         92
  C:890FH         LINE#         103
  -------         ENDPROC       _PCT_DETECTVIDEOFORMAT
  -------         PROC          _PCT_SETVIDEOFORMAT
  D:0007H         SYMBOL        _dvc
  D:0005H         SYMBOL        _ch
  X:00AAH         SYMBOL        _fmat
  -------         DO            
  D:0007H         SYMBOL        tmpSta
  X:00ABH         SYMBOL        addr
  -------         ENDDO         
  C:8EF4H         LINE#         109
  C:8EF8H         LINE#         110
  C:8EF8H         LINE#         113
  C:8EF8H         LINE#         114
  C:8F03H         LINE#         115
  C:8F09H         LINE#         118
  C:8F0DH         LINE#         120
  C:8F12H         LINE#         121
  -------         ENDPROC       _PCT_SETVIDEOFORMAT
  C:819DH         SYMBOL        L?0127
  -------         PROC          _PCT_SETCHANELSCALE
  D:0007H         SYMBOL        _ch
  X:00ABH         SYMBOL        datptr
  -------         DO            
  C:4BD3H         SYMBOL        ScaleRgeAddr
  X:00AEH         SYMBOL        addrptr
  X:00B1H         SYMBOL        value
  -------         ENDDO         
  C:813FH         LINE#         130
  C:8145H         LINE#         131
  C:8145H         LINE#         143
  C:8155H         LINE#         144
  C:8167H         LINE#         145
  C:816CH         LINE#         146
  C:816CH         LINE#         147
  C:8177H         LINE#         148
  C:8182H         LINE#         149
  C:8192H         LINE#         150
  C:8192H         LINE#         151
  C:819DH         LINE#         152
  -------         ENDPROC       _PCT_SETCHANELSCALE
BL51 BANKED LINKER/LOCATER V6.22.2.0                                                  06/22/2021  15:07:28  PAGE 70


  C:55C1H         SYMBOL        L?0117
  C:55DDH         SYMBOL        L?0118
  C:55F9H         SYMBOL        L?0119
  C:5615H         SYMBOL        L?0120
  C:562EH         SYMBOL        L?0121
  C:564AH         SYMBOL        L?0122
  C:5661H         SYMBOL        L?0123
  C:567AH         SYMBOL        L?0124
  C:568EH         SYMBOL        L?0125
  C:56A2H         SYMBOL        L?0126
  C:56BEH         SYMBOL        L?0130
  C:56D5H         SYMBOL        L?0134
  C:56EEH         SYMBOL        L?0143
  C:5702H         SYMBOL        L?0157
  -------         PROC          _PCT_SETVIDEOHDELAY
  D:0007H         SYMBOL        _typ
  X:00A5H         SYMBOL        _winch
  X:00A8H         SYMBOL        _cattr
  -------         DO            
  X:00ABH         SYMBOL        hdelay
  -------         ENDDO         
  C:53B1H         LINE#         155
  C:53B7H         LINE#         156
  C:53B7H         LINE#         164
  C:53E9H         LINE#         165
  C:53E9H         LINE#         166
  C:53E9H         LINE#         171
  C:53EEH         LINE#         172
  C:53F7H         LINE#         173
  C:5403H         LINE#         174
  C:5409H         LINE#         176
  C:540BH         LINE#         177
  C:5414H         LINE#         178
  C:541AH         LINE#         179
  C:541DH         LINE#         181
  C:541DH         LINE#         182
  C:541DH         LINE#         184
  C:541DH         LINE#         185
  C:5426H         LINE#         186
  C:542EH         LINE#         187
  C:5434H         LINE#         189
  C:5439H         LINE#         190
  C:5439H         LINE#         191
  C:5444H         LINE#         192
  C:544AH         LINE#         194
  C:544DH         LINE#         196
  C:544DH         LINE#         197
  C:544DH         LINE#         199
  C:544DH         LINE#         200
  C:5457H         LINE#         201
  C:545FH         LINE#         202
  C:5465H         LINE#         204
  C:5465H         LINE#         205
  C:5465H         LINE#         206
  C:5470H         LINE#         207
  C:5476H         LINE#         208
  C:5479H         LINE#         210
BL51 BANKED LINKER/LOCATER V6.22.2.0                                                  06/22/2021  15:07:28  PAGE 71


  C:5479H         LINE#         211
  C:5479H         LINE#         213
  C:5479H         LINE#         214
  C:5482H         LINE#         215
  C:548AH         LINE#         216
  C:5490H         LINE#         218
  C:5490H         LINE#         219
  C:549CH         LINE#         220
  C:54A4H         LINE#         221
  C:54AAH         LINE#         223
  C:54B3H         LINE#         224
  C:54B6H         LINE#         225
  C:54C1H         LINE#         226
  C:54C7H         LINE#         227
  C:54CAH         LINE#         229
  C:54CAH         LINE#         230
  C:54CAH         LINE#         231
  C:54CAH         LINE#         233
  C:54CAH         LINE#         234
  C:54CAH         LINE#         237
  C:54CAH         LINE#         238
  C:54D4H         LINE#         239
  C:54DCH         LINE#         240
  C:54E2H         LINE#         242
  C:54E2H         LINE#         243
  C:54E2H         LINE#         244
  C:54EAH         LINE#         245
  C:54F0H         LINE#         247
  C:54F5H         LINE#         248
  C:54FEH         LINE#         249
  C:5509H         LINE#         250
  C:550FH         LINE#         251
  C:5512H         LINE#         253
  C:5512H         LINE#         254
  C:5512H         LINE#         257
  C:5512H         LINE#         258
  C:551CH         LINE#         259
  C:5524H         LINE#         260
  C:552AH         LINE#         262
  C:552AH         LINE#         263
  C:552AH         LINE#         264
  C:5532H         LINE#         265
  C:5538H         LINE#         267
  C:5538H         LINE#         268
  C:5544H         LINE#         269
  C:554CH         LINE#         270
  C:5552H         LINE#         271
  C:5555H         LINE#         273
  C:5555H         LINE#         274
  C:5555H         LINE#         277
  C:5555H         LINE#         278
  C:555FH         LINE#         279
  C:5567H         LINE#         280
  C:556DH         LINE#         282
  C:556DH         LINE#         283
  C:556DH         LINE#         284
  C:5575H         LINE#         285
BL51 BANKED LINKER/LOCATER V6.22.2.0                                                  06/22/2021  15:07:28  PAGE 72


  C:557BH         LINE#         287
  C:557BH         LINE#         288
  C:5587H         LINE#         289
  C:558FH         LINE#         290
  C:559BH         LINE#         292
  C:55A0H         LINE#         293
  C:55A9H         LINE#         294
  C:55B4H         LINE#         295
  C:55C0H         LINE#         296
  C:55C0H         LINE#         298
  C:55C0H         LINE#         299
  C:55C0H         LINE#         300
  C:55C0H         LINE#         301
  -------         ENDPROC       _PCT_SETVIDEOHDELAY
  C:6CCFH         SYMBOL        L?0156
  C:6CDCH         SYMBOL        L?0169
  -------         PROC          _PCT_SETXVIDEOMIXING
  X:00A4H         SYMBOL        _typ
  X:00A5H         SYMBOL        _winch
  -------         DO            
  X:00A8H         SYMBOL        wregptr
  -------         ENDDO         
  C:6B4FH         LINE#         304
  C:6B58H         LINE#         305
  C:6B58H         LINE#         308
  C:6B68H         LINE#         309
  C:6B78H         LINE#         310
  C:6B8CH         LINE#         311
  C:6BA0H         LINE#         313
  C:6BD6H         LINE#         314
  C:6BD6H         LINE#         315
  C:6BD6H         LINE#         319
  C:6BE5H         LINE#         320
  C:6BEFH         LINE#         321
  C:6BEFH         LINE#         322
  C:6BF2H         LINE#         324
  C:6BF2H         LINE#         325
  C:6BF2H         LINE#         326
  C:6BF2H         LINE#         327
  C:6BF2H         LINE#         328
  C:6C01H         LINE#         329
  C:6C03H         LINE#         331
  C:6C14H         LINE#         332
  C:6C1FH         LINE#         333
  C:6C1FH         LINE#         334
  C:6C22H         LINE#         336
  C:6C22H         LINE#         337
  C:6C22H         LINE#         338
  C:6C22H         LINE#         339
  C:6C22H         LINE#         340
  C:6C22H         LINE#         341
  C:6C22H         LINE#         342
  C:6C22H         LINE#         343
  C:6C22H         LINE#         344
  C:6C31H         LINE#         345
  C:6C33H         LINE#         347
  C:6C44H         LINE#         348
BL51 BANKED LINKER/LOCATER V6.22.2.0                                                  06/22/2021  15:07:28  PAGE 73


  C:6C58H         LINE#         349
  C:6C69H         LINE#         350
  C:6C6EH         LINE#         351
  C:6C71H         LINE#         353
  C:6C71H         LINE#         354
  C:6C71H         LINE#         355
  C:6C80H         LINE#         356
  C:6C90H         LINE#         357
  C:6CA1H         LINE#         358
  C:6CB2H         LINE#         359
  C:6CC0H         LINE#         360
  C:6CCEH         LINE#         361
  C:6CCEH         LINE#         363
  C:6CCEH         LINE#         364
  C:6CCEH         LINE#         365
  C:6CCEH         LINE#         366
  -------         ENDPROC       _PCT_SETXVIDEOMIXING
  -------         PROC          _PCT_SETYVIDEOMIXING
  D:0007H         SYMBOL        _typ
  C:90E1H         LINE#         372
  C:90E1H         LINE#         373
  C:90E1H         LINE#         374
  -------         ENDPROC       _PCT_SETYVIDEOMIXING
  C:78DDH         SYMBOL        L?0144
  C:78E8H         SYMBOL        L?0153
  C:78F3H         SYMBOL        L?0160
  C:78FEH         SYMBOL        L?0170
  C:7905H         SYMBOL        L?0172
  -------         PROC          _PCT_RECOMPENSEYHDELAY
  X:00A4H         SYMBOL        _chmiro
  C:77F0H         LINE#         378
  C:77F6H         LINE#         379
  C:77F6H         LINE#         380
  C:7820H         LINE#         381
  C:7820H         LINE#         383
  C:782EH         LINE#         384
  C:7837H         LINE#         385
  C:7848H         LINE#         386
  C:7851H         LINE#         387
  C:785FH         LINE#         388
  C:786BH         LINE#         389
  C:787CH         LINE#         390
  C:787CH         LINE#         391
  C:787FH         LINE#         393
  C:787FH         LINE#         394
  C:788DH         LINE#         395
  C:7893H         LINE#         396
  C:7896H         LINE#         398
  C:7896H         LINE#         399
  C:78A4H         LINE#         400
  C:78AAH         LINE#         401
  C:78ACH         LINE#         403
  C:78ACH         LINE#         404
  C:78BAH         LINE#         405
  C:78C0H         LINE#         406
  C:78C2H         LINE#         408
  C:78C2H         LINE#         409
BL51 BANKED LINKER/LOCATER V6.22.2.0                                                  06/22/2021  15:07:28  PAGE 74


  C:78D0H         LINE#         410
  C:78DCH         LINE#         411
  C:78DCH         LINE#         412
  C:78DCH         LINE#         413
  -------         ENDPROC       _PCT_RECOMPENSEYHDELAY
  -------         PROC          _PCT_WINATTRCTRL
  X:00AAH         SYMBOL        _wid
  X:00ABH         SYMBOL        _attrsel
  X:00ACH         SYMBOL        _setval
  -------         DO            
  D:0004H         SYMBOL        dat
  -------         ENDDO         
  C:8DC8H         LINE#         464
  C:8DD3H         LINE#         465
  C:8DD3H         LINE#         471
  C:8DDDH         LINE#         472
  C:8DEEH         LINE#         473
  -------         ENDPROC       _PCT_WINATTRCTRL
  -------         PROC          _PCT_WINATTRCTRLY
  X:00A4H         SYMBOL        _wid
  X:00A5H         SYMBOL        _attrsel
  X:00A6H         SYMBOL        _setval
  -------         DO            
  D:0004H         SYMBOL        dat
  -------         ENDDO         
  C:8C58H         LINE#         482
  C:8C63H         LINE#         483
  C:8C63H         LINE#         488
  C:8C70H         LINE#         489
  C:8C81H         LINE#         490
  -------         ENDPROC       _PCT_WINATTRCTRLY
  -------         PROC          _PCT_WINATTRCLEAR
  X:00A4H         SYMBOL        _attrsel
  -------         DO            
  X:00A5H         SYMBOL        _wid
  X:00A6H         SYMBOL        dat
  -------         ENDDO         
  C:8BA9H         LINE#         499
  C:8BADH         LINE#         500
  C:8BADH         LINE#         507
  C:8BBDH         LINE#         508
  C:8BCAH         LINE#         509
  C:8BD3H         LINE#         510
  C:8BDDH         LINE#         511
  C:8BE4H         LINE#         512
  -------         ENDPROC       _PCT_WINATTRCLEAR
  -------         ENDMOD        TW28XX_VIDEO

  -------         MODULE        TW2835_INIT
  C:0000H         SYMBOL        _ICE_DUMMY_
  D:0090H         PUBLIC        P1
  D:00B0H         PUBLIC        P3
  D:00A8H         PUBLIC        IE
  C:3911H         PUBLIC        TW2835_Page0
  C:3B11H         PUBLIC        TW2835_Page1
  C:3D11H         PUBLIC        TW2835_Page2
  C:8A26H         PUBLIC        PCT_InitialTW2835
BL51 BANKED LINKER/LOCATER V6.22.2.0                                                  06/22/2021  15:07:28  PAGE 75


  D:00B8H         PUBLIC        IP
  C:3D91H         PUBLIC        tbl_ntsc_pg1_pic_fl
  C:3DA1H         PUBLIC        tbl_ntsc_pg1_pic_qd
  C:911CH         PUBLIC        PCT_TW2835ResetN
  C:3DE1H         PUBLIC        tbl_pal_pg1_pic_qd
  D:00D8H         PUBLIC        CCON
  D:00C0H         PUBLIC        WDTC
  D:0098H         PUBLIC        SCON
  C:3DC1H         PUBLIC        tbl_ntsc_pg1_pic_9_rb
  D:0088H         PUBLIC        TCON
  C:3E01H         PUBLIC        tbl_pal_pg1_pic_9_rb
  C:3DB1H         PUBLIC        tbl_ntsc_pg1_pic_9_lt
  C:83ACH         PUBLIC        _PCT_ChangeSystemType
  C:3DF1H         PUBLIC        tbl_pal_pg1_pic_9_lt
  D:00E8H         PUBLIC        IEA
  D:00F8H         PUBLIC        IPA
  C:3DD1H         PUBLIC        tbl_ntsc_pg1_enc
  C:3E11H         PUBLIC        tbl_pal_pg1_enc
  D:00C8H         PUBLIC        T2CON
  B:00B0H.4       PUBLIC        RSTn
  C:6CE4H         PUBLIC        PCT_TW2835_Initial
  D:00D0H         PUBLIC        PSW
  C:905CH         SYMBOL        Com000F
  C:905CH         SYMBOL        L?0016
  C:9065H         SYMBOL        L?0017
  -------         PROC          COM000F
  -------         ENDPROC       COM000F
  -------         PROC          PCT_INITIALTW2835
  C:8A26H         LINE#         72
  C:8A26H         LINE#         73
  C:8A26H         LINE#         74
  C:8A29H         LINE#         75
  C:8A2DH         LINE#         78
  C:8A32H         LINE#         79
  C:8A3AH         LINE#         80
  C:8A49H         LINE#         81
  C:8A52H         LINE#         82
  C:8A54H         LINE#         83
  C:8A54H         LINE#         84
  C:8A5BH         LINE#         85
  C:8A5DH         LINE#         86
  C:8A62H         LINE#         88
  C:8A65H         LINE#         89
  -------         ENDPROC       PCT_INITIALTW2835
  -------         PROC          PCT_TW2835RESETN
  -------         DO            
  D:0006H         SYMBOL        _delay
  -------         ENDDO         
  C:911CH         LINE#         96
  C:911CH         LINE#         97
  C:911CH         LINE#         112
  C:911EH         LINE#         113
  C:912CH         LINE#         114
  C:912EH         LINE#         116
  -------         ENDPROC       PCT_TW2835RESETN
  C:6DF9H         SYMBOL        L?0018
  C:6E0FH         SYMBOL        L?0019
BL51 BANKED LINKER/LOCATER V6.22.2.0                                                  06/22/2021  15:07:28  PAGE 76


  C:6E25H         SYMBOL        L?0020
  C:6E32H         SYMBOL        L?0021
  C:6E42H         SYMBOL        L?0022
  C:6E50H         SYMBOL        L?0023
  C:6E5CH         SYMBOL        L?0025
  C:6E6AH         SYMBOL        L?0026
  -------         PROC          PCT_TW2835_INITIAL
  -------         DO            
  X:00A4H         SYMBOL        offset
  -------         ENDDO         
  C:6CE4H         LINE#         122
  C:6CE4H         LINE#         123
  C:6CE4H         LINE#         126
  C:6CEFH         LINE#         130
  C:6CF9H         LINE#         132
  C:6D09H         LINE#         133
  C:6D19H         LINE#         135
  C:6D2AH         LINE#         137
  C:6D3CH         LINE#         139
  C:6D4FH         LINE#         141
  C:6D5FH         LINE#         154
  C:6D6FH         LINE#         155
  C:6D7FH         LINE#         156
  C:6D96H         LINE#         158
  C:6D9DH         LINE#         159
  C:6DA6H         LINE#         160
  C:6DAEH         LINE#         161
  C:6DB9H         LINE#         162
  C:6DBDH         LINE#         163
  C:6DBFH         LINE#         164
  C:6DBFH         LINE#         165
  C:6DC8H         LINE#         166
  C:6DD8H         LINE#         167
  C:6DE0H         LINE#         168
  C:6DEBH         LINE#         169
  C:6DF8H         LINE#         170
  C:6DF8H         LINE#         172
  -------         ENDPROC       PCT_TW2835_INITIAL
  C:8403H         SYMBOL        L?0024
  -------         PROC          _PCT_CHANGESYSTEMTYPE
  D:0007H         SYMBOL        _sys
  -------         DO            
  X:009EH         SYMBOL        offset
  -------         ENDDO         
  C:83ACH         LINE#         178
  C:83ACH         LINE#         179
  C:83ACH         LINE#         182
  C:83B5H         LINE#         183
  C:83C0H         LINE#         185
  C:83D3H         LINE#         187
  C:83E9H         LINE#         188
  C:8403H         LINE#         189
  -------         ENDPROC       _PCT_CHANGESYSTEMTYPE
  -------         ENDMOD        TW2835_INIT

  -------         MODULE        ?C?CLDPTR
  C:4BE3H         PUBLIC        ?C?CLDPTR
BL51 BANKED LINKER/LOCATER V6.22.2.0                                                  06/22/2021  15:07:28  PAGE 77


  -------         ENDMOD        ?C?CLDPTR

  -------         MODULE        ?C?CLDOPTR
  C:4BFCH         PUBLIC        ?C?CLDOPTR
  -------         ENDMOD        ?C?CLDOPTR

  -------         MODULE        ?C?CSTPTR
  C:4C29H         PUBLIC        ?C?CSTPTR
  -------         ENDMOD        ?C?CSTPTR

  -------         MODULE        ?C?IMUL
  C:4C3BH         PUBLIC        ?C?IMUL
  -------         ENDMOD        ?C?IMUL

  -------         MODULE        ?C?ILDPTR
  C:4C4DH         PUBLIC        ?C?ILDPTR
  -------         ENDMOD        ?C?ILDPTR

  -------         MODULE        ?C?IILDOPTR
  C:4C78H         PUBLIC        ?C?IILDOPTR
  -------         ENDMOD        ?C?IILDOPTR

  -------         MODULE        ?C?ULCMP
  C:4CC5H         PUBLIC        ?C?ULCMP
  -------         ENDMOD        ?C?ULCMP

  -------         MODULE        ?C?PLDPTR
  C:4CD6H         PUBLIC        ?C?PLDPTR
  -------         ENDMOD        ?C?PLDPTR

  -------         MODULE        ?C?PSTPTR
  C:4CF6H         PUBLIC        ?C?PSTPTR
  -------         ENDMOD        ?C?PSTPTR

  -------         MODULE        ?C?CCASE
  C:4D45H         PUBLIC        ?C?CCASE
  -------         ENDMOD        ?C?CCASE

  -------         MODULE        PRINTF
  X:00A4H         PUBLIC        ?_PRINTF517?BYTE
  X:00A4H         PUBLIC        ?_PRINTF?BYTE
  X:00A4H         PUBLIC        ?_SPRINTF517?BYTE
  X:00A4H         PUBLIC        ?_SPRINTF?BYTE
  C:577AH         PUBLIC        _PRINTF
  C:577AH         PUBLIC        _PRINTF517
  C:5774H         PUBLIC        _SPRINTF
  C:5774H         PUBLIC        _SPRINTF517
  -------         ENDMOD        PRINTF

  -------         MODULE        PUTS
  C:8E51H         PUBLIC        _PUTS
  -------         ENDMOD        PUTS

  -------         MODULE        SCANF
  X:00AAH         PUBLIC        ?_SCANF517?BYTE
  X:00AAH         PUBLIC        ?_SCANF?BYTE
  X:00AAH         PUBLIC        ?_SSCANF517?BYTE
BL51 BANKED LINKER/LOCATER V6.22.2.0                                                  06/22/2021  15:07:28  PAGE 78


  X:00AAH         PUBLIC        ?_SSCANF?BYTE
  C:5AF5H         PUBLIC        _SCANF
  C:5AF5H         PUBLIC        _SCANF517
  C:5AF1H         PUBLIC        _SSCANF
  C:5AF1H         PUBLIC        _SSCANF517
  -------         ENDMOD        SCANF

  -------         MODULE        ?C?STRCMP
  C:4EE9H         PUBLIC        ?C?STRCMP
  -------         ENDMOD        ?C?STRCMP

  -------         MODULE        STRLEN
  C:000EH         PUBLIC        _STRLEN
  -------         ENDMOD        STRLEN

  -------         MODULE        ATOI
  C:7F30H         PUBLIC        _atoi
  -------         ENDMOD        ATOI

  -------         MODULE        ?C?IILDX
  C:4F06H         PUBLIC        ?C?IILDX
  -------         ENDMOD        ?C?IILDX

  -------         MODULE        ?C?ISTPTR
  C:4F1CH         PUBLIC        ?C?ISTPTR
  -------         ENDMOD        ?C?ISTPTR

  -------         MODULE        ?C?LNEG
  C:4F3BH         PUBLIC        ?C?LNEG
  -------         ENDMOD        ?C?LNEG

  -------         MODULE        ?C?LSTPTR
  C:4F49H         PUBLIC        ?C?LSTPTR
  -------         ENDMOD        ?C?LSTPTR

  -------         MODULE        ?C?PLDIDATA
  C:4F63H         PUBLIC        ?C?PLDIDATA
  -------         ENDMOD        ?C?PLDIDATA

  -------         MODULE        ?C?PSTIDATA
  C:4F6CH         PUBLIC        ?C?PSTIDATA
  -------         ENDMOD        ?C?PSTIDATA

  -------         MODULE        ?C?PLDXDATA
  C:4F75H         PUBLIC        ?C?PLDXDATA
  -------         ENDMOD        ?C?PLDXDATA

  -------         MODULE        ?C?PSTXDATA
  C:4F7EH         PUBLIC        ?C?PSTXDATA
  -------         ENDMOD        ?C?PSTXDATA

  -------         MODULE        ?C?PLDPDATA
  C:4F87H         PUBLIC        ?C?PLDPDATA
  -------         ENDMOD        ?C?PLDPDATA

  -------         MODULE        ?C?PLDIPDATA
  C:4F90H         PUBLIC        ?C?PLDIPDATA
BL51 BANKED LINKER/LOCATER V6.22.2.0                                                  06/22/2021  15:07:28  PAGE 79


  -------         ENDMOD        ?C?PLDIPDATA

  -------         MODULE        ?C?PILDPDATA
  C:4FA0H         PUBLIC        ?C?PILDPDATA
  -------         ENDMOD        ?C?PILDPDATA

  -------         MODULE        ?C?PSTPDATA
  C:4FB0H         PUBLIC        ?C?PSTPDATA
  -------         ENDMOD        ?C?PSTPDATA

  -------         MODULE        ?C?PLDCODE
  C:4FB9H         PUBLIC        ?C?PLDCODE
  -------         ENDMOD        ?C?PLDCODE

  -------         MODULE        PUTCHAR
  C:8F1CH         PUBLIC        _PUTCHAR
  -------         ENDMOD        PUTCHAR

  -------         MODULE        GETCHAR
  B:0024H.2       PUBLIC        ?C?CHARLOADED
  X:009AH         PUBLIC        ?_UNGETCHAR?BYTE
  C:912FH         PUBLIC        GETCHAR
  -------         ENDMOD        GETCHAR

  -------         MODULE        UNGETC
  C:91E2H         PUBLIC        _UNGETCHAR
  -------         ENDMOD        UNGETC

  -------         MODULE        ISDIGIT
  C:9191H         PUBLIC        _isdigit
  -------         ENDMOD        ISDIGIT

  -------         MODULE        ISSPACE
  C:90F5H         PUBLIC        _isspace
  -------         ENDMOD        ISSPACE

  -------         MODULE        ?C?LSTIDATA
  C:4FC5H         PUBLIC        ?C?LSTIDATA
  -------         ENDMOD        ?C?LSTIDATA

  -------         MODULE        ?C?LSTXDATA
  C:4FD1H         PUBLIC        ?C?LSTXDATA
  -------         ENDMOD        ?C?LSTXDATA

  -------         MODULE        ?C?LSTPDATA
  C:4FDDH         PUBLIC        ?C?LSTPDATA
  -------         ENDMOD        ?C?LSTPDATA

  -------         MODULE        _GETKEY
  C:91B7H         PUBLIC        _GETKEY
  -------         ENDMOD        _GETKEY

Program Size: data=46.3 xdata=218 code=37370
LINK/LOCATE RUN COMPLETE.  0 WARNING(S),  0 ERROR(S)
