BL51 BANKED LINKER/LOCATER V6.22                                                        03/28/2018  18:26:36  PAGE 1


BL51 BANKED LINKER/LOCATER V6.22, INVOKED BY:
C:\KEIL\C51\BIN\BL51.EXE .\OBJ\STARTUP.obj, .\OBJ\UART.obj, .\OBJ\BusCtrl.obj, .\OBJ\CommandShell.obj, .\OBJ\Main.obj, .
>> \OBJ\OSD_Graph.obj, .\OBJ\OSDAction.obj, .\OBJ\OSDCtrl.obj, .\OBJ\Timer.obj, .\OBJ\TW28xx_Audio.obj, .\OBJ\TW28xx_Vid
>> eo.obj, .\OBJ\TW2835_Init.obj TO .\OBJ\TW2835 PRINT (.\OBJ\TW2835.m51) RAMSIZE (256)


MEMORY MODEL: COMPACT


INPUT MODULES INCLUDED:
  .\OBJ\STARTUP.obj (?C_STARTUP)
  .\OBJ\UART.obj (UART)
  .\OBJ\BusCtrl.obj (BUSCTRL)
  .\OBJ\CommandShell.obj (COMMANDSHELL)
  .\OBJ\Main.obj (MAIN)
  .\OBJ\OSD_Graph.obj (OSD_GRAPH)
  .\OBJ\OSDAction.obj (OSDACTION)
  .\OBJ\OSDCtrl.obj (OSDCTRL)
  .\OBJ\Timer.obj (TIMER)
  .\OBJ\TW28xx_Audio.obj (TW28XX_AUDIO)
  .\OBJ\TW28xx_Video.obj (TW28XX_VIDEO)
  .\OBJ\TW2835_Init.obj (TW2835_INIT)
  C:\KEIL\C51\LIB\C51C.LIB (?C_INIT)
  C:\KEIL\C51\LIB\C51C.LIB (?C?CLDPTR)
  C:\KEIL\C51\LIB\C51C.LIB (?C?CLDOPTR)
  C:\KEIL\C51\LIB\C51C.LIB (?C?CSTPTR)
  C:\KEIL\C51\LIB\C51C.LIB (?C?IMUL)
  C:\KEIL\C51\LIB\C51C.LIB (?C?ILDPTR)
  C:\KEIL\C51\LIB\C51C.LIB (?C?IILDOPTR)
  C:\KEIL\C51\LIB\C51C.LIB (?C?ULCMP)
  C:\KEIL\C51\LIB\C51C.LIB (?C?PLDPTR)
  C:\KEIL\C51\LIB\C51C.LIB (?C?PSTPTR)
  C:\KEIL\C51\LIB\C51C.LIB (?C?CCASE)
  C:\KEIL\C51\LIB\C51C.LIB (PRINTF)
  C:\KEIL\C51\LIB\C51C.LIB (PUTS)
  C:\KEIL\C51\LIB\C51C.LIB (SCANF)
  C:\KEIL\C51\LIB\C51C.LIB (?C?STRCMP)
  C:\KEIL\C51\LIB\C51C.LIB (STRLEN)
  C:\KEIL\C51\LIB\C51C.LIB (ATOI)
  C:\KEIL\C51\LIB\C51C.LIB (?C?IILDX)
  C:\KEIL\C51\LIB\C51C.LIB (?C?ISTPTR)
  C:\KEIL\C51\LIB\C51C.LIB (?C?LNEG)
  C:\KEIL\C51\LIB\C51C.LIB (?C?LSTPTR)
  C:\KEIL\C51\LIB\C51C.LIB (?C?PLDIDATA)
  C:\KEIL\C51\LIB\C51C.LIB (?C?PSTIDATA)
  C:\KEIL\C51\LIB\C51C.LIB (?C?PLDXDATA)
  C:\KEIL\C51\LIB\C51C.LIB (?C?PSTXDATA)
  C:\KEIL\C51\LIB\C51C.LIB (?C?PLDPDATA)
  C:\KEIL\C51\LIB\C51C.LIB (?C?PLDIPDATA)
  C:\KEIL\C51\LIB\C51C.LIB (?C?PILDPDATA)
  C:\KEIL\C51\LIB\C51C.LIB (?C?PSTPDATA)
  C:\KEIL\C51\LIB\C51C.LIB (?C?PLDCODE)
  C:\KEIL\C51\LIB\C51C.LIB (PUTCHAR)
  C:\KEIL\C51\LIB\C51C.LIB (GETCHAR)
  C:\KEIL\C51\LIB\C51C.LIB (UNGETC)
  C:\KEIL\C51\LIB\C51C.LIB (ISDIGIT)
  C:\KEIL\C51\LIB\C51C.LIB (ISSPACE)
  C:\KEIL\C51\LIB\C51C.LIB (?C?LSTIDATA)
BL51 BANKED LINKER/LOCATER V6.22                                                      03/28/2018  18:26:36  PAGE 2


  C:\KEIL\C51\LIB\C51C.LIB (?C?LSTXDATA)
  C:\KEIL\C51\LIB\C51C.LIB (?C?LSTPDATA)
  C:\KEIL\C51\LIB\C51C.LIB (_GETKEY)


LINK MAP OF MODULE:  .\OBJ\TW2835 (?C_STARTUP)


            TYPE    BASE      LENGTH    RELOCATION   SEGMENT NAME
            -----------------------------------------------------

            * * * * * * *   D A T A   M E M O R Y   * * * * * * *
            REG     0000H     0008H     ABSOLUTE     "REG BANK 0"
            REG     0008H     0008H     ABSOLUTE     "REG BANK 1"
            DATA    0010H     0006H     UNIT         ?DT?TIMER
            DATA    0016H     0002H     UNIT         ?DT?OSDCTRL
                    0018H     0008H                  *** GAP ***
            DATA    0020H     0001H     BIT_ADDR     ?BA?MAIN
            DATA    0021H     0001H     BIT_ADDR     ?BA?OSDACTION
            DATA    0022H     0001H     BIT_ADDR     ?BA?OSDCTRL
            BIT     0023H.0   0001H.1   UNIT         _BIT_GROUP_
            BIT     0024H.1   0000H.1   UNIT         ?BI?MAIN
            BIT     0024H.2   0000H.1   UNIT         ?BI?GETCHAR
                    0024H.3   0000H.5                *** GAP ***
            DATA    0025H     0011H     UNIT         _DATA_GROUP_
            IDATA   0036H     0001H     UNIT         ?STACK

            * * * * * * *  X D A T A   M E M O R Y  * * * * * * *
            XDATA   0000H     0052H     INPAGE       ?PD?UART
            XDATA   0052H     0019H     INPAGE       ?PD?COMMANDSHELL
            XDATA   006BH     002DH     INPAGE       ?PD?MAIN
            XDATA   0098H     0001H     INPAGE       ?PD?OSD_GRAPH
            XDATA   0099H     0002H     INPAGE       ?PD?OSDACTION
            XDATA   009BH     0001H     INPAGE       ?PD?GETCHAR
            XDATA   009CH     003DH     INPAGE       _PDATA_GROUP_
            XDATA   00D9H     0001H     UNIT         ?XD?COMMANDSHELL

            * * * * * * *   C O D E   M E M O R Y   * * * * * * *
            CODE    0000H     0003H     ABSOLUTE     
            CODE    0003H     0008H     UNIT         ?PR?_RS_TX?UART
            CODE    000BH     0003H     ABSOLUTE     
            CODE    000EH     0015H     UNIT         ?PR?_STRLEN?STRLEN
            CODE    0023H     0003H     ABSOLUTE     
            CODE    0026H     24E6H     UNIT         ?CO?OSD_GRAPH
            CODE    250CH     0EA0H     UNIT         ?CO?OSDCTRL
            CODE    33ACH     045FH     UNIT         ?PR?_PCT_SHOWMIRRORICON?OSDACTION
            CODE    380BH     0453H     UNIT         ?CO?TW28XX_VIDEO
            CODE    3C5EH     0406H     UNIT         ?C?LIB_CODE
            CODE    4064H     0400H     UNIT         ?CO?TW2835_INIT
            CODE    4464H     0367H     UNIT         ?PR?_PCT_SETVIDEOHDELAY?TW28XX_VIDEO
            CODE    47CBH     035BH     UNIT         ?PR?PRINTF?PRINTF
            CODE    4B26H     0330H     UNIT         ?PR?_PCT_OSD_ACTIONPTHX?OSDACTION
            CODE    4E56H     0316H     UNIT         ?PR?SCANF?SCANF
            CODE    516CH     02DFH     UNIT         ?CO?COMMANDSHELL
            CODE    544BH     028CH     UNIT         ?PR?_PCT_RUNCOMMSHELL?COMMANDSHELL
            CODE    56D7H     025AH     UNIT         ?PR?_PCT_SHOWINDICATEICON?OSDACTION
            CODE    5931H     0210H     UNIT         ?PR?_MONIVIDEOMIXATTR?COMMANDSHELL
BL51 BANKED LINKER/LOCATER V6.22                                                      03/28/2018  18:26:36  PAGE 3


            CODE    5B41H     020BH     UNIT         ?PR?COMMANDSHELL
            CODE    5D4CH     01B8H     UNIT         ?PR?PCT_AUDIOREGLIST?TW28XX_AUDIO
            CODE    5F04H     0195H     UNIT         ?PR?_PCT_SETXVIDEOMIXING?TW28XX_VIDEO
            CODE    6099H     018AH     UNIT         ?PR?_MONIAUDIOMIXING?COMMANDSHELL
            CODE    6223H     016FH     UNIT         ?PR?_PCT_OSD16X16GRAPHX?OSD_GRAPH
            CODE    6392H     0169H     UNIT         ?PR?_PCT_WRITEOSDDATABUFFERX?OSDCTRL
            CODE    64FBH     0156H     UNIT         ?PR?OSDCTRL
            CODE    6651H     013DH     UNIT         ?PR?_MONIAUDIOGAIN?COMMANDSHELL
            CODE    678EH     0136H     UNIT         ?PR?_MONIHSCOMM?COMMANDSHELL
            CODE    68C4H     012FH     UNIT         ?PR?PCT_INITOSDCOLOR?OSDCTRL
            CODE    69F3H     0120H     UNIT         ?PR?_PCT_RECOMPENSEYHDELAY?TW28XX_VIDEO
            CODE    6B13H     011DH     UNIT         ?PR?_PCT_WRITEOSDDATABUFFERY?OSDCTRL
            CODE    6C30H     0117H     UNIT         ?PR?_MONISETVIDEOFORMAT?COMMANDSHELL
            CODE    6D47H     0104H     UNIT         ?PR?TW28XX_VIDEO
            CODE    6E4BH     00F7H     UNIT         ?PR?_PCT_WRITEOSDFNTX?OSDCTRL
            CODE    6F42H     00E2H     UNIT         ?PR?_PCT_WRITEOSDFNTY?OSDCTRL
            CODE    7024H     00D0H     UNIT         ?PR?_ATOI?ATOI
            CODE    70F4H     00A1H     UNIT         ?PR?_PCT_CLEARWORDSPATHX?OSDCTRL
            CODE    7195H     009EH     UNIT         ?PR?_PCT_FULLCOLORONOSD?OSDCTRL
            CODE    7233H     0097H     UNIT         ?PR?_PCT_SETCHANELSCALE?TW28XX_VIDEO
            CODE    72CAH     008CH     UNIT         ?C_C51STARTUP
            CODE    7356H     0084H     UNIT         ?PR?PCT_GETVIDEOSIGNALSTATUS?OSDACTION
            CODE    73DAH     0075H     UNIT         ?PR?MAIN?MAIN
            CODE    744FH     0068H     UNIT         ?PR?_PCT_GETFIRSTSTR?COMMANDSHELL
            CODE    74B7H     0068H     UNIT         ?PR?OSDACTION
            CODE    751FH     0064H     UNIT         ?PR?PCT_TW2835_INITIAL?TW2835_INIT
            CODE    7583H     0063H     UNIT         ?PR?PCT_CHECKSYSTEM?COMMANDSHELL
            CODE    75E6H     0062H     UNIT         ?PR?_PCT_CHANGESYSTEMTYPE?TW2835_INIT
            CODE    7648H     0061H     UNIT         ?PR?_PCT_AUDIOMIXCTRL?TW28XX_AUDIO
            CODE    76A9H     0060H     UNIT         ?PR?_PCT_SHOWOSDSTRING?OSDCTRL
            CODE    7709H     005FH     UNIT         ?PR?_PCT_SHOWGRAPHSTRING?OSD_GRAPH
            CODE    7768H     005DH     UNIT         ?PR?_MONISHOWSODSTR?COMMANDSHELL
            CODE    77C5H     005BH     UNIT         ?PR?_PCT_AUDIOGAINCTRL?TW28XX_AUDIO
            CODE    7820H     0057H     UNIT         ?PR?_PCT_WRITESTABLE?BUSCTRL
            CODE    7877H     0056H     UNIT         ?PR?_MONIVIDEOMIXWIN?COMMANDSHELL
            CODE    78CDH     0054H     UNIT         ?PR?TIMER0_INTERRUPT?TIMER
            CODE    7921H     0052H     UNIT         ?PR?COMMANDSHELL?MAIN
            CODE    7973H     0050H     UNIT         ?PR?_PCT_SETOSDCOLOR?OSDCTRL
            CODE    79C3H     004CH     UNIT         ?PR?_MONIWRITEASICBYTE?COMMANDSHELL
            CODE    7A0FH     004AH     UNIT         ?PR?_PCT_WRITEASICTABLE?BUSCTRL
            CODE    7A59H     004AH     UNIT         ?PR?PCT_INITIALOSD?OSDACTION
            CODE    7AA3H     0049H     UNIT         ?PR?MONIREGISTERDUMP?COMMANDSHELL
            CODE    7AECH     0047H     UNIT         ?PR?_MONIREADASICBYTE?COMMANDSHELL
            CODE    7B33H     0047H     UNIT         ?PR?_PCT_DETECTVIDEOFORMAT?TW28XX_VIDEO
            CODE    7B7AH     0046H     UNIT         ?PR?_WAIT_MS?MAIN
            CODE    7BC0H     0044H     UNIT         ?PR?PCT_SHOWMODEICON?OSDACTION
            CODE    7C04H     0043H     UNIT         ?PR?_MONIREADPAGEBUFFER?COMMANDSHELL
            CODE    7C47H     0042H     UNIT         ?PR?PCT_INITIALTW2835?TW2835_INIT
            CODE    7C89H     0041H     UNIT         ?PR?_PCT_CHECKVMIXTYPE?COMMANDSHELL
            CODE    7CCAH     0041H     UNIT         ?PR?TW28XX_AUDIO
            CODE    7D0BH     0040H     UNIT         ?PR?OSD_GRAPH
            CODE    7D4BH     0040H     UNIT         ?CO?TW28XX_AUDIO
            CODE    7D8BH     003EH     UNIT         ?PR?_PCT_STRTOCOMMCODE?COMMANDSHELL
            CODE    7DC9H     003BH     UNIT         ?PR?PCT_AUDIOACTIONFORHS?COMMANDSHELL
            CODE    7E04H     0038H     UNIT         ?PR?_PCT_WINATTRCTRLY?TW28XX_VIDEO
            CODE    7E3CH     0038H     UNIT         ?PR?_PCT_WINATTRCLEAR?TW28XX_VIDEO
            CODE    7E74H     0036H     UNIT         ?PR?_PUTSP?MAIN
BL51 BANKED LINKER/LOCATER V6.22                                                      03/28/2018  18:26:36  PAGE 4


            CODE    7EAAH     0035H     UNIT         ?PR?_PCT_ENSHOWOSDPAGE?OSDCTRL
            CODE    7EDFH     0033H     UNIT         ?PR?_PCT_READASICBYTE?BUSCTRL
            CODE    7F12H     0033H     UNIT         ?PR?_MONIREADONEBUFFER?COMMANDSHELL
            CODE    7F45H     0033H     UNIT         ?PR?_MONIWRITEONEBUFFER?COMMANDSHELL
            CODE    7F78H     0033H     UNIT         ?PR?MONIVIDEOAUTODETECT?COMMANDSHELL
            CODE    7FABH     0033H     UNIT         ?PR?_PCT_AUDIOMIXMUTE?TW28XX_AUDIO
            CODE    7FDEH     0031H     UNIT         ?PR?_PCT_WINATTRCTRL?TW28XX_VIDEO
            CODE    800FH     002EH     UNIT         ?PR?MONIHSCOMMVERSION?COMMANDSHELL
            CODE    803DH     002DH     UNIT         ?PR?_PCT_WRITEASICBYTE?BUSCTRL
            CODE    806AH     002AH     UNIT         ?PR?_CHKSTARTCOMMSHELL?MAIN
            CODE    8094H     002AH     UNIT         ?PR?_PUTS?PUTS
            CODE    80BEH     0028H     UNIT         ?PR?BUSCTRL
            CODE    80E6H     0028H     UNIT         ?PR?_PCT_AUDIOSELLIVE?TW28XX_AUDIO
            CODE    810EH     0028H     UNIT         ?PR?_PCT_SETVIDEOFORMAT?TW28XX_VIDEO
            CODE    8136H     0027H     UNIT         ?PR?RS_INTERRUPT?UART
            CODE    815DH     0027H     UNIT         ?PR?PUTCHAR?PUTCHAR
            CODE    8184H     0025H     UNIT         ?PR?PCT_OSDACTIONFORHS?OSDACTION
            CODE    81A9H     0025H     UNIT         ?CO?OSDACTION
            CODE    81CEH     0023H     UNIT         ?PR?INITIALMPU?MAIN
            CODE    81F1H     001DH     UNIT         ?PR?_PCT_SETOSDDRAWPAGE?OSDCTRL
            CODE    820EH     001CH     UNIT         ?PR?_PCT_DISSHOWOSDPAGE?OSDCTRL
            CODE    822AH     001AH     UNIT         ?PR?RS_RX?UART
            CODE    8244H     0019H     UNIT         ?PR?_PCT_CLEAROSDPAGEX?OSDCTRL
            CODE    825DH     0018H     UNIT         ?PR?TW2835_INIT
            CODE    8275H     0017H     UNIT         ?CO?MAIN
            CODE    828CH     0016H     UNIT         ?PR?_MONIHSCOMMSJMODE?COMMANDSHELL
            CODE    82A2H     0016H     UNIT         ?PR?RESETCOMMSELL?MAIN
            CODE    82B8H     0016H     UNIT         ?PR?INITIALTIMER0?TIMER
            CODE    82CEH     0014H     UNIT         ?PR?_MONIAUDIOLIVE?COMMANDSHELL
            CODE    82E2H     0014H     UNIT         ?PR?_PCT_SETYVIDEOMIXING?TW28XX_VIDEO
            CODE    82F6H     0014H     UNIT         ?PR?_ISSPACE?ISSPACE
            CODE    830AH     0013H     UNIT         ?PR?PCT_TW2835RESETN?TW2835_INIT
            CODE    831DH     0013H     UNIT         ?PR?GETCHAR?GETCHAR
            CODE    8330H     0012H     UNIT         ?PR?_MONIYVIDEOMIX?COMMANDSHELL
            CODE    8342H     0010H     UNIT         ?PR?INITIALUART?UART
            CODE    8352H     000FH     UNIT         ?PR?RS_RXREADY?UART
            CODE    8361H     000FH     UNIT         ?PR?PCT_SENDACK?COMMANDSHELL
            CODE    8370H     000FH     UNIT         ?PR?MONIAUDIOMUTE?COMMANDSHELL
            CODE    837FH     000FH     UNIT         ?PR?_ISDIGIT?ISDIGIT
            CODE    838EH     000BH     UNIT         ?C_INITSEG
            CODE    8399H     000BH     UNIT         ?PR?INITIALCOMMSHELL?MAIN
            CODE    83A4H     000AH     UNIT         ?PR?_GETKEY?_GETKEY
            CODE    83AEH     0009H     UNIT         ?PR?NEWLINE?MAIN
            CODE    83B7H     0009H     UNIT         ?PR?_PCT_FLASHOSDCTRL?MAIN
            CODE    83C0H     0007H     UNIT         ?PR?PCT_ENFALSHVLOSS?OSDACTION
            CODE    83C7H     0007H     UNIT         ?PR?GETCHAR?UNGETCHAR
            CODE    83CEH     0005H     UNIT         ?PR?MONIHSCOMMDISSCROLL?COMMANDSHELL
            CODE    83D3H     0005H     UNIT         ?PR?PCT_CLEARGRAPHATTR?OSD_GRAPH
            CODE    83D8H     0003H     UNIT         ?PR?_PCT_PRESETFOREGROUNDCOLOR?OSDCTRL
            CODE    83DBH     0003H     UNIT         ?PR?_PCT_PRESETBACKGROUNDCOLOR?OSDCTRL
            CODE    83DEH     0001H     UNIT         ?PR?PTC_SWITCHTOI2CMODE?BUSCTRL



OVERLAY MAP OF MODULE:   .\OBJ\TW2835 (?C_STARTUP)


BL51 BANKED LINKER/LOCATER V6.22                                                      03/28/2018  18:26:36  PAGE 5


SEGMENT                                            BIT_GROUP          DATA_GROUP          PDATA_GROUP
  +--> CALLED SEGMENT                           START    LENGTH     START    LENGTH     START    LENGTH
-------------------------------------------------------------------------------------------------------
?C_C51STARTUP                                   -----    -----      -----    -----      -----    -----
  +--> ?PR?MAIN?MAIN
  +--> ?C_INITSEG

?PR?MAIN?MAIN                                   -----    -----      -----    -----      009CH    0003H
  +--> ?PR?INITIALMPU?MAIN
  +--> ?PR?INITIALCOMMSHELL?MAIN
  +--> ?PR?PTC_SWITCHTOI2CMODE?BUSCTRL
  +--> ?PR?PCT_INITIALTW2835?TW2835_INIT
  +--> ?PR?RESETCOMMSELL?MAIN
  +--> ?PR?COMMANDSHELL?MAIN
  +--> ?PR?_PCT_RUNCOMMSHELL?COMMANDSHELL
  +--> ?PR?PCT_CHECKSYSTEM?COMMANDSHELL
  +--> ?PR?RS_RXREADY?UART
  +--> ?PR?PCT_GETVIDEOSIGNALSTATUS?OSDACTION

?PR?INITIALMPU?MAIN                             -----    -----      -----    -----      -----    -----
  +--> ?PR?INITIALUART?UART
  +--> ?PR?INITIALTIMER0?TIMER

?PR?PCT_INITIALTW2835?TW2835_INIT               -----    -----      -----    -----      -----    -----
  +--> ?PR?PCT_TW2835RESETN?TW2835_INIT
  +--> ?PR?_PCT_READASICBYTE?BUSCTRL
  +--> ?PR?_PCT_DETECTVIDEOFORMAT?TW28XX_VIDEO
  +--> ?PR?_WAIT_MS?MAIN
  +--> ?PR?PCT_TW2835_INITIAL?TW2835_INIT
  +--> ?PR?PCT_INITIALOSD?OSDACTION

?PR?_PCT_READASICBYTE?BUSCTRL                   -----    -----      -----    -----      -----    -----
  +--> ?PR?BUSCTRL

?PR?_PCT_DETECTVIDEOFORMAT?TW28XX_VIDEO         -----    -----      -----    -----      00A5H    0002H
  +--> ?PR?_PCT_READASICBYTE?BUSCTRL

?PR?_WAIT_MS?MAIN                               -----    -----      -----    -----      00A5H    0004H

?PR?PCT_TW2835_INITIAL?TW2835_INIT              -----    -----      -----    -----      00A5H    0002H
  +--> ?PR?TW2835_INIT
  +--> ?CO?TW2835_INIT
  +--> ?PR?_PCT_WRITEASICTABLE?BUSCTRL

?PR?TW2835_INIT                                 -----    -----      -----    -----      -----    -----
  +--> ?CO?TW2835_INIT

?PR?_PCT_WRITEASICTABLE?BUSCTRL                 -----    -----      -----    -----      00A7H    0007H
  +--> ?PR?BUSCTRL

?PR?PCT_INITIALOSD?OSDACTION                    -----    -----      0027H    0001H      -----    -----
  +--> ?PR?PCT_INITOSDCOLOR?OSDCTRL
  +--> ?PR?PCT_CLEARGRAPHATTR?OSD_GRAPH
  +--> ?PR?_PCT_PRESETFOREGROUNDCOLOR?OSDCTRL
  +--> ?PR?_PCT_PRESETBACKGROUNDCOLOR?OSDCTRL
  +--> ?PR?_PCT_ENSHOWOSDPAGE?OSDCTRL
  +--> ?PR?_PCT_SETOSDDRAWPAGE?OSDCTRL
BL51 BANKED LINKER/LOCATER V6.22                                                      03/28/2018  18:26:36  PAGE 6


  +--> ?PR?_PCT_FULLCOLORONOSD?OSDCTRL

?PR?PCT_INITOSDCOLOR?OSDCTRL                    -----    -----      -----    -----      -----    -----
  +--> ?PR?_PCT_WRITEASICBYTE?BUSCTRL
  +--> ?PR?OSDCTRL
  +--> ?PR?_PCT_SETOSDCOLOR?OSDCTRL

?PR?_PCT_WRITEASICBYTE?BUSCTRL                  -----    -----      -----    -----      00D5H    0004H
  +--> ?PR?BUSCTRL

?PR?OSDCTRL                                     -----    -----      -----    -----      -----    -----
  +--> ?CO?OSDCTRL

?PR?_PCT_SETOSDCOLOR?OSDCTRL                    -----    -----      -----    -----      00A5H    0005H
  +--> ?PR?_PCT_WRITEASICBYTE?BUSCTRL

?PR?_PCT_ENSHOWOSDPAGE?OSDCTRL                  -----    -----      -----    -----      00ABH    0001H
  +--> ?PR?OSDCTRL
  +--> ?PR?_PCT_WRITEASICBYTE?BUSCTRL
  +--> ?PR?_PCT_READASICBYTE?BUSCTRL

?PR?_PCT_SETOSDDRAWPAGE?OSDCTRL                 -----    -----      -----    -----      00ABH    0001H
  +--> ?PR?OSDCTRL
  +--> ?PR?_PCT_READASICBYTE?BUSCTRL
  +--> ?PR?_PCT_WRITEASICBYTE?BUSCTRL

?PR?_PCT_FULLCOLORONOSD?OSDCTRL                 -----    -----      -----    -----      00A5H    0006H
  +--> ?PR?OSDCTRL
  +--> ?PR?_PCT_WRITEASICBYTE?BUSCTRL
  +--> ?PR?_PCT_READASICBYTE?BUSCTRL

?PR?RESETCOMMSELL?MAIN                          -----    -----      -----    -----      -----    -----
  +--> ?CO?MAIN
  +--> ?PR?_PUTSP?MAIN

?PR?_PUTSP?MAIN                                 -----    -----      0025H    0001H      009FH    0003H
  +--> ?PR?_RS_TX?UART

?PR?COMMANDSHELL?MAIN                           -----    -----      0025H    0001H      -----    -----
  +--> ?PR?RS_RXREADY?UART
  +--> ?PR?RS_RX?UART
  +--> ?PR?_RS_TX?UART
  +--> ?PR?_CHKSTARTCOMMSHELL?MAIN
  +--> ?PR?NEWLINE?MAIN

?PR?_CHKSTARTCOMMSHELL?MAIN                     -----    -----      -----    -----      009FH    0003H
  +--> ?CO?MAIN

?PR?NEWLINE?MAIN                                -----    -----      -----    -----      -----    -----
  +--> ?CO?MAIN
  +--> ?PR?_PUTS?PUTS

?PR?_PUTS?PUTS                                  -----    -----      -----    -----      -----    -----
  +--> ?PR?PUTCHAR?PUTCHAR

?PR?_PCT_RUNCOMMSHELL?COMMANDSHELL              -----    -----      0025H    0002H      009FH    0006H
  +--> ?PR?COMMANDSHELL
BL51 BANKED LINKER/LOCATER V6.22                                                      03/28/2018  18:26:36  PAGE 7


  +--> ?PR?_PCT_GETFIRSTSTR?COMMANDSHELL
  +--> ?PR?_PCT_STRTOCOMMCODE?COMMANDSHELL
  +--> ?CO?COMMANDSHELL
  +--> ?PR?_MONIREADPAGEBUFFER?COMMANDSHELL
  +--> ?PR?_MONIREADONEBUFFER?COMMANDSHELL
  +--> ?PR?_MONIWRITEONEBUFFER?COMMANDSHELL
  +--> ?PR?_MONIWRITEASICBYTE?COMMANDSHELL
  +--> ?PR?_MONIREADASICBYTE?COMMANDSHELL
  +--> ?PR?_MONIAUDIOMIXING?COMMANDSHELL
  +--> ?PR?MONIAUDIOMUTE?COMMANDSHELL
  +--> ?PR?PCT_AUDIOREGLIST?TW28XX_AUDIO
  +--> ?PR?_MONIAUDIOGAIN?COMMANDSHELL
  +--> ?PR?_MONIAUDIOLIVE?COMMANDSHELL
  +--> ?PR?MONIREGISTERDUMP?COMMANDSHELL
  +--> ?PR?_PCT_WINATTRCLEAR?TW28XX_VIDEO
  +--> ?PR?_MONIVIDEOMIXWIN?COMMANDSHELL
  +--> ?PR?PCT_SENDACK?COMMANDSHELL
  +--> ?PR?_MONIVIDEOMIXATTR?COMMANDSHELL
  +--> ?PR?_MONIYVIDEOMIX?COMMANDSHELL
  +--> ?PR?PCT_INITIALTW2835?TW2835_INIT
  +--> ?PR?MONIVIDEOAUTODETECT?COMMANDSHELL
  +--> ?PR?_MONISETVIDEOFORMAT?COMMANDSHELL
  +--> ?PR?_MONISHOWSODSTR?COMMANDSHELL
  +--> ?PR?_MONIHSCOMM?COMMANDSHELL
  +--> ?PR?PCT_AUDIOACTIONFORHS?COMMANDSHELL
  +--> ?PR?PCT_OSDACTIONFORHS?OSDACTION
  +--> ?PR?_PCT_FLASHOSDCTRL?MAIN
  +--> ?PR?_MONIHSCOMMSJMODE?COMMANDSHELL
  +--> ?PR?MONIHSCOMMDISSCROLL?COMMANDSHELL
  +--> ?PR?MONIHSCOMMVERSION?COMMANDSHELL

?PR?COMMANDSHELL                                -----    -----      -----    -----      -----    -----
  +--> ?CO?COMMANDSHELL

?PR?_PCT_GETFIRSTSTR?COMMANDSHELL               -----    -----      -----    -----      00ABH    0006H
  +--> ?PR?COMMANDSHELL

?PR?_PCT_STRTOCOMMCODE?COMMANDSHELL             -----    -----      0031H    0002H      00ABH    0003H
  +--> ?PR?COMMANDSHELL

?PR?_MONIREADPAGEBUFFER?COMMANDSHELL            -----    -----      0027H    0003H      -----    -----
  +--> ?PR?COMMANDSHELL
  +--> ?CO?COMMANDSHELL
  +--> ?PR?SCANF?SCANF
  +--> ?PR?_PCT_READASICBYTE?BUSCTRL
  +--> ?PR?PRINTF?PRINTF

?PR?SCANF?SCANF                                 0023H.0  0000H.6    0031H    0005H      00ABH    0015H
  +--> ?PR?GETCHAR?UNGETCHAR
  +--> ?PR?_ISSPACE?ISSPACE
  +--> ?PR?GETCHAR?GETCHAR

?PR?GETCHAR?GETCHAR                             -----    -----      -----    -----      -----    -----
  +--> ?PR?_GETKEY?_GETKEY
  +--> ?PR?PUTCHAR?PUTCHAR

?PR?PRINTF?PRINTF                               0023H.0  0001H.1    002BH    0005H      00A5H    000FH
BL51 BANKED LINKER/LOCATER V6.22                                                      03/28/2018  18:26:36  PAGE 8


  +--> ?PR?PUTCHAR?PUTCHAR

?PR?_MONIREADONEBUFFER?COMMANDSHELL             -----    -----      0027H    0002H      -----    -----
  +--> ?PR?COMMANDSHELL
  +--> ?CO?COMMANDSHELL
  +--> ?PR?SCANF?SCANF
  +--> ?PR?_PCT_READASICBYTE?BUSCTRL
  +--> ?PR?PRINTF?PRINTF

?PR?_MONIWRITEONEBUFFER?COMMANDSHELL            -----    -----      0027H    0003H      -----    -----
  +--> ?PR?COMMANDSHELL
  +--> ?CO?COMMANDSHELL
  +--> ?PR?SCANF?SCANF
  +--> ?PR?_PCT_WRITEASICBYTE?BUSCTRL

?PR?_MONIWRITEASICBYTE?COMMANDSHELL             -----    -----      0027H    0004H      -----    -----
  +--> ?PR?COMMANDSHELL
  +--> ?CO?COMMANDSHELL
  +--> ?PR?SCANF?SCANF
  +--> ?PR?_PCT_WRITEASICBYTE?BUSCTRL

?PR?_MONIREADASICBYTE?COMMANDSHELL              -----    -----      0027H    0004H      -----    -----
  +--> ?PR?COMMANDSHELL
  +--> ?CO?COMMANDSHELL
  +--> ?PR?SCANF?SCANF
  +--> ?PR?_PCT_READASICBYTE?BUSCTRL
  +--> ?PR?PRINTF?PRINTF

?PR?_MONIAUDIOMIXING?COMMANDSHELL               -----    -----      0027H    000AH      00A5H    0006H
  +--> ?PR?COMMANDSHELL
  +--> ?PR?_PCT_GETFIRSTSTR?COMMANDSHELL
  +--> ?PR?_PCT_AUDIOMIXMUTE?TW28XX_AUDIO
  +--> ?PR?_ATOI?ATOI
  +--> ?PR?SCANF?SCANF
  +--> ?PR?_PCT_AUDIOMIXCTRL?TW28XX_AUDIO
  +--> ?CO?COMMANDSHELL

?PR?_PCT_AUDIOMIXMUTE?TW28XX_AUDIO              -----    -----      0031H    0001H      00ABH    0002H
  +--> ?PR?_PCT_READASICBYTE?BUSCTRL
  +--> ?PR?_PCT_WRITEASICBYTE?BUSCTRL

?PR?_ATOI?ATOI                                  0023H.0  0000H.1    -----    -----      00ABH    0005H
  +--> ?PR?_ISSPACE?ISSPACE
  +--> ?PR?_ISDIGIT?ISDIGIT

?PR?_PCT_AUDIOMIXCTRL?TW28XX_AUDIO              -----    -----      -----    -----      00ABH    0004H
  +--> ?PR?TW28XX_AUDIO
  +--> ?PR?_PCT_READASICBYTE?BUSCTRL
  +--> ?CO?TW28XX_AUDIO
  +--> ?PR?_PCT_WRITEASICBYTE?BUSCTRL
  +--> ?PR?_PCT_AUDIOSELLIVE?TW28XX_AUDIO

?PR?TW28XX_AUDIO                                -----    -----      -----    -----      -----    -----
  +--> ?CO?TW28XX_AUDIO

?PR?_PCT_AUDIOSELLIVE?TW28XX_AUDIO              -----    -----      -----    -----      00AFH    0001H
  +--> ?PR?_PCT_WRITEASICBYTE?BUSCTRL
BL51 BANKED LINKER/LOCATER V6.22                                                      03/28/2018  18:26:36  PAGE 9



?PR?MONIAUDIOMUTE?COMMANDSHELL                  -----    -----      -----    -----      -----    -----
  +--> ?PR?_PCT_AUDIOMIXMUTE?TW28XX_AUDIO
  +--> ?PR?_PCT_AUDIOSELLIVE?TW28XX_AUDIO

?PR?PCT_AUDIOREGLIST?TW28XX_AUDIO               -----    -----      -----    -----      -----    -----
  +--> ?PR?PRINTF?PRINTF
  +--> ?PR?_PCT_READASICBYTE?BUSCTRL
  +--> ?CO?TW28XX_AUDIO

?PR?_MONIAUDIOGAIN?COMMANDSHELL                 -----    -----      0027H    000AH      00A5H    0006H
  +--> ?PR?COMMANDSHELL
  +--> ?PR?_PCT_GETFIRSTSTR?COMMANDSHELL
  +--> ?PR?_ATOI?ATOI
  +--> ?PR?SCANF?SCANF
  +--> ?CO?COMMANDSHELL
  +--> ?PR?_PCT_AUDIOGAINCTRL?TW28XX_AUDIO

?PR?_PCT_AUDIOGAINCTRL?TW28XX_AUDIO             -----    -----      -----    -----      00ABH    0003H
  +--> ?PR?TW28XX_AUDIO
  +--> ?PR?_PCT_READASICBYTE?BUSCTRL
  +--> ?CO?TW28XX_AUDIO
  +--> ?PR?_PCT_WRITEASICBYTE?BUSCTRL

?PR?_MONIAUDIOLIVE?COMMANDSHELL                 -----    -----      0027H    0001H      -----    -----
  +--> ?PR?COMMANDSHELL
  +--> ?PR?SCANF?SCANF
  +--> ?PR?_PCT_AUDIOSELLIVE?TW28XX_AUDIO

?PR?MONIREGISTERDUMP?COMMANDSHELL               -----    -----      0027H    0002H      -----    -----
  +--> ?CO?COMMANDSHELL
  +--> ?PR?PRINTF?PRINTF
  +--> ?PR?_PCT_READASICBYTE?BUSCTRL

?PR?_PCT_WINATTRCLEAR?TW28XX_VIDEO              -----    -----      -----    -----      00A5H    0003H
  +--> ?PR?TW28XX_VIDEO
  +--> ?PR?_PCT_READASICBYTE?BUSCTRL
  +--> ?PR?_PCT_WRITEASICBYTE?BUSCTRL

?PR?TW28XX_VIDEO                                -----    -----      -----    -----      -----    -----
  +--> ?CO?TW28XX_VIDEO

?PR?_MONIVIDEOMIXWIN?COMMANDSHELL               -----    -----      0027H    0002H      -----    -----
  +--> ?PR?COMMANDSHELL
  +--> ?CO?COMMANDSHELL
  +--> ?PR?SCANF?SCANF
  +--> ?PR?_PCT_SETXVIDEOMIXING?TW28XX_VIDEO

?PR?_PCT_SETXVIDEOMIXING?TW28XX_VIDEO           -----    -----      -----    -----      00A5H    0007H
  +--> ?PR?TW28XX_VIDEO
  +--> ?PR?_PCT_WRITEASICBYTE?BUSCTRL
  +--> ?CO?TW28XX_VIDEO
  +--> ?PR?_PCT_SETCHANELSCALE?TW28XX_VIDEO
  +--> ?PR?_PCT_WRITESTABLE?BUSCTRL

?PR?_PCT_SETCHANELSCALE?TW28XX_VIDEO            -----    -----      -----    -----      00ACH    0008H
  +--> ?PR?TW28XX_VIDEO
BL51 BANKED LINKER/LOCATER V6.22                                                      03/28/2018  18:26:36  PAGE 10


  +--> ?CO?TW28XX_VIDEO
  +--> ?PR?_PCT_WRITEASICBYTE?BUSCTRL

?PR?_PCT_WRITESTABLE?BUSCTRL                    -----    -----      -----    -----      00ACH    0003H
  +--> ?PR?BUSCTRL
  +--> ?PR?_PCT_READASICBYTE?BUSCTRL
  +--> ?PR?_PCT_WRITEASICBYTE?BUSCTRL

?PR?PCT_SENDACK?COMMANDSHELL                    -----    -----      -----    -----      -----    -----
  +--> ?PR?_RS_TX?UART

?PR?_MONIVIDEOMIXATTR?COMMANDSHELL              -----    -----      0027H    000AH      00A5H    0006H
  +--> ?PR?COMMANDSHELL
  +--> ?PR?_ATOI?ATOI
  +--> ?PR?_PCT_STRTOCOMMCODE?COMMANDSHELL
  +--> ?CO?COMMANDSHELL
  +--> ?PR?_PCT_GETFIRSTSTR?COMMANDSHELL
  +--> ?PR?_PCT_WINATTRCTRL?TW28XX_VIDEO

?PR?_PCT_WINATTRCTRL?TW28XX_VIDEO               -----    -----      -----    -----      00ABH    0003H
  +--> ?PR?TW28XX_VIDEO
  +--> ?PR?_PCT_READASICBYTE?BUSCTRL
  +--> ?PR?_PCT_WRITEASICBYTE?BUSCTRL

?PR?_MONIYVIDEOMIX?COMMANDSHELL                 -----    -----      0027H    0001H      -----    -----
  +--> ?PR?COMMANDSHELL
  +--> ?PR?SCANF?SCANF
  +--> ?PR?_PCT_SETYVIDEOMIXING?TW28XX_VIDEO

?PR?_PCT_SETYVIDEOMIXING?TW28XX_VIDEO           -----    -----      -----    -----      -----    -----
  +--> ?CO?TW28XX_VIDEO
  +--> ?PR?_PCT_WRITESTABLE?BUSCTRL

?PR?MONIVIDEOAUTODETECT?COMMANDSHELL            -----    -----      -----    -----      -----    -----
  +--> ?PR?_PCT_DETECTVIDEOFORMAT?TW28XX_VIDEO
  +--> ?CO?COMMANDSHELL
  +--> ?PR?PRINTF?PRINTF

?PR?_MONISETVIDEOFORMAT?COMMANDSHELL            -----    -----      0027H    0008H      00A5H    0006H
  +--> ?PR?COMMANDSHELL
  +--> ?PR?_PCT_GETFIRSTSTR?COMMANDSHELL
  +--> ?PR?_ATOI?ATOI
  +--> ?CO?COMMANDSHELL
  +--> ?PR?_PCT_SETVIDEOFORMAT?TW28XX_VIDEO
  +--> ?PR?SCANF?SCANF

?PR?_PCT_SETVIDEOFORMAT?TW28XX_VIDEO            -----    -----      -----    -----      00ABH    0002H
  +--> ?PR?_PCT_READASICBYTE?BUSCTRL
  +--> ?PR?TW28XX_VIDEO
  +--> ?PR?_PCT_WRITEASICBYTE?BUSCTRL

?PR?_MONISHOWSODSTR?COMMANDSHELL                -----    -----      0027H    0002H      00A5H    0006H
  +--> ?PR?COMMANDSHELL
  +--> ?PR?_ATOI?ATOI
  +--> ?PR?_PCT_PRESETFOREGROUNDCOLOR?OSDCTRL
  +--> ?PR?_PCT_PRESETBACKGROUNDCOLOR?OSDCTRL
  +--> ?PR?_PCT_SETOSDDRAWPAGE?OSDCTRL
BL51 BANKED LINKER/LOCATER V6.22                                                      03/28/2018  18:26:36  PAGE 11


  +--> ?PR?_PCT_SHOWOSDSTRING?OSDCTRL
  +--> ?PR?_PCT_ENSHOWOSDPAGE?OSDCTRL
  +--> ?PR?_PCT_GETFIRSTSTR?COMMANDSHELL

?PR?_PCT_SHOWOSDSTRING?OSDCTRL                  -----    -----      -----    -----      00ABH    0007H
  +--> ?PR?OSDCTRL
  +--> ?PR?_STRLEN?STRLEN
  +--> ?PR?_PCT_WRITEOSDFNTX?OSDCTRL
  +--> ?PR?_PCT_WRITEOSDFNTY?OSDCTRL
  +--> ?PR?PTC_SWITCHTOI2CMODE?BUSCTRL

?PR?_PCT_WRITEOSDFNTX?OSDCTRL                   -----    -----      0029H    0003H      00B2H    0013H
  +--> ?PR?OSDCTRL
  +--> ?PR?_PCT_WRITEOSDDATABUFFERX?OSDCTRL
  +--> ?PR?_PCT_WRITEASICBYTE?BUSCTRL
  +--> ?PR?_PCT_READASICBYTE?BUSCTRL

?PR?_PCT_WRITEOSDDATABUFFERX?OSDCTRL            -----    -----      -----    -----      00C5H    0004H
  +--> ?PR?OSDCTRL
  +--> ?PR?_PCT_WRITEASICBYTE?BUSCTRL

?PR?_PCT_WRITEOSDFNTY?OSDCTRL                   -----    -----      0029H    0002H      00B2H    001FH
  +--> ?PR?OSDCTRL
  +--> ?PR?_PCT_WRITEOSDDATABUFFERY?OSDCTRL
  +--> ?PR?_PCT_WRITEASICBYTE?BUSCTRL
  +--> ?PR?_PCT_READASICBYTE?BUSCTRL

?PR?_PCT_WRITEOSDDATABUFFERY?OSDCTRL            -----    -----      -----    -----      00D1H    0004H
  +--> ?PR?OSDCTRL
  +--> ?PR?_PCT_WRITEASICBYTE?BUSCTRL

?PR?_MONIHSCOMM?COMMANDSHELL                    -----    -----      0027H    0003H      -----    -----
  +--> ?PR?COMMANDSHELL
  +--> ?CO?COMMANDSHELL
  +--> ?PR?SCANF?SCANF
  +--> ?PR?_PCT_WINATTRCTRLY?TW28XX_VIDEO
  +--> ?PR?_PCT_RECOMPENSEYHDELAY?TW28XX_VIDEO
  +--> ?PR?_PCT_SETVIDEOHDELAY?TW28XX_VIDEO
  +--> ?PR?_PCT_SETXVIDEOMIXING?TW28XX_VIDEO
  +--> ?PR?_PCT_WINATTRCTRL?TW28XX_VIDEO
  +--> ?PR?_PCT_FLASHOSDCTRL?MAIN
  +--> ?PR?_PCT_CHECKVMIXTYPE?COMMANDSHELL
  +--> ?PR?_PCT_DISSHOWOSDPAGE?OSDCTRL
  +--> ?PR?_PCT_CLEAROSDPAGEX?OSDCTRL
  +--> ?PR?PCT_SHOWMODEICON?OSDACTION
  +--> ?PR?_PCT_OSD_ACTIONPTHX?OSDACTION

?PR?_PCT_WINATTRCTRLY?TW28XX_VIDEO              -----    -----      -----    -----      00A5H    0003H
  +--> ?PR?TW28XX_VIDEO
  +--> ?PR?_PCT_READASICBYTE?BUSCTRL
  +--> ?PR?_PCT_WRITEASICBYTE?BUSCTRL

?PR?_PCT_RECOMPENSEYHDELAY?TW28XX_VIDEO         -----    -----      -----    -----      00A5H    0003H
  +--> ?PR?TW28XX_VIDEO
  +--> ?PR?_PCT_READASICBYTE?BUSCTRL
  +--> ?CO?TW28XX_VIDEO
  +--> ?PR?_PCT_WRITEASICBYTE?BUSCTRL
BL51 BANKED LINKER/LOCATER V6.22                                                      03/28/2018  18:26:36  PAGE 12



?PR?_PCT_SETVIDEOHDELAY?TW28XX_VIDEO            -----    -----      -----    -----      00A5H    0008H
  +--> ?PR?TW28XX_VIDEO
  +--> ?PR?_PCT_WRITEASICBYTE?BUSCTRL
  +--> ?PR?_PCT_READASICBYTE?BUSCTRL
  +--> ?CO?TW28XX_VIDEO

?PR?_PCT_CHECKVMIXTYPE?COMMANDSHELL             -----    -----      002AH    0001H      -----    -----
  +--> ?PR?COMMANDSHELL

?PR?_PCT_DISSHOWOSDPAGE?OSDCTRL                 -----    -----      -----    -----      00A5H    0001H
  +--> ?PR?OSDCTRL
  +--> ?PR?_PCT_READASICBYTE?BUSCTRL
  +--> ?PR?_PCT_WRITEASICBYTE?BUSCTRL

?PR?_PCT_CLEAROSDPAGEX?OSDCTRL                  -----    -----      -----    -----      -----    -----
  +--> ?PR?_PCT_SETOSDDRAWPAGE?OSDCTRL
  +--> ?PR?_PCT_PRESETBACKGROUNDCOLOR?OSDCTRL
  +--> ?PR?_PCT_FULLCOLORONOSD?OSDCTRL

?PR?PCT_SHOWMODEICON?OSDACTION                  -----    -----      -----    -----      -----    -----
  +--> ?PR?_PCT_SETOSDDRAWPAGE?OSDCTRL
  +--> ?CO?OSDACTION
  +--> ?PR?_PCT_SHOWGRAPHSTRING?OSD_GRAPH
  +--> ?PR?_PCT_PRESETBACKGROUNDCOLOR?OSDCTRL
  +--> ?PR?_PCT_PRESETFOREGROUNDCOLOR?OSDCTRL

?PR?_PCT_SHOWGRAPHSTRING?OSD_GRAPH              -----    -----      -----    -----      00A8H    0007H
  +--> ?PR?OSD_GRAPH
  +--> ?PR?_STRLEN?STRLEN
  +--> ?PR?_PCT_OSD16X16GRAPHX?OSD_GRAPH
  +--> ?PR?PTC_SWITCHTOI2CMODE?BUSCTRL

?PR?_PCT_OSD16X16GRAPHX?OSD_GRAPH               -----    -----      -----    -----      00AFH    000BH
  +--> ?PR?OSD_GRAPH
  +--> ?CO?OSD_GRAPH
  +--> ?PR?_PCT_WRITEASICBYTE?BUSCTRL
  +--> ?PR?_PCT_READASICBYTE?BUSCTRL

?PR?_PCT_OSD_ACTIONPTHX?OSDACTION               -----    -----      -----    -----      00A5H    0003H
  +--> ?PR?OSDACTION
  +--> ?PR?_PCT_PRESETFOREGROUNDCOLOR?OSDCTRL
  +--> ?PR?_PCT_PRESETBACKGROUNDCOLOR?OSDCTRL
  +--> ?PR?_PCT_SHOWGRAPHSTRING?OSD_GRAPH

?PR?OSDACTION                                   -----    -----      -----    -----      -----    -----
  +--> ?CO?OSDACTION

?PR?PCT_AUDIOACTIONFORHS?COMMANDSHELL           -----    -----      0027H    0002H      -----    -----
  +--> ?PR?_PCT_AUDIOSELLIVE?TW28XX_AUDIO
  +--> ?PR?_PCT_AUDIOMIXMUTE?TW28XX_AUDIO

?PR?PCT_OSDACTIONFORHS?OSDACTION                -----    -----      -----    -----      -----    -----
  +--> ?PR?_PCT_SETOSDDRAWPAGE?OSDCTRL
  +--> ?PR?_PCT_SHOWMIRRORICON?OSDACTION
  +--> ?PR?_PCT_SHOWINDICATEICON?OSDACTION
  +--> ?PR?PCT_ENFALSHVLOSS?OSDACTION
BL51 BANKED LINKER/LOCATER V6.22                                                      03/28/2018  18:26:36  PAGE 13


  +--> ?PR?_PCT_ENSHOWOSDPAGE?OSDCTRL

?PR?_PCT_SHOWMIRRORICON?OSDACTION               -----    -----      -----    -----      00A5H    0003H
  +--> ?PR?OSDACTION
  +--> ?PR?_PCT_PRESETFOREGROUNDCOLOR?OSDCTRL
  +--> ?PR?_PCT_CLEARWORDSPATHX?OSDCTRL
  +--> ?PR?_PCT_SHOWGRAPHSTRING?OSD_GRAPH

?PR?_PCT_CLEARWORDSPATHX?OSDCTRL                -----    -----      -----    -----      00A8H    0007H
  +--> ?PR?OSDCTRL
  +--> ?PR?_PCT_WRITEASICBYTE?BUSCTRL
  +--> ?PR?_PCT_READASICBYTE?BUSCTRL

?PR?_PCT_SHOWINDICATEICON?OSDACTION             -----    -----      0027H    0001H      00A5H    0003H
  +--> ?PR?OSDACTION
  +--> ?PR?_PCT_PRESETFOREGROUNDCOLOR?OSDCTRL
  +--> ?PR?_PCT_SHOWGRAPHSTRING?OSD_GRAPH
  +--> ?PR?_PCT_CLEARWORDSPATHX?OSDCTRL
  +--> ?CO?OSDACTION

?PR?_MONIHSCOMMSJMODE?COMMANDSHELL              -----    -----      -----    -----      -----    -----
  +--> ?PR?COMMANDSHELL
  +--> ?CO?COMMANDSHELL
  +--> ?PR?SCANF?SCANF

?PR?MONIHSCOMMDISSCROLL?COMMANDSHELL            -----    -----      -----    -----      -----    -----
  +--> ?PR?_PCT_ENSHOWOSDPAGE?OSDCTRL

?PR?MONIHSCOMMVERSION?COMMANDSHELL              -----    -----      -----    -----      -----    -----
  +--> ?PR?_RS_TX?UART
  +--> ?CO?COMMANDSHELL

?PR?PCT_CHECKSYSTEM?COMMANDSHELL                -----    -----      -----    -----      -----    -----
  +--> ?PR?_PCT_DETECTVIDEOFORMAT?TW28XX_VIDEO
  +--> ?PR?_PCT_ENSHOWOSDPAGE?OSDCTRL
  +--> ?PR?_PCT_CHANGESYSTEMTYPE?TW2835_INIT
  +--> ?PR?_PCT_RECOMPENSEYHDELAY?TW28XX_VIDEO
  +--> ?PR?COMMANDSHELL
  +--> ?PR?_PCT_SETVIDEOHDELAY?TW28XX_VIDEO
  +--> ?PR?_PCT_SETXVIDEOMIXING?TW28XX_VIDEO
  +--> ?PR?_PCT_CLEAROSDPAGEX?OSDCTRL
  +--> ?PR?PCT_SHOWMODEICON?OSDACTION
  +--> ?PR?_PCT_OSD_ACTIONPTHX?OSDACTION
  +--> ?PR?PCT_OSDACTIONFORHS?OSDACTION

?PR?_PCT_CHANGESYSTEMTYPE?TW2835_INIT           -----    -----      -----    -----      009FH    0002H
  +--> ?PR?TW2835_INIT
  +--> ?CO?TW2835_INIT
  +--> ?PR?_PCT_WRITEASICTABLE?BUSCTRL

?PR?PCT_GETVIDEOSIGNALSTATUS?OSDACTION          -----    -----      -----    -----      009FH    0001H
  +--> ?PR?_PCT_READASICBYTE?BUSCTRL
  +--> ?PR?_PCT_WRITEASICBYTE?BUSCTRL
  +--> ?PR?_RS_TX?UART



BL51 BANKED LINKER/LOCATER V6.22                                                      03/28/2018  18:26:36  PAGE 14


SYMBOL TABLE OF MODULE:  .\OBJ\TW2835 (?C_STARTUP)

  VALUE           TYPE          NAME
  ----------------------------------

  -------         MODULE        ?C_STARTUP
  C:72CAH         SEGMENT       ?C_C51STARTUP
  I:0036H         SEGMENT       ?STACK
  C:0000H         PUBLIC        ?C_STARTUP
  D:00E0H         SYMBOL        ACC
  D:00F0H         SYMBOL        B
  D:0083H         SYMBOL        DPH
  D:0082H         SYMBOL        DPL
  N:0000H         SYMBOL        IBPSTACK
  N:0100H         SYMBOL        IBPSTACKTOP
  N:0080H         SYMBOL        IDATALEN
  C:72CDH         SYMBOL        IDATALOOP
  N:0000H         SYMBOL        PBPSTACK
  N:0100H         SYMBOL        PBPSTACKTOP
  N:0000H         SYMBOL        PDATALEN
  N:0000H         SYMBOL        PDATASTART
  N:0000H         SYMBOL        PPAGE
  N:0000H         SYMBOL        PPAGEENABLE
  D:00A0H         SYMBOL        PPAGE_SFR
  D:0081H         SYMBOL        SP
  C:72CAH         SYMBOL        STARTUP1
  N:0000H         SYMBOL        XBPSTACK
  N:0000H         SYMBOL        XBPSTACKTOP
  N:0000H         SYMBOL        XDATALEN
  N:0000H         SYMBOL        XDATASTART
  C:0000H         LINE#         126
  C:72CAH         LINE#         133
  C:72CCH         LINE#         134
  C:72CDH         LINE#         135
  C:72CEH         LINE#         136
  C:72D0H         LINE#         185
  C:72D3H         LINE#         196
  -------         ENDMOD        ?C_STARTUP

  -------         MODULE        UART
  C:0000H         SYMBOL        _ICE_DUMMY_
  D:0090H         PUBLIC        P1
  D:00B0H         PUBLIC        P3
  C:8342H         PUBLIC        InitialUART
  D:00A8H         PUBLIC        IE
  X:0000H         PUBLIC        RS_RECVBUF
  B:00A8H.4       PUBLIC        ES
  D:00B8H         PUBLIC        IP
  B:0098H.0       PUBLIC        RI
  B:0098H.1       PUBLIC        TI
  B:00B8H.4       PUBLIC        PS
  D:00D8H         PUBLIC        CCON
  D:0099H         PUBLIC        SBUF
  D:00C0H         PUBLIC        WDTC
  D:0098H         PUBLIC        SCON
  D:0088H         PUBLIC        TCON
  C:8352H         PUBLIC        RS_RxReady
BL51 BANKED LINKER/LOCATER V6.22                                                      03/28/2018  18:26:36  PAGE 15


  D:008DH         PUBLIC        TH1
  D:00E8H         PUBLIC        IEA
  X:0050H         PUBLIC        RsRxRp
  B:0088H.6       PUBLIC        TR1
  X:0051H         PUBLIC        RsRxWp
  D:00F8H         PUBLIC        IPA
  D:00C8H         PUBLIC        T2CON
  C:822AH         PUBLIC        RS_rx
  C:0003H         PUBLIC        _RS_tx
  C:8136H         PUBLIC        RS_interrupt
  D:00D0H         PUBLIC        PSW
  -------         PROC          INITIALUART
  C:8342H         LINE#         66
  C:8342H         LINE#         67
  C:8342H         LINE#         69
  C:8344H         LINE#         70
  C:8346H         LINE#         77
  C:8349H         LINE#         84
  C:834BH         LINE#         86
  C:834FH         LINE#         87
  C:8351H         LINE#         88
  -------         ENDPROC       INITIALUART
  -------         PROC          RS_RXREADY
  C:8352H         LINE#         94
  C:8352H         LINE#         95
  C:8352H         LINE#         96
  C:835EH         LINE#         97
  C:8360H         LINE#         98
  -------         ENDPROC       RS_RXREADY
  -------         PROC          RS_RX
  -------         DO            
  D:0007H         SYMBOL        ret
  -------         ENDDO         
  C:822AH         LINE#         104
  C:822AH         LINE#         105
  C:822AH         LINE#         108
  C:822CH         LINE#         112
  C:8234H         LINE#         113
  C:8239H         LINE#         114
  C:823FH         LINE#         115
  C:8241H         LINE#         116
  C:8243H         LINE#         118
  C:8243H         LINE#         119
  -------         ENDPROC       RS_RX
  -------         PROC          _RS_TX
  D:0007H         SYMBOL        tx_buf
  C:0003H         LINE#         125
  C:0003H         LINE#         126
  C:0003H         LINE#         127
  C:0003H         LINE#         128
  C:0006H         LINE#         129
  C:0008H         LINE#         130
  C:000AH         LINE#         131
  C:000AH         LINE#         132
  C:000AH         LINE#         133
  C:000AH         LINE#         134
  -------         ENDPROC       _RS_TX
BL51 BANKED LINKER/LOCATER V6.22                                                      03/28/2018  18:26:36  PAGE 16


  -------         PROC          RS_INTERRUPT
  C:8136H         LINE#         140
  C:813DH         LINE#         142
  C:8140H         LINE#         143
  C:8142H         LINE#         147
  C:814BH         LINE#         148
  C:8150H         LINE#         149
  C:8158H         LINE#         161
  C:8158H         LINE#         162
  -------         ENDPROC       RS_INTERRUPT
  -------         ENDMOD        UART

  -------         MODULE        BUSCTRL
  C:0000H         SYMBOL        _ICE_DUMMY_
  D:0080H         PUBLIC        P0
  D:0090H         PUBLIC        P1
  D:00B0H         PUBLIC        P3
  B:00A8H.7       PUBLIC        EA
  D:00A8H         PUBLIC        IE
  C:7820H         PUBLIC        _PCT_WriteSTable
  D:00B8H         PUBLIC        IP
  B:0090H.3       PUBLIC        HALE
  B:0090H.2       PUBLIC        HRDB
  D:00D8H         PUBLIC        CCON
  D:00C0H         PUBLIC        WDTC
  B:0090H.1       PUBLIC        HWRB
  D:0098H         PUBLIC        SCON
  D:0088H         PUBLIC        TCON
  C:7A0FH         PUBLIC        _PCT_WriteAsicTable
  C:83DEH         PUBLIC        PTC_SwitchToI2CMode
  D:00E8H         PUBLIC        IEA
  B:00B0H.6       PUBLIC        HCSB0
  B:00B0H.7       PUBLIC        HCSB1
  D:00F8H         PUBLIC        IPA
  C:7EDFH         PUBLIC        _PCT_ReadAsicByte
  D:00C8H         PUBLIC        T2CON
  C:803DH         PUBLIC        _PCT_WriteAsicByte
  D:00D0H         PUBLIC        PSW
  C:80BEH         SYMBOL        Com001C
  C:80BEH         SYMBOL        L?0029
  C:80BEH         SYMBOL        L?0030
  C:80C9H         SYMBOL        L?0031
  C:80D6H         SYMBOL        L?0032
  C:80D8H         SYMBOL        L?0033
  C:80DFH         SYMBOL        L?0034
  C:80DFH         SYMBOL        L?0035
  -------         PROC          COM001C
  -------         ENDPROC       COM001C
  -------         PROC          _PCT_WRITEASICBYTE
  D:0007H         SYMBOL        _dvc
  D:0005H         SYMBOL        _pg
  D:0003H         SYMBOL        _addr
  X:00D8H         SYMBOL        _wdat
  C:803DH         LINE#         63
  C:803DH         LINE#         64
  C:803DH         LINE#         65
  C:803DH         LINE#         67
BL51 BANKED LINKER/LOCATER V6.22                                                      03/28/2018  18:26:36  PAGE 17


  C:803DH         LINE#         69
  C:803DH         LINE#         71
  C:8048H         LINE#         72
  C:8052H         LINE#         73
  C:805AH         LINE#         74
  C:805AH         LINE#         75
  C:805AH         LINE#         76
  C:805DH         LINE#         77
  C:8062H         LINE#         78
  C:8064H         LINE#         79
  C:8066H         LINE#         81
  C:8066H         LINE#         82
  C:8066H         LINE#         83
  C:8066H         LINE#         84
  C:8066H         LINE#         85
  C:8069H         LINE#         86
  -------         ENDPROC       _PCT_WRITEASICBYTE
  -------         PROC          _PCT_WRITEASICTABLE
  D:0007H         SYMBOL        _dvc
  D:0005H         SYMBOL        _pg
  D:0006H         SYMBOL        _addr
  X:00AAH         SYMBOL        _tbl_ptr
  X:00ADH         SYMBOL        _tbl_cnt
  C:7A0FH         LINE#         92
  C:7A11H         LINE#         93
  C:7A11H         LINE#         94
  C:7A11H         LINE#         96
  C:7A11H         LINE#         98
  C:7A11H         LINE#         100
  C:7A1CH         LINE#         101
  C:7A26H         LINE#         102
  C:7A2EH         LINE#         104
  C:7A2EH         LINE#         105
  C:7A31H         LINE#         106
  C:7A31H         LINE#         107
  C:7A34H         LINE#         109
  C:7A4AH         LINE#         110
  C:7A4CH         LINE#         111
  C:7A4EH         LINE#         112
  C:7A55H         LINE#         114
  C:7A55H         LINE#         115
  C:7A55H         LINE#         116
  C:7A55H         LINE#         117
  C:7A55H         LINE#         118
  C:7A58H         LINE#         119
  -------         ENDPROC       _PCT_WRITEASICTABLE
  -------         PROC          _PCT_READASICBYTE
  D:0007H         SYMBOL        _dvc
  D:0005H         SYMBOL        _pg
  D:0003H         SYMBOL        _addr
  -------         DO            
  D:0007H         SYMBOL        _rdat_
  -------         ENDDO         
  C:7EDFH         LINE#         125
  C:7EDFH         LINE#         126
  C:7EDFH         LINE#         129
  C:7EDFH         LINE#         131
BL51 BANKED LINKER/LOCATER V6.22                                                      03/28/2018  18:26:36  PAGE 18


  C:7EDFH         LINE#         133
  C:7EDFH         LINE#         134
  C:7EEAH         LINE#         135
  C:7EF4H         LINE#         136
  C:7EFCH         LINE#         138
  C:7EFCH         LINE#         139
  C:7EFCH         LINE#         140
  C:7EFFH         LINE#         141
  C:7F02H         LINE#         142
  C:7F04H         LINE#         143
  C:7F06H         LINE#         144
  C:7F08H         LINE#         146
  C:7F0BH         LINE#         147
  C:7F0DH         LINE#         148
  C:7F0FH         LINE#         149
  C:7F11H         LINE#         150
  C:7F11H         LINE#         151
  -------         ENDPROC       _PCT_READASICBYTE
  -------         PROC          _PCT_WRITESTABLE
  D:0007H         SYMBOL        _dvc
  X:00ACH         SYMBOL        _tbl_ptr
  C:7820H         LINE#         158
  C:782AH         LINE#         159
  C:782AH         LINE#         163
  C:782AH         LINE#         164
  C:7838H         LINE#         165
  C:7855H         LINE#         166
  C:7855H         LINE#         167
  C:7869H         LINE#         168
  C:7869H         LINE#         169
  C:7874H         LINE#         170
  C:7876H         LINE#         171
  -------         ENDPROC       _PCT_WRITESTABLE
  -------         PROC          PTC_SWITCHTOI2CMODE
  C:83DEH         LINE#         177
  C:83DEH         LINE#         178
  C:83DEH         LINE#         188
  -------         ENDPROC       PTC_SWITCHTOI2CMODE
  -------         ENDMOD        BUSCTRL

  -------         MODULE        COMMANDSHELL
  C:0000H         SYMBOL        _ICE_DUMMY_
  D:0090H         PUBLIC        P1
  D:00B0H         PUBLIC        P3
  C:828CH         PUBLIC        _MoniHSCommSJmode
  C:7F78H         PUBLIC        MoniVideoAutoDetect
  C:544BH         PUBLIC        _PCT_RunCommShell
  C:6651H         PUBLIC        _MoniAudioGain
  D:00A8H         PUBLIC        IE
  C:7F12H         PUBLIC        _MoniReadOneBuffer
  D:00B8H         PUBLIC        IP
  C:8330H         PUBLIC        _MoniYVideoMix
  X:0052H         PUBLIC        sysdat
  C:82CEH         PUBLIC        _MoniAudioLive
  D:00D8H         PUBLIC        CCON
  C:8361H         PUBLIC        PCT_SendACK
  C:7F45H         PUBLIC        _MoniWriteOneBuffer
BL51 BANKED LINKER/LOCATER V6.22                                                      03/28/2018  18:26:36  PAGE 19


  C:8370H         PUBLIC        MoniAudioMute
  C:800FH         PUBLIC        MoniHSCommVersion
  C:6C30H         PUBLIC        _MoniSetVideoFormat
  C:7AECH         PUBLIC        _MoniReadAsicByte
  C:744FH         PUBLIC        _PCT_GetFirstStr
  C:7583H         PUBLIC        PCT_CheckSystem
  D:00C0H         PUBLIC        WDTC
  D:0098H         PUBLIC        SCON
  D:0088H         PUBLIC        TCON
  C:79C3H         PUBLIC        _MoniWriteAsicByte
  C:678EH         PUBLIC        _MoniHSComm
  X:0063H         PUBLIC        msg
  D:00E8H         PUBLIC        IEA
  C:7D8BH         PUBLIC        _PCT_StrToCommCode
  C:7C89H         PUBLIC        _PCT_CheckVMixType
  C:83CEH         PUBLIC        MoniHSCommDisScroll
  D:00F8H         PUBLIC        IPA
  C:7768H         PUBLIC        _MoniShowSODStr
  C:5931H         PUBLIC        _MoniVideoMixAttr
  C:7DC9H         PUBLIC        PCT_AudioActionForHS
  D:00C8H         PUBLIC        T2CON
  C:7877H         PUBLIC        _MoniVideoMixWin
  C:7C04H         PUBLIC        _MoniReadPageBuffer
  X:00D9H         PUBLIC        Original_selwintype
  C:7AA3H         PUBLIC        MoniRegisterDump
  D:00D0H         PUBLIC        PSW
  C:6099H         PUBLIC        _MoniAudioMixing
  C:5B41H         SYMBOL        Com00E5
  C:5B41H         SYMBOL        L?0230
  C:5B42H         SYMBOL        L?0231
  C:5B78H         SYMBOL        L?0232
  C:5B7FH         SYMBOL        L?0233
  C:5B80H         SYMBOL        L?0234
  C:5BB6H         SYMBOL        L?0235
  C:5BBDH         SYMBOL        L?0236
  C:5BBDH         SYMBOL        L?0237
  C:5BBFH         SYMBOL        L?0238
  C:5BC8H         SYMBOL        L?0239
  C:5BC9H         SYMBOL        L?0240
  C:5BE9H         SYMBOL        L?0241
  C:5BF0H         SYMBOL        L?0242
  C:5BF0H         SYMBOL        L?0243
  C:5BFBH         SYMBOL        L?0244
  C:5C02H         SYMBOL        L?0245
  C:5C12H         SYMBOL        L?0246
  C:5C19H         SYMBOL        L?0247
  C:5C29H         SYMBOL        L?0248
  C:5C30H         SYMBOL        L?0249
  C:5C40H         SYMBOL        L?0250
  C:5C47H         SYMBOL        L?0251
  C:5C52H         SYMBOL        L?0252
  C:5C59H         SYMBOL        L?0253
  C:5C64H         SYMBOL        L?0254
  C:5C6BH         SYMBOL        L?0255
  C:5C70H         SYMBOL        L?0256
  C:5C77H         SYMBOL        L?0257
  C:5C7CH         SYMBOL        L?0258
BL51 BANKED LINKER/LOCATER V6.22                                                      03/28/2018  18:26:36  PAGE 20


  C:5C83H         SYMBOL        L?0260
  C:5C8FH         SYMBOL        L?0261
  C:5C90H         SYMBOL        L?0262
  C:5C97H         SYMBOL        L?0264
  C:5C97H         SYMBOL        L?0265
  C:5C9FH         SYMBOL        L?0266
  C:5CA6H         SYMBOL        L?0267
  C:5CADH         SYMBOL        L?0271
  C:5CADH         SYMBOL        L?0272
  C:5CB4H         SYMBOL        L?0273
  C:5CBBH         SYMBOL        L?0277
  C:5CC2H         SYMBOL        L?0280
  C:5CC9H         SYMBOL        L?0285
  C:5CD0H         SYMBOL        L?0287
  C:5CDFH         SYMBOL        L?0288
  C:5CE6H         SYMBOL        L?0291
  C:5CEDH         SYMBOL        L?0294
  C:5CF4H         SYMBOL        L?0298
  C:5CF4H         SYMBOL        L?0299
  C:5CF5H         SYMBOL        L?0300
  C:5CFDH         SYMBOL        L?0301
  C:5CFDH         SYMBOL        L?0302
  C:5D07H         SYMBOL        L?0304
  C:5D0EH         SYMBOL        L?0305
  C:5D0FH         SYMBOL        L?0306
  C:5D16H         SYMBOL        L?0307
  C:5D16H         SYMBOL        L?0308
  C:5D1DH         SYMBOL        L?0310
  C:5D1DH         SYMBOL        L?0311
  C:5D26H         SYMBOL        L?0312
  C:5D33H         SYMBOL        L?0314
  C:5D3FH         SYMBOL        L?0316
  C:5D3FH         SYMBOL        L?0317
  C:5D45H         SYMBOL        L?0318
  -------         PROC          COM00E5
  -------         ENDPROC       COM00E5
  -------         PROC          _PCT_GETFIRSTSTR
  X:00ABH         SYMBOL        tagStr
  X:00AEH         SYMBOL        sourceStr
  C:744FH         LINE#         87
  C:7454H         LINE#         88
  C:7454H         LINE#         89
  C:745FH         LINE#         90
  C:7474H         LINE#         91
  C:748AH         LINE#         92
  C:748CH         LINE#         93
  C:748CH         LINE#         94
  C:7498H         LINE#         95
  C:749CH         LINE#         96
  C:74A4H         LINE#         97
  C:74A7H         LINE#         98
  C:74AAH         LINE#         99
  C:74ADH         LINE#         100
  C:74B5H         LINE#         101
  -------         ENDPROC       _PCT_GETFIRSTSTR
  -------         PROC          _PCT_STRTOCOMMCODE
  X:00ABH         SYMBOL        Str
BL51 BANKED LINKER/LOCATER V6.22                                                      03/28/2018  18:26:36  PAGE 21


  -------         DO            
  D:0031H         SYMBOL        ret
  -------         ENDDO         
  C:7D8BH         LINE#         108
  C:7D90H         LINE#         109
  C:7D90H         LINE#         110
  C:7D95H         LINE#         112
  C:7DC4H         LINE#         113
  C:7DC8H         LINE#         114
  -------         ENDPROC       _PCT_STRTOCOMMCODE
  -------         PROC          PCT_SENDACK
  C:8361H         LINE#         120
  C:8361H         LINE#         121
  C:8361H         LINE#         122
  C:8366H         LINE#         123
  C:836BH         LINE#         124
  -------         ENDPROC       PCT_SENDACK
  -------         PROC          _PCT_CHECKVMIXTYPE
  D:0007H         SYMBOL        _typ
  -------         DO            
  D:002AH         SYMBOL        tmplktp
  -------         ENDDO         
  C:7C89H         LINE#         131
  C:7C89H         LINE#         132
  C:7C89H         LINE#         133
  C:7C8CH         LINE#         135
  C:7C91H         LINE#         136
  C:7C98H         LINE#         137
  C:7C9EH         LINE#         138
  C:7CAAH         LINE#         140
  C:7CB6H         LINE#         141
  C:7CBBH         LINE#         143
  C:7CBBH         LINE#         144
  C:7CC0H         LINE#         145
  C:7CC5H         LINE#         146
  C:7CC9H         LINE#         147
  -------         ENDPROC       _PCT_CHECKVMIXTYPE
  -------         PROC          _MONIREADPAGEBUFFER
  D:0001H         SYMBOL        szParam
  -------         DO            
  D:0027H         SYMBOL        page
  D:0028H         SYMBOL        start
  D:0029H         SYMBOL        end
  -------         ENDDO         
  C:7C04H         LINE#         157
  C:7C04H         LINE#         158
  C:7C04H         LINE#         161
  C:7C29H         LINE#         163
  C:7C29H         LINE#         164
  C:7C3FH         LINE#         165
  C:7C41H         LINE#         166
  C:7C46H         LINE#         167
  -------         ENDPROC       _MONIREADPAGEBUFFER
  -------         PROC          _MONIREADONEBUFFER
  D:0001H         SYMBOL        szParam
  -------         DO            
  D:0027H         SYMBOL        page
BL51 BANKED LINKER/LOCATER V6.22                                                      03/28/2018  18:26:36  PAGE 22


  D:0028H         SYMBOL        addr
  -------         ENDDO         
  C:7F12H         LINE#         173
  C:7F12H         LINE#         174
  C:7F12H         LINE#         177
  C:7F2FH         LINE#         179
  -------         ENDPROC       _MONIREADONEBUFFER
  -------         PROC          _MONIWRITEONEBUFFER
  D:0001H         SYMBOL        szParam
  -------         DO            
  D:0027H         SYMBOL        page
  D:0028H         SYMBOL        addr
  D:0029H         SYMBOL        dat
  -------         ENDDO         
  C:7F45H         LINE#         186
  C:7F45H         LINE#         187
  C:7F45H         LINE#         190
  C:7F6AH         LINE#         191
  -------         ENDPROC       _MONIWRITEONEBUFFER
  -------         PROC          _MONIWRITEASICBYTE
  D:0001H         SYMBOL        szParam
  -------         DO            
  D:0027H         SYMBOL        _dev
  D:0028H         SYMBOL        _pg
  D:0029H         SYMBOL        _addr
  D:002AH         SYMBOL        _wdat
  -------         ENDDO         
  C:79C3H         LINE#         198
  C:79C3H         LINE#         199
  C:79C3H         LINE#         200
  C:79C6H         LINE#         201
  C:79C8H         LINE#         202
  C:79CAH         LINE#         203
  C:79CCH         LINE#         205
  C:7A01H         LINE#         206
  -------         ENDPROC       _MONIWRITEASICBYTE
  -------         PROC          _MONIREADASICBYTE
  D:0001H         SYMBOL        szParam
  -------         DO            
  D:0027H         SYMBOL        _dev
  D:0028H         SYMBOL        _pg
  D:0029H         SYMBOL        _addr
  D:002AH         SYMBOL        _rdat
  -------         ENDDO         
  C:7AECH         LINE#         213
  C:7AECH         LINE#         214
  C:7AECH         LINE#         215
  C:7AEFH         LINE#         216
  C:7AF1H         LINE#         217
  C:7AF3H         LINE#         218
  C:7AF5H         LINE#         220
  C:7B1AH         LINE#         221
  C:7B25H         LINE#         222
  -------         ENDPROC       _MONIREADASICBYTE
  C:61D4H         SYMBOL        L?0268
  C:61EAH         SYMBOL        L?0281
  C:6200H         SYMBOL        L?0284
BL51 BANKED LINKER/LOCATER V6.22                                                      03/28/2018  18:26:36  PAGE 23


  -------         PROC          _MONIAUDIOMIXING
  X:00A5H         SYMBOL        szParam
  -------         DO            
  D:0027H         SYMBOL        selch0
  D:0028H         SYMBOL        selch1
  D:0029H         SYMBOL        selch2
  D:002AH         SYMBOL        selch3
  D:002BH         SYMBOL        selch4
  D:002CH         SYMBOL        valch0
  D:002DH         SYMBOL        valch1
  D:002EH         SYMBOL        valch2
  D:002FH         SYMBOL        valch3
  D:0030H         SYMBOL        valch4
  X:00A8H         SYMBOL        getStr
  C:5446H         SYMBOL        chaddr
  -------         ENDDO         
  C:6099H         LINE#         230
  C:609BH         LINE#         231
  C:609BH         LINE#         242
  C:60AEH         LINE#         244
  C:60B6H         LINE#         250
  C:60DFH         LINE#         251
  C:60DFH         LINE#         252
  C:60F4H         LINE#         253
  C:60FDH         LINE#         254
  C:6103H         LINE#         255
  C:6106H         LINE#         257
  C:6106H         LINE#         258
  C:6128H         LINE#         260
  C:6128H         LINE#         261
  C:612BH         LINE#         262
  C:612EH         LINE#         263
  C:6131H         LINE#         265
  C:6131H         LINE#         266
  C:6148H         LINE#         268
  C:6148H         LINE#         269
  C:614BH         LINE#         270
  C:614FH         LINE#         271
  C:6152H         LINE#         272
  C:6155H         LINE#         274
  C:6155H         LINE#         275
  C:616FH         LINE#         277
  C:616FH         LINE#         278
  C:616FH         LINE#         279
  C:616FH         LINE#         280
  C:6172H         LINE#         282
  C:617AH         LINE#         283
  C:617DH         LINE#         285
  C:617DH         LINE#         286
  C:61A8H         LINE#         288
  C:61A8H         LINE#         289
  C:61A8H         LINE#         290
  C:61A8H         LINE#         291
  C:61B0H         LINE#         292
  C:61B9H         LINE#         294
  C:61D3H         LINE#         295
  C:61D3H         LINE#         297
BL51 BANKED LINKER/LOCATER V6.22                                                      03/28/2018  18:26:36  PAGE 24


  C:61D3H         LINE#         298
  C:61D3H         LINE#         299
  C:61D3H         LINE#         300
  -------         ENDPROC       _MONIAUDIOMIXING
  -------         PROC          MONIAUDIOMUTE
  C:8370H         LINE#         307
  C:8370H         LINE#         308
  C:8370H         LINE#         309
  C:8378H         LINE#         314
  -------         ENDPROC       MONIAUDIOMUTE
  C:6759H         SYMBOL        L?0276
  C:6773H         SYMBOL        L?0303
  C:6784H         SYMBOL        L?0319
  -------         PROC          _MONIAUDIOGAIN
  X:00A5H         SYMBOL        szParam
  -------         DO            
  D:0027H         SYMBOL        selch0
  D:0028H         SYMBOL        selch1
  D:0029H         SYMBOL        selch2
  D:002AH         SYMBOL        selch3
  D:002BH         SYMBOL        selch4
  D:002CH         SYMBOL        ch0val
  D:002DH         SYMBOL        ch1val
  D:002EH         SYMBOL        ch2val
  D:002FH         SYMBOL        ch3val
  D:0030H         SYMBOL        ch4val
  X:00A8H         SYMBOL        getStr
  -------         ENDDO         
  C:6651H         LINE#         322
  C:6653H         LINE#         323
  C:6653H         LINE#         328
  C:6666H         LINE#         330
  C:668CH         LINE#         331
  C:668CH         LINE#         332
  C:66A1H         LINE#         333
  C:66A5H         LINE#         334
  C:66A8H         LINE#         336
  C:66A8H         LINE#         337
  C:66CAH         LINE#         339
  C:66CAH         LINE#         340
  C:66CDH         LINE#         341
  C:66D0H         LINE#         343
  C:66D0H         LINE#         344
  C:66E7H         LINE#         346
  C:66E7H         LINE#         347
  C:66E7H         LINE#         348
  C:66EAH         LINE#         349
  C:66EDH         LINE#         351
  C:66EDH         LINE#         352
  C:6707H         LINE#         354
  C:6707H         LINE#         355
  C:6707H         LINE#         356
  C:670AH         LINE#         357
  C:670DH         LINE#         358
  C:6710H         LINE#         360
  C:6710H         LINE#         361
  C:673BH         LINE#         363
BL51 BANKED LINKER/LOCATER V6.22                                                      03/28/2018  18:26:36  PAGE 25


  C:673BH         LINE#         364
  C:6743H         LINE#         365
  C:6747H         LINE#         366
  C:674FH         LINE#         367
  C:6758H         LINE#         368
  C:6758H         LINE#         370
  C:6758H         LINE#         371
  C:6758H         LINE#         372
  C:6758H         LINE#         373
  -------         ENDPROC       _MONIAUDIOGAIN
  -------         PROC          _MONIAUDIOLIVE
  D:0001H         SYMBOL        szParam
  -------         DO            
  D:0027H         SYMBOL        chan
  -------         ENDDO         
  C:82CEH         LINE#         380
  C:82CEH         LINE#         381
  C:82CEH         LINE#         384
  C:82DBH         LINE#         386
  -------         ENDPROC       _MONIAUDIOLIVE
  -------         PROC          MONIREGISTERDUMP
  -------         DO            
  D:0027H         SYMBOL        addr
  D:0028H         SYMBOL        page
  -------         ENDDO         
  C:7AA3H         LINE#         393
  C:7AA3H         LINE#         394
  C:7AA3H         LINE#         398
  C:7AA6H         LINE#         399
  C:7AB4H         LINE#         400
  C:7AB7H         LINE#         401
  C:7AB7H         LINE#         402
  C:7ACDH         LINE#         403
  C:7ACFH         LINE#         404
  C:7ADEH         LINE#         405
  C:7AE2H         LINE#         406
  C:7AEBH         LINE#         407
  -------         ENDPROC       MONIREGISTERDUMP
  -------         PROC          _MONIVIDEOMIXWIN
  D:0001H         SYMBOL        szParam
  -------         DO            
  D:0027H         SYMBOL        chose
  D:0028H         SYMBOL        wintp
  -------         ENDDO         
  C:7877H         LINE#         413
  C:7877H         LINE#         414
  C:7877H         LINE#         417
  C:78B9H         LINE#         419
  C:78C6H         LINE#         420
  -------         ENDPROC       _MONIVIDEOMIXWIN
  C:5AFFH         SYMBOL        L?0275
  C:5B06H         SYMBOL        L?0279
  C:5B0DH         SYMBOL        L?0283
  C:5B14H         SYMBOL        L?0289
  C:5B1BH         SYMBOL        L?0290
  C:5B2CH         SYMBOL        L?0293
  C:5B33H         SYMBOL        L?0296
BL51 BANKED LINKER/LOCATER V6.22                                                      03/28/2018  18:26:36  PAGE 26


  C:5B3AH         SYMBOL        L?0313
  -------         PROC          _MONIVIDEOMIXATTR
  X:00A5H         SYMBOL        szParam
  -------         DO            
  D:0027H         SYMBOL        chose
  D:0029H         SYMBOL        attrsel
  D:002AH         SYMBOL        setval
  D:002BH         SYMBOL        winNm
  D:002FH         SYMBOL        wincnt
  D:0030H         SYMBOL        division
  X:00A8H         SYMBOL        getStr
  -------         ENDDO         
  C:5931H         LINE#         427
  C:5936H         LINE#         428
  C:5936H         LINE#         431
  C:5939H         LINE#         435
  C:593FH         LINE#         436
  C:5949H         LINE#         438
  C:594FH         LINE#         439
  C:595BH         LINE#         441
  C:5969H         LINE#         442
  C:596CH         LINE#         443
  C:596CH         LINE#         444
  C:597DH         LINE#         445
  C:5980H         LINE#         446
  C:5980H         LINE#         447
  C:5991H         LINE#         448
  C:5994H         LINE#         449
  C:5994H         LINE#         450
  C:59A4H         LINE#         451
  C:59A7H         LINE#         452
  C:59A7H         LINE#         453
  C:59B7H         LINE#         454
  C:59BAH         LINE#         455
  C:59BAH         LINE#         456
  C:59CAH         LINE#         457
  C:59CDH         LINE#         458
  C:59CDH         LINE#         459
  C:59DDH         LINE#         460
  C:59E0H         LINE#         461
  C:59E0H         LINE#         462
  C:59F0H         LINE#         463
  C:59F3H         LINE#         464
  C:59F6H         LINE#         465
  C:5A07H         LINE#         466
  C:5A0AH         LINE#         467
  C:5A0AH         LINE#         468
  C:5A1BH         LINE#         469
  C:5A1EH         LINE#         470
  C:5A1EH         LINE#         471
  C:5A2EH         LINE#         472
  C:5A31H         LINE#         473
  C:5A31H         LINE#         474
  C:5A41H         LINE#         475
  C:5A44H         LINE#         476
  C:5A44H         LINE#         477
  C:5A54H         LINE#         478
BL51 BANKED LINKER/LOCATER V6.22                                                      03/28/2018  18:26:36  PAGE 27


  C:5A57H         LINE#         479
  C:5A57H         LINE#         480
  C:5A67H         LINE#         481
  C:5A6AH         LINE#         482
  C:5A6AH         LINE#         483
  C:5A7DH         LINE#         484
  C:5A80H         LINE#         485
  C:5A83H         LINE#         486
  C:5A98H         LINE#         487
  C:5A9BH         LINE#         488
  C:5A9DH         LINE#         489
  C:5A9DH         LINE#         491
  C:5A9DH         LINE#         493
  C:5AB3H         LINE#         494
  C:5AD0H         LINE#         495
  C:5AD0H         LINE#         496
  C:5AE1H         LINE#         497
  C:5AE3H         LINE#         498
  C:5AE3H         LINE#         499
  C:5AE5H         LINE#         500
  C:5AE9H         LINE#         501
  C:5AF3H         LINE#         502
  C:5AFAH         LINE#         503
  C:5AFAH         LINE#         504
  C:5AFEH         LINE#         505
  -------         ENDPROC       _MONIVIDEOMIXATTR
  -------         PROC          _MONIYVIDEOMIX
  D:0001H         SYMBOL        szParam
  -------         DO            
  D:0027H         SYMBOL        chan
  -------         ENDDO         
  C:8330H         LINE#         512
  C:8330H         LINE#         513
  C:8330H         LINE#         516
  C:833DH         LINE#         517
  -------         ENDPROC       _MONIYVIDEOMIX
  -------         PROC          MONIVIDEOAUTODETECT
  C:7F78H         LINE#         524
  C:7F78H         LINE#         525
  C:7F78H         LINE#         526
  -------         ENDPROC       MONIVIDEOAUTODETECT
  C:6D1DH         SYMBOL        L?0270
  C:6D3BH         SYMBOL        L?0315
  -------         PROC          _MONISETVIDEOFORMAT
  X:00A5H         SYMBOL        szParam
  -------         DO            
  D:0027H         SYMBOL        selch0
  D:0028H         SYMBOL        selch1
  D:0029H         SYMBOL        selch2
  D:002AH         SYMBOL        selch3
  D:002BH         SYMBOL        valch0
  D:002CH         SYMBOL        valch1
  D:002DH         SYMBOL        valch2
  D:002EH         SYMBOL        valch3
  X:00A8H         SYMBOL        getStr
  -------         ENDDO         
  C:6C30H         LINE#         538
BL51 BANKED LINKER/LOCATER V6.22                                                      03/28/2018  18:26:36  PAGE 28


  C:6C32H         LINE#         539
  C:6C32H         LINE#         544
  C:6C45H         LINE#         546
  C:6C65H         LINE#         547
  C:6C65H         LINE#         548
  C:6C7CH         LINE#         549
  C:6C7FH         LINE#         550
  C:6C82H         LINE#         552
  C:6C82H         LINE#         553
  C:6C99H         LINE#         555
  C:6CA1H         LINE#         556
  C:6CA9H         LINE#         557
  C:6CACH         LINE#         559
  C:6CACH         LINE#         560
  C:6CC6H         LINE#         562
  C:6CC6H         LINE#         563
  C:6CC9H         LINE#         564
  C:6CD1H         LINE#         565
  C:6CD4H         LINE#         567
  C:6CD4H         LINE#         568
  C:6CFFH         LINE#         570
  C:6CFFH         LINE#         571
  C:6D02H         LINE#         572
  C:6D0FH         LINE#         573
  C:6D1CH         LINE#         574
  C:6D1CH         LINE#         576
  C:6D1CH         LINE#         577
  C:6D1CH         LINE#         578
  C:6D1CH         LINE#         579
  -------         ENDPROC       _MONISETVIDEOFORMAT
  C:77B2H         SYMBOL        L?0297
  -------         PROC          _MONISHOWSODSTR
  X:00A5H         SYMBOL        szParam
  -------         DO            
  D:0027H         SYMBOL        addrx
  D:0028H         SYMBOL        addry
  X:00A8H         SYMBOL        getStr
  -------         ENDDO         
  C:7768H         LINE#         585
  C:776AH         LINE#         586
  C:776AH         LINE#         590
  C:776DH         LINE#         591
  C:7778H         LINE#         592
  C:777BH         LINE#         593
  C:7786H         LINE#         595
  C:778BH         LINE#         596
  C:7790H         LINE#         597
  C:7795H         LINE#         598
  C:77ADH         LINE#         599
  C:77B2H         LINE#         600
  -------         ENDPROC       _MONISHOWSODSTR
  -------         PROC          PCT_AUDIOACTIONFORHS
  -------         DO            
  D:0027H         SYMBOL        winid
  D:0028H         SYMBOL        muteFlage
  -------         ENDDO         
  C:7DC9H         LINE#         606
BL51 BANKED LINKER/LOCATER V6.22                                                      03/28/2018  18:26:36  PAGE 29


  C:7DC9H         LINE#         607
  C:7DC9H         LINE#         609
  C:7DCCH         LINE#         612
  C:7DCFH         LINE#         613
  C:7DD8H         LINE#         614
  C:7DE4H         LINE#         615
  C:7DE7H         LINE#         616
  C:7DE7H         LINE#         617
  C:7DF0H         LINE#         619
  C:7DF4H         LINE#         621
  C:7DFCH         LINE#         626
  C:7E03H         LINE#         627
  C:7E03H         LINE#         629
  -------         ENDPROC       PCT_AUDIOACTIONFORHS
  -------         PROC          _MONIHSCOMM
  D:0001H         SYMBOL        szParam
  -------         DO            
  D:0027H         SYMBOL        winid
  D:0028H         SYMBOL        chose
  D:0029H         SYMBOL        wintp
  -------         ENDDO         
  C:678EH         LINE#         636
  C:678EH         LINE#         640
  C:67F8H         LINE#         643
  C:6812H         LINE#         647
  C:681AH         LINE#         648
  C:6822H         LINE#         649
  C:682BH         LINE#         650
  C:6834H         LINE#         652
  C:683EH         LINE#         653
  C:6848H         LINE#         654
  C:6852H         LINE#         655
  C:685CH         LINE#         660
  C:6865H         LINE#         661
  C:686DH         LINE#         663
  C:6877H         LINE#         665
  C:687AH         LINE#         666
  C:6890H         LINE#         670
  C:6895H         LINE#         671
  C:689AH         LINE#         672
  C:689FH         LINE#         673
  C:68A6H         LINE#         674
  C:68ABH         LINE#         675
  C:68B0H         LINE#         676
  C:68B3H         LINE#         677
  C:68BCH         LINE#         678
  C:68C3H         LINE#         680
  -------         ENDPROC       _MONIHSCOMM
  -------         PROC          PCT_CHECKSYSTEM
  -------         DO            
  D:0007H         SYMBOL        TempSystem
  -------         ENDDO         
  C:7583H         LINE#         686
  C:7583H         LINE#         687
  C:7583H         LINE#         690
  C:7588H         LINE#         692
  C:758CH         LINE#         693
BL51 BANKED LINKER/LOCATER V6.22                                                      03/28/2018  18:26:36  PAGE 30


  C:758EH         LINE#         694
  C:7594H         LINE#         695
  C:7596H         LINE#         697
  C:759AH         LINE#         700
  C:75A9H         LINE#         702
  C:75AEH         LINE#         704
  C:75B5H         LINE#         705
  C:75BEH         LINE#         706
  C:75C6H         LINE#         708
  C:75D0H         LINE#         711
  C:75D5H         LINE#         712
  C:75D8H         LINE#         713
  C:75E1H         LINE#         714
  C:75E4H         LINE#         716
  C:75E5H         LINE#         717
  -------         ENDPROC       PCT_CHECKSYSTEM
  -------         PROC          _MONIHSCOMMSJMODE
  D:0001H         SYMBOL        szParam
  C:828CH         LINE#         723
  C:828CH         LINE#         724
  C:828CH         LINE#         725
  -------         ENDPROC       _MONIHSCOMMSJMODE
  -------         PROC          MONIHSCOMMDISSCROLL
  C:83CEH         LINE#         732
  C:83CEH         LINE#         733
  C:83CEH         LINE#         734
  -------         ENDPROC       MONIHSCOMMDISSCROLL
  -------         PROC          MONIHSCOMMVERSION
  -------         DO            
  D:0007H         SYMBOL        version
  -------         ENDDO         
  C:800FH         LINE#         742
  C:800FH         LINE#         743
  C:800FH         LINE#         744
  C:8010H         LINE#         747
  C:8015H         LINE#         751
  C:8020H         LINE#         752
  C:803AH         LINE#         753
  -------         ENDPROC       MONIHSCOMMVERSION
  C:568AH         SYMBOL        L?0259
  C:5691H         SYMBOL        L?0263
  C:5698H         SYMBOL        L?0269
  C:569FH         SYMBOL        L?0274
  C:56A6H         SYMBOL        L?0278
  C:56ADH         SYMBOL        L?0282
  C:56B4H         SYMBOL        L?0286
  C:56BBH         SYMBOL        L?0292
  C:56C2H         SYMBOL        L?0295
  C:56C9H         SYMBOL        L?0309
  C:56D0H         SYMBOL        L?0320
  -------         PROC          _PCT_RUNCOMMSHELL
  X:009FH         SYMBOL        strptr
  -------         DO            
  D:0025H         SYMBOL        commcode
  X:00A2H         SYMBOL        getStr
  -------         ENDDO         
  C:544BH         LINE#         768
BL51 BANKED LINKER/LOCATER V6.22                                                      03/28/2018  18:26:36  PAGE 31


  C:544DH         LINE#         769
  C:544DH         LINE#         775
  C:5460H         LINE#         778
  C:546CH         LINE#         780
  C:547AH         LINE#         782
  C:5480H         LINE#         783
  C:5491H         LINE#         785
  C:5497H         LINE#         786
  C:54A8H         LINE#         788
  C:54AEH         LINE#         789
  C:54BFH         LINE#         792
  C:54C5H         LINE#         793
  C:54D6H         LINE#         796
  C:54DCH         LINE#         797
  C:54EDH         LINE#         800
  C:54F3H         LINE#         801
  C:5504H         LINE#         804
  C:5507H         LINE#         805
  C:5518H         LINE#         808
  C:551BH         LINE#         809
  C:552CH         LINE#         812
  C:5532H         LINE#         813
  C:5543H         LINE#         816
  C:5549H         LINE#         817
  C:555AH         LINE#         820
  C:555DH         LINE#         821
  C:556EH         LINE#         824
  C:5573H         LINE#         825
  C:5579H         LINE#         826
  C:557CH         LINE#         827
  C:558DH         LINE#         830
  C:5593H         LINE#         831
  C:55A4H         LINE#         834
  C:55AAH         LINE#         835
  C:55BBH         LINE#         837
  C:55BEH         LINE#         839
  C:55C4H         LINE#         840
  C:55D5H         LINE#         843
  C:55D8H         LINE#         844
  C:55E9H         LINE#         847
  C:55ECH         LINE#         848
  C:55FDH         LINE#         851
  C:5603H         LINE#         852
  C:5614H         LINE#         855
  C:561AH         LINE#         857
  C:562BH         LINE#         858
  C:562EH         LINE#         860
  C:5634H         LINE#         862
  C:5637H         LINE#         863
  C:563AH         LINE#         864
  C:563FH         LINE#         872
  C:564FH         LINE#         873
  C:5652H         LINE#         875
  C:5658H         LINE#         876
  C:5668H         LINE#         877
  C:566BH         LINE#         879
  C:566EH         LINE#         880
BL51 BANKED LINKER/LOCATER V6.22                                                      03/28/2018  18:26:36  PAGE 32


  C:5681H         LINE#         881
  C:5684H         LINE#         883
  C:5687H         LINE#         886
  C:5687H         LINE#         887
  C:5687H         LINE#         890
  C:5689H         LINE#         891
  -------         ENDPROC       _PCT_RUNCOMMSHELL
  -------         ENDMOD        COMMANDSHELL

  -------         MODULE        MAIN
  C:0000H         SYMBOL        _ICE_DUMMY_
  C:7E74H         PUBLIC        _PutsP
  D:00B1H         PUBLIC        P3M0
  D:0090H         PUBLIC        P1
  D:00B2H         PUBLIC        P3M1
  D:00B0H         PUBLIC        P3
  B:00A8H.7       PUBLIC        EA
  X:006BH         PUBLIC        RScommand
  D:00A8H         PUBLIC        IE
  B:0024H.1       PUBLIC        VlossFlag
  D:00B8H         PUBLIC        IP
  B:0098H.1       PUBLIC        TI
  D:00D8H         PUBLIC        CCON
  C:73DAH         PUBLIC        main
  C:82A2H         PUBLIC        ResetCommSell
  D:0020H         PUBLIC        commFlag
  D:0087H         PUBLIC        PCON
  D:00C0H         PUBLIC        WDTC
  D:0098H         PUBLIC        SCON
  D:0089H         PUBLIC        TMOD
  D:0088H         PUBLIC        TCON
  C:83AEH         PUBLIC        NewLine
  C:83B7H         PUBLIC        _PCT_FlashOSDCtrl
  C:7921H         PUBLIC        CommandShell
  C:81CEH         PUBLIC        InitialMPU
  B:0020H.0       PUBLIC        comm_chk_flag
  D:00E8H         PUBLIC        IEA
  C:806AH         PUBLIC        _chkStartCommShell
  C:7B7AH         PUBLIC        _Wait_ms
  C:8399H         PUBLIC        InitialCommShell
  D:00F8H         PUBLIC        IPA
  B:0020H.1       PUBLIC        osd_chk_flag
  D:00C8H         PUBLIC        T2CON
  X:0096H         PUBLIC        _delay
  D:00D0H         PUBLIC        PSW
  -------         PROC          COMMANDSHELL
  -------         DO            
  D:0025H         SYMBOL        ch
  -------         ENDDO         
  C:7921H         LINE#         74
  C:7921H         LINE#         79
  C:792EH         LINE#         80
  C:7933H         LINE#         81
  C:7939H         LINE#         83
  C:7943H         LINE#         84
  C:7943H         LINE#         85
  C:794BH         LINE#         86
BL51 BANKED LINKER/LOCATER V6.22                                                      03/28/2018  18:26:36  PAGE 33


  C:794FH         LINE#         87
  C:7958H         LINE#         88
  C:795EH         LINE#         89
  C:795EH         LINE#         91
  C:795EH         LINE#         92
  C:7963H         LINE#         93
  C:7964H         LINE#         95
  C:7964H         LINE#         96
  C:796DH         LINE#         97
  C:7972H         LINE#         98
  C:7972H         LINE#         99
  C:7972H         LINE#         100
  C:7972H         LINE#         102
  -------         ENDPROC       COMMANDSHELL
  -------         PROC          NEWLINE
  C:83AEH         LINE#         108
  C:83AEH         LINE#         109
  C:83AEH         LINE#         110
  -------         ENDPROC       NEWLINE
  -------         PROC          _PUTSP
  X:009FH         SYMBOL        ptr
  -------         DO            
  D:0025H         SYMBOL        ch
  -------         ENDDO         
  C:7E74H         LINE#         117
  C:7E7EH         LINE#         118
  C:7E7EH         LINE#         121
  C:7E8DH         LINE#         122
  C:7EA3H         LINE#         123
  C:7EA7H         LINE#         124
  C:7EA9H         LINE#         125
  -------         ENDPROC       _PUTSP
  -------         PROC          RESETCOMMSELL
  C:82A2H         LINE#         131
  C:82A2H         LINE#         132
  C:82A2H         LINE#         133
  C:82AEH         LINE#         135
  C:82B2H         LINE#         136
  C:82B4H         LINE#         137
  C:82B7H         LINE#         138
  -------         ENDPROC       RESETCOMMSELL
  -------         PROC          _PCT_FLASHOSDCTRL
  D:0007H         SYMBOL        _on
  C:83B7H         LINE#         144
  C:83B7H         LINE#         145
  C:83B7H         LINE#         146
  C:83BDH         LINE#         147
  C:83BFH         LINE#         148
  -------         ENDPROC       _PCT_FLASHOSDCTRL
  -------         PROC          INITIALCOMMSHELL
  C:8399H         LINE#         154
  C:8399H         LINE#         155
  C:8399H         LINE#         156
  C:839BH         LINE#         157
  C:839DH         LINE#         160
  C:839FH         LINE#         161
  C:83A3H         LINE#         162
BL51 BANKED LINKER/LOCATER V6.22                                                      03/28/2018  18:26:36  PAGE 34


  -------         ENDPROC       INITIALCOMMSHELL
  -------         PROC          _CHKSTARTCOMMSHELL
  X:009FH         SYMBOL        ptr
  C:806AH         LINE#         168
  C:8074H         LINE#         169
  C:8074H         LINE#         170
  C:8077H         LINE#         171
  C:8093H         LINE#         172
  -------         ENDPROC       _CHKSTARTCOMMSHELL
  -------         PROC          _WAIT_MS
  X:00A5H         SYMBOL        Tms
  -------         DO            
  X:00A7H         SYMBOL        count
  -------         ENDDO         
  C:7B7AH         LINE#         174
  C:7B81H         LINE#         175
  C:7B81H         LINE#         187
  C:7B8AH         LINE#         188
  C:7B8AH         LINE#         189
  C:7BB2H         LINE#         190
  C:7BBDH         LINE#         191
  C:7BBFH         LINE#         192
  -------         ENDPROC       _WAIT_MS
  -------         PROC          MAIN
  -------         DO            
  X:009CH         SYMBOL        Counter
  X:009DH         SYMBOL        OsdCount1
  X:009EH         SYMBOL        OsdCount2
  -------         ENDDO         
  C:73DAH         LINE#         198
  C:73DAH         LINE#         199
  C:73DAH         LINE#         200
  C:73DEH         LINE#         201
  C:73E2H         LINE#         202
  C:73E6H         LINE#         205
  C:73E9H         LINE#         206
  C:73ECH         LINE#         207
  C:73EFH         LINE#         208
  C:73F2H         LINE#         210
  C:73F5H         LINE#         213
  C:73F5H         LINE#         214
  C:73F8H         LINE#         215
  C:7407H         LINE#         216
  C:7410H         LINE#         237
  C:7413H         LINE#         238
  C:7413H         LINE#         239
  C:7418H         LINE#         240
  C:741AH         LINE#         241
  C:741AH         LINE#         244
  C:7428H         LINE#         245
  C:7430H         LINE#         249
  C:7434H         LINE#         250
  C:743CH         LINE#         251
  C:743CH         LINE#         252
  C:7444H         LINE#         253
  C:7447H         LINE#         254
  C:744DH         LINE#         255
BL51 BANKED LINKER/LOCATER V6.22                                                      03/28/2018  18:26:36  PAGE 35


  C:744DH         LINE#         256
  -------         ENDPROC       MAIN
  -------         PROC          INITIALMPU
  C:81CEH         LINE#         265
  C:81CEH         LINE#         267
  C:81D1H         LINE#         268
  C:81D3H         LINE#         271
  C:81D6H         LINE#         278
  C:81D8H         LINE#         279
  C:81DBH         LINE#         282
  C:81DDH         LINE#         284
  C:81E0H         LINE#         288
  C:81E2H         LINE#         289
  C:81E5H         LINE#         291
  C:81E8H         LINE#         292
  C:81EBH         LINE#         294
  C:81EDH         LINE#         295
  C:81EFH         LINE#         296
  C:81F0H         LINE#         297
  -------         ENDPROC       INITIALMPU
  -------         ENDMOD        MAIN

  -------         MODULE        OSD_GRAPH
  C:0000H         SYMBOL        _ICE_DUMMY_
  D:0090H         PUBLIC        P1
  D:00B0H         PUBLIC        P3
  D:00A8H         PUBLIC        IE
  D:00B8H         PUBLIC        IP
  D:00D8H         PUBLIC        CCON
  C:2168H         PUBLIC        GRAPH16_TABLE
  D:00C0H         PUBLIC        WDTC
  D:0098H         PUBLIC        SCON
  D:0088H         PUBLIC        TCON
  C:0026H         PUBLIC        GRAPH_TABLE
  C:6223H         PUBLIC        _PCT_OSD16x16GraphX
  C:83D3H         PUBLIC        PCT_ClearGraphAttr
  D:00E8H         PUBLIC        IEA
  X:0098H         PUBLIC        graphattr
  D:00F8H         PUBLIC        IPA
  C:7709H         PUBLIC        _PCT_ShowGraphString
  D:00C8H         PUBLIC        T2CON
  D:00D0H         PUBLIC        PSW
  C:7D0BH         SYMBOL        Com001A
  C:7D0BH         SYMBOL        L?0027
  C:7D15H         SYMBOL        L?0028
  C:7D18H         SYMBOL        L?0029
  C:7D21H         SYMBOL        L?0031
  C:7D36H         SYMBOL        L?0032
  C:7D38H         SYMBOL        L?0033
  C:7D41H         SYMBOL        L?0034
  C:7D44H         SYMBOL        L?0035
  -------         PROC          COM001A
  -------         ENDPROC       COM001A
  -------         PROC          PCT_CLEARGRAPHATTR
  C:83D3H         LINE#         72
  C:83D3H         LINE#         73
  C:83D3H         LINE#         74
BL51 BANKED LINKER/LOCATER V6.22                                                      03/28/2018  18:26:36  PAGE 36


  C:83D7H         LINE#         75
  -------         ENDPROC       PCT_CLEARGRAPHATTR
  C:6346H         SYMBOL        L?0025
  C:636DH         SYMBOL        L?0030
  C:6375H         SYMBOL        L?0036
  C:637DH         SYMBOL        L?0037
  C:6388H         SYMBOL        L?0038
  -------         PROC          _PCT_OSD16X16GRAPHX
  X:00AFH         SYMBOL        _posx
  X:00B0H         SYMBOL        _posy
  D:0003H         SYMBOL        _indx
  -------         DO            
  X:00B2H         SYMBOL        row
  X:00B3H         SYMBOL        column
  X:00B4H         SYMBOL        cntr
  X:00B5H         SYMBOL        cntc
  X:00B6H         SYMBOL        posx
  X:00B7H         SYMBOL        graph
  -------         ENDDO         
  C:6223H         LINE#         96
  C:622DH         LINE#         97
  C:622DH         LINE#         101
  C:6234H         LINE#         102
  C:623BH         LINE#         103
  C:6250H         LINE#         104
  C:6258H         LINE#         105
  C:6275H         LINE#         106
  C:627AH         LINE#         107
  C:6280H         LINE#         109
  C:6291H         LINE#         110
  C:62A2H         LINE#         111
  C:62B3H         LINE#         112
  C:62BEH         LINE#         113
  C:62C9H         LINE#         114
  C:62D7H         LINE#         115
  C:62E1H         LINE#         116
  C:62E9H         LINE#         118
  C:62F1H         LINE#         119
  C:62FBH         LINE#         121
  C:630AH         LINE#         122
  C:630DH         LINE#         123
  C:6313H         LINE#         125
  C:631CH         LINE#         126
  C:631FH         LINE#         127
  C:6325H         LINE#         129
  C:632AH         LINE#         130
  C:6332H         LINE#         131
  C:6338H         LINE#         132
  C:633DH         LINE#         133
  C:6345H         LINE#         134
  -------         ENDPROC       _PCT_OSD16X16GRAPHX
  -------         PROC          _PCT_SHOWGRAPHSTRING
  X:00A8H         SYMBOL        _path
  X:00A9H         SYMBOL        _addrx
  X:00AAH         SYMBOL        _addry
  X:00ABH         SYMBOL        _strptr
  -------         DO            
BL51 BANKED LINKER/LOCATER V6.22                                                      03/28/2018  18:26:36  PAGE 37


  X:00AEH         SYMBOL        slen
  -------         ENDDO         
  C:7709H         LINE#         140
  C:7713H         LINE#         141
  C:7713H         LINE#         144
  C:771EH         LINE#         145
  C:7725H         LINE#         147
  C:772BH         LINE#         151
  C:772BH         LINE#         152
  C:772BH         LINE#         153
  C:773FH         LINE#         154
  C:7744H         LINE#         155
  C:7748H         LINE#         156
  C:774EH         LINE#         157
  C:7758H         LINE#         158
  C:775AH         LINE#         159
  C:775AH         LINE#         160
  C:7764H         LINE#         161
  C:7764H         LINE#         162
  C:7767H         LINE#         164
  -------         ENDPROC       _PCT_SHOWGRAPHSTRING
  -------         ENDMOD        OSD_GRAPH

  -------         MODULE        OSDACTION
  C:0000H         SYMBOL        _ICE_DUMMY_
  C:7A59H         PUBLIC        PCT_InitialOSD
  C:7BC0H         PUBLIC        PCT_ShowModeIcon
  D:0090H         PUBLIC        P1
  D:00B0H         PUBLIC        P3
  C:83C0H         PUBLIC        PCT_EnfalshVLoss
  C:81A9H         PUBLIC        camstr
  D:00A8H         PUBLIC        IE
  D:00B8H         PUBLIC        IP
  C:56D7H         PUBLIC        _PCT_ShowIndicateIcon
  C:81C6H         PUBLIC        SPEAKICON
  D:00D8H         PUBLIC        CCON
  X:009AH         PUBLIC        VlossCount
  D:00C0H         PUBLIC        WDTC
  D:0098H         PUBLIC        SCON
  D:0088H         PUBLIC        TCON
  B:0021H.0       PUBLIC        OSDPAGE2
  B:0021H.1       PUBLIC        OSDPAGE3
  B:0021H.2       PUBLIC        OSDPAGE4
  B:0021H.3       PUBLIC        OSDPAGE5
  D:0021H         PUBLIC        osdflage
  D:00E8H         PUBLIC        IEA
  C:7356H         PUBLIC        PCT_GetVideoSignalStatus
  C:81BEH         PUBLIC        indicate_icon
  C:8184H         PUBLIC        PCT_OSDActionForHS
  D:00F8H         PUBLIC        IPA
  C:81C8H         PUBLIC        msgVLOSS
  D:00C8H         PUBLIC        T2CON
  C:33ACH         PUBLIC        _PCT_ShowMirrorIcon
  C:4B26H         PUBLIC        _PCT_OSD_ActionPthX
  D:00D0H         PUBLIC        PSW
  C:74B7H         SYMBOL        Com011B
  C:74B7H         SYMBOL        L?0284
BL51 BANKED LINKER/LOCATER V6.22                                                      03/28/2018  18:26:36  PAGE 38


  C:74B7H         SYMBOL        L?0285
  C:74B9H         SYMBOL        L?0286
  C:74C5H         SYMBOL        L?0287
  C:74CAH         SYMBOL        L?0288
  C:74D2H         SYMBOL        L?0289
  C:74D2H         SYMBOL        L?0290
  C:74D4H         SYMBOL        L?0291
  C:74DDH         SYMBOL        L?0292
  C:74DDH         SYMBOL        L?0293
  C:74EBH         SYMBOL        L?0302
  C:74EBH         SYMBOL        L?0303
  C:74F1H         SYMBOL        L?0311
  C:74F1H         SYMBOL        L?0312
  C:74F4H         SYMBOL        L?0313
  C:74FDH         SYMBOL        L?0317
  C:74FDH         SYMBOL        L?0318
  C:7503H         SYMBOL        L?0336
  C:7503H         SYMBOL        L?0337
  C:750AH         SYMBOL        L?0338
  C:750AH         SYMBOL        L?0339
  C:7510H         SYMBOL        L?0340
  C:7510H         SYMBOL        L?0341
  C:7517H         SYMBOL        L?0342
  C:7517H         SYMBOL        L?0343
  -------         PROC          COM011B
  -------         ENDPROC       COM011B
  C:7A8EH         SYMBOL        L?0329
  -------         PROC          PCT_INITIALOSD
  -------         DO            
  D:0027H         SYMBOL        page
  -------         ENDDO         
  C:7A59H         LINE#         102
  C:7A59H         LINE#         103
  C:7A59H         LINE#         106
  C:7A5CH         LINE#         107
  C:7A5FH         LINE#         109
  C:7A64H         LINE#         110
  C:7A69H         LINE#         111
  C:7A6CH         LINE#         112
  C:7A6EH         LINE#         113
  C:7A71H         LINE#         114
  C:7A7AH         LINE#         115
  C:7A7FH         LINE#         116
  C:7A84H         LINE#         117
  C:7A86H         LINE#         118
  C:7A89H         LINE#         120
  C:7A8DH         LINE#         121
  -------         ENDPROC       PCT_INITIALOSD
  C:4DE8H         SYMBOL        L?0295
  C:4DF2H         SYMBOL        L?0298
  C:4DFCH         SYMBOL        L?0305
  C:4E06H         SYMBOL        L?0307
  C:4E10H         SYMBOL        L?0314
  C:4E1AH         SYMBOL        L?0322
  C:4E24H         SYMBOL        L?0325
  C:4E2EH         SYMBOL        L?0331
  C:4E38H         SYMBOL        L?0332
BL51 BANKED LINKER/LOCATER V6.22                                                      03/28/2018  18:26:36  PAGE 39


  C:4E42H         SYMBOL        L?0345
  C:4E4CH         SYMBOL        L?0346
  -------         PROC          _PCT_OSD_ACTIONPTHX
  X:00A5H         SYMBOL        _attr
  C:4B26H         LINE#         128
  C:4B2CH         LINE#         129
  C:4B2CH         LINE#         130
  C:4B31H         LINE#         131
  C:4B36H         LINE#         132
  C:4B6AH         LINE#         135
  C:4B6AH         LINE#         136
  C:4B76H         LINE#         137
  C:4B79H         LINE#         139
  C:4B79H         LINE#         140
  C:4B88H         LINE#         141
  C:4B9BH         LINE#         142
  C:4B9EH         LINE#         144
  C:4B9EH         LINE#         145
  C:4BADH         LINE#         146
  C:4BB9H         LINE#         147
  C:4BBCH         LINE#         149
  C:4BBCH         LINE#         150
  C:4BCBH         LINE#         151
  C:4BDCH         LINE#         152
  C:4BE8H         LINE#         153
  C:4BEBH         LINE#         155
  C:4BEBH         LINE#         156
  C:4BEBH         LINE#         158
  C:4BEBH         LINE#         159
  C:4BFAH         LINE#         160
  C:4C0BH         LINE#         161
  C:4C19H         LINE#         162
  C:4C1CH         LINE#         164
  C:4C1CH         LINE#         165
  C:4C2BH         LINE#         166
  C:4C3CH         LINE#         167
  C:4C4FH         LINE#         168
  C:4C52H         LINE#         170
  C:4C52H         LINE#         171
  C:4C61H         LINE#         172
  C:4C72H         LINE#         173
  C:4C83H         LINE#         174
  C:4C96H         LINE#         175
  C:4C99H         LINE#         178
  C:4C99H         LINE#         179
  C:4CAAH         LINE#         180
  C:4CACH         LINE#         182
  C:4CACH         LINE#         183
  C:4CBBH         LINE#         184
  C:4CD0H         LINE#         185
  C:4CD3H         LINE#         187
  C:4CD3H         LINE#         188
  C:4CE2H         LINE#         189
  C:4CF7H         LINE#         190
  C:4CFAH         LINE#         192
  C:4CFAH         LINE#         193
  C:4D09H         LINE#         194
BL51 BANKED LINKER/LOCATER V6.22                                                      03/28/2018  18:26:36  PAGE 40


  C:4D1AH         LINE#         195
  C:4D2FH         LINE#         196
  C:4D32H         LINE#         198
  C:4D32H         LINE#         199
  C:4D32H         LINE#         201
  C:4D32H         LINE#         202
  C:4D41H         LINE#         203
  C:4D52H         LINE#         204
  C:4D67H         LINE#         205
  C:4D6AH         LINE#         207
  C:4D6AH         LINE#         208
  C:4D79H         LINE#         209
  C:4D8AH         LINE#         210
  C:4D9CH         LINE#         211
  C:4D9FH         LINE#         213
  C:4D9FH         LINE#         214
  C:4DAEH         LINE#         215
  C:4DBFH         LINE#         216
  C:4DD0H         LINE#         217
  C:4DE7H         LINE#         218
  C:4DE7H         LINE#         307
  C:4DE7H         LINE#         308
  C:4DE7H         LINE#         309
  C:4DE7H         LINE#         310
  -------         ENDPROC       _PCT_OSD_ACTIONPTHX
  -------         PROC          PCT_ENFALSHVLOSS
  C:83C0H         LINE#         316
  C:83C0H         LINE#         317
  C:83C0H         LINE#         318
  C:83C6H         LINE#         319
  -------         ENDPROC       PCT_ENFALSHVLOSS
  -------         PROC          PCT_GETVIDEOSIGNALSTATUS
  -------         DO            
  X:0099H         SYMBOL        sign
  X:009FH         SYMBOL        x
  -------         ENDDO         
  C:7356H         LINE#         325
  C:7356H         LINE#         326
  C:7356H         LINE#         331
  C:7366H         LINE#         333
  C:736CH         LINE#         336
  C:736EH         LINE#         337
  C:7384H         LINE#         355
  C:738BH         LINE#         359
  C:7392H         LINE#         361
  C:7399H         LINE#         362
  C:7399H         LINE#         363
  C:73A4H         LINE#         364
  C:73A6H         LINE#         366
  C:73A9H         LINE#         367
  C:73A9H         LINE#         368
  C:73A9H         LINE#         369
  C:73A9H         LINE#         370
  C:73A9H         LINE#         371
  C:73ABH         LINE#         372
  C:73B1H         LINE#         373
  C:73B1H         LINE#         374
BL51 BANKED LINKER/LOCATER V6.22                                                      03/28/2018  18:26:36  PAGE 41


  C:73B1H         LINE#         375
  C:73B1H         LINE#         376
  C:73B1H         LINE#         377
  C:73B3H         LINE#         378
  C:73B9H         LINE#         379
  C:73B9H         LINE#         380
  C:73B9H         LINE#         381
  C:73B9H         LINE#         382
  C:73B9H         LINE#         383
  C:73BBH         LINE#         384
  C:73C1H         LINE#         385
  C:73C1H         LINE#         386
  C:73C6H         LINE#         387
  C:73CBH         LINE#         388
  C:73D0H         LINE#         389
  C:73D0H         LINE#         391
  C:73D0H         LINE#         393
  C:73D9H         LINE#         396
  -------         ENDPROC       PCT_GETVIDEOSIGNALSTATUS
  C:589AH         SYMBOL        L?0297
  C:58B5H         SYMBOL        L?0301
  C:58CEH         SYMBOL        L?0315
  C:58E9H         SYMBOL        L?0319
  C:5902H         SYMBOL        L?0321
  C:590FH         SYMBOL        L?0327
  C:591CH         SYMBOL        L?0344
  C:5927H         SYMBOL        L?0347
  -------         PROC          _PCT_SHOWINDICATEICON
  X:00A5H         SYMBOL        _attr
  -------         DO            
  D:0027H         SYMBOL        iconid
  -------         ENDDO         
  C:56D7H         LINE#         416
  C:56DDH         LINE#         417
  C:56DDH         LINE#         421
  C:56E2H         LINE#         422
  C:5710H         LINE#         424
  C:5710H         LINE#         425
  C:5710H         LINE#         426
  C:5718H         LINE#         428
  C:571AH         LINE#         429
  C:571AH         LINE#         430
  C:571AH         LINE#         431
  C:571DH         LINE#         432
  C:571DH         LINE#         433
  C:571DH         LINE#         435
  C:5729H         LINE#         436
  C:5729H         LINE#         437
  C:5729H         LINE#         438
  C:5729H         LINE#         439
  C:572CH         LINE#         441
  C:572CH         LINE#         442
  C:5734H         LINE#         443
  C:5734H         LINE#         444
  C:5734H         LINE#         446
  C:5734H         LINE#         447
  C:5737H         LINE#         449
BL51 BANKED LINKER/LOCATER V6.22                                                      03/28/2018  18:26:36  PAGE 42


  C:5737H         LINE#         450
  C:5737H         LINE#         452
  C:573FH         LINE#         454
  C:5741H         LINE#         455
  C:5741H         LINE#         456
  C:574BH         LINE#         457
  C:574DH         LINE#         458
  C:574DH         LINE#         459
  C:574DH         LINE#         461
  C:5759H         LINE#         462
  C:5759H         LINE#         463
  C:5759H         LINE#         464
  C:5761H         LINE#         465
  C:5763H         LINE#         467
  C:5763H         LINE#         468
  C:5768H         LINE#         469
  C:576EH         LINE#         470
  C:576EH         LINE#         472
  C:576EH         LINE#         475
  C:5779H         LINE#         476
  C:577BH         LINE#         477
  C:577BH         LINE#         478
  C:577BH         LINE#         479
  C:577EH         LINE#         480
  C:577EH         LINE#         481
  C:577EH         LINE#         482
  C:577EH         LINE#         483
  C:5781H         LINE#         485
  C:5781H         LINE#         486
  C:5781H         LINE#         488
  C:5789H         LINE#         490
  C:578BH         LINE#         491
  C:578BH         LINE#         492
  C:5795H         LINE#         493
  C:5797H         LINE#         494
  C:5797H         LINE#         495
  C:5797H         LINE#         497
  C:57A3H         LINE#         498
  C:57A3H         LINE#         499
  C:57A3H         LINE#         500
  C:57ABH         LINE#         501
  C:57ADH         LINE#         503
  C:57ADH         LINE#         504
  C:57B2H         LINE#         505
  C:57B8H         LINE#         506
  C:57B8H         LINE#         508
  C:57B8H         LINE#         511
  C:57C3H         LINE#         512
  C:57C5H         LINE#         513
  C:57C5H         LINE#         514
  C:57C5H         LINE#         515
  C:57C8H         LINE#         516
  C:57C8H         LINE#         517
  C:57CFH         LINE#         518
  C:57CFH         LINE#         519
  C:57D2H         LINE#         521
  C:57D2H         LINE#         522
BL51 BANKED LINKER/LOCATER V6.22                                                      03/28/2018  18:26:36  PAGE 43


  C:57D2H         LINE#         524
  C:57DAH         LINE#         526
  C:57DCH         LINE#         527
  C:57DCH         LINE#         528
  C:57E6H         LINE#         529
  C:57E9H         LINE#         530
  C:57E9H         LINE#         531
  C:57E9H         LINE#         533
  C:57F5H         LINE#         534
  C:57F5H         LINE#         535
  C:57F5H         LINE#         536
  C:57F8H         LINE#         537
  C:57FBH         LINE#         539
  C:57FBH         LINE#         540
  C:5803H         LINE#         541
  C:5806H         LINE#         542
  C:5806H         LINE#         544
  C:5806H         LINE#         545
  C:5809H         LINE#         547
  C:5809H         LINE#         548
  C:5809H         LINE#         549
  C:5809H         LINE#         551
  C:5809H         LINE#         552
  C:5809H         LINE#         554
  C:5811H         LINE#         556
  C:5813H         LINE#         557
  C:5813H         LINE#         558
  C:581DH         LINE#         559
  C:5820H         LINE#         560
  C:5820H         LINE#         561
  C:5822H         LINE#         563
  C:582EH         LINE#         564
  C:582EH         LINE#         565
  C:582EH         LINE#         566
  C:5831H         LINE#         567
  C:5834H         LINE#         569
  C:5834H         LINE#         570
  C:5839H         LINE#         571
  C:583CH         LINE#         572
  C:583CH         LINE#         574
  C:583CH         LINE#         575
  C:583FH         LINE#         577
  C:583FH         LINE#         578
  C:583FH         LINE#         580
  C:584AH         LINE#         582
  C:584CH         LINE#         583
  C:584FH         LINE#         584
  C:5865H         LINE#         585
  C:5867H         LINE#         586
  C:5867H         LINE#         587
  C:5869H         LINE#         589
  C:5875H         LINE#         590
  C:5875H         LINE#         591
  C:5878H         LINE#         592
  C:588EH         LINE#         593
  C:588EH         LINE#         595
  C:588EH         LINE#         596
BL51 BANKED LINKER/LOCATER V6.22                                                      03/28/2018  18:26:36  PAGE 44


  C:5893H         LINE#         597
  C:5899H         LINE#         598
  C:5899H         LINE#         600
  C:5899H         LINE#         601
  C:5899H         LINE#         603
  C:5899H         LINE#         604
  C:5899H         LINE#         605
  C:5899H         LINE#         607
  C:5899H         LINE#         608
  C:5899H         LINE#         609
  C:5899H         LINE#         610
  -------         ENDPROC       _PCT_SHOWINDICATEICON
  C:3739H         SYMBOL        L?0294
  C:3744H         SYMBOL        L?0296
  C:374EH         SYMBOL        L?0299
  C:3758H         SYMBOL        L?0300
  C:3763H         SYMBOL        L?0304
  C:376EH         SYMBOL        L?0306
  C:3778H         SYMBOL        L?0308
  C:3782H         SYMBOL        L?0309
  C:378DH         SYMBOL        L?0310
  C:3798H         SYMBOL        L?0316
  C:37A2H         SYMBOL        L?0320
  C:37ADH         SYMBOL        L?0323
  C:37B7H         SYMBOL        L?0324
  C:37C2H         SYMBOL        L?0326
  C:37CCH         SYMBOL        L?0328
  C:37D8H         SYMBOL        L?0330
  C:37E3H         SYMBOL        L?0333
  C:37EDH         SYMBOL        L?0334
  C:37F7H         SYMBOL        L?0348
  C:3801H         SYMBOL        L?0349
  -------         PROC          _PCT_SHOWMIRRORICON
  X:00A5H         SYMBOL        _attr
  C:33ACH         LINE#         620
  C:33B2H         LINE#         621
  C:33B2H         LINE#         622
  C:33B7H         LINE#         623
  C:33EBH         LINE#         626
  C:33EBH         LINE#         628
  C:33F6H         LINE#         629
  C:33F6H         LINE#         630
  C:33F9H         LINE#         631
  C:33F9H         LINE#         632
  C:33F9H         LINE#         633
  C:33FCH         LINE#         635
  C:33FCH         LINE#         637
  C:3407H         LINE#         638
  C:340DH         LINE#         639
  C:340FH         LINE#         640
  C:3412H         LINE#         641
  C:3412H         LINE#         643
  C:341DH         LINE#         644
  C:341DH         LINE#         645
  C:3420H         LINE#         646
  C:3420H         LINE#         647
  C:3420H         LINE#         648
BL51 BANKED LINKER/LOCATER V6.22                                                      03/28/2018  18:26:36  PAGE 45


  C:3423H         LINE#         650
  C:3423H         LINE#         652
  C:342EH         LINE#         653
  C:3434H         LINE#         654
  C:3436H         LINE#         655
  C:3439H         LINE#         656
  C:3439H         LINE#         659
  C:3444H         LINE#         660
  C:3444H         LINE#         661
  C:3447H         LINE#         662
  C:3447H         LINE#         663
  C:3447H         LINE#         665
  C:344AH         LINE#         667
  C:344AH         LINE#         669
  C:3455H         LINE#         670
  C:345BH         LINE#         671
  C:345DH         LINE#         672
  C:3460H         LINE#         673
  C:3460H         LINE#         676
  C:346BH         LINE#         677
  C:3471H         LINE#         678
  C:3473H         LINE#         679
  C:3476H         LINE#         680
  C:3476H         LINE#         683
  C:3481H         LINE#         684
  C:3481H         LINE#         685
  C:3484H         LINE#         686
  C:3484H         LINE#         687
  C:3484H         LINE#         688
  C:3487H         LINE#         690
  C:3487H         LINE#         691
  C:3487H         LINE#         693
  C:3487H         LINE#         695
  C:3492H         LINE#         696
  C:3498H         LINE#         697
  C:349AH         LINE#         698
  C:349DH         LINE#         699
  C:349DH         LINE#         702
  C:34A8H         LINE#         703
  C:34AEH         LINE#         704
  C:34B0H         LINE#         705
  C:34B3H         LINE#         706
  C:34B3H         LINE#         709
  C:34BEH         LINE#         710
  C:34BEH         LINE#         711
  C:34C1H         LINE#         712
  C:34C1H         LINE#         713
  C:34C1H         LINE#         714
  C:34C4H         LINE#         716
  C:34C4H         LINE#         718
  C:34CFH         LINE#         719
  C:34D5H         LINE#         720
  C:34D7H         LINE#         721
  C:34DAH         LINE#         722
  C:34DAH         LINE#         725
  C:34E5H         LINE#         726
  C:34EBH         LINE#         727
BL51 BANKED LINKER/LOCATER V6.22                                                      03/28/2018  18:26:36  PAGE 46


  C:34EDH         LINE#         728
  C:34F0H         LINE#         729
  C:34F0H         LINE#         732
  C:34FBH         LINE#         733
  C:3500H         LINE#         734
  C:3503H         LINE#         735
  C:3507H         LINE#         736
  C:3507H         LINE#         737
  C:350AH         LINE#         739
  C:350AH         LINE#         741
  C:3515H         LINE#         742
  C:351BH         LINE#         743
  C:351DH         LINE#         744
  C:3520H         LINE#         745
  C:3520H         LINE#         748
  C:352BH         LINE#         749
  C:3531H         LINE#         750
  C:3533H         LINE#         751
  C:3536H         LINE#         752
  C:3536H         LINE#         755
  C:3541H         LINE#         756
  C:3547H         LINE#         757
  C:3549H         LINE#         758
  C:354CH         LINE#         759
  C:354CH         LINE#         762
  C:3557H         LINE#         763
  C:355CH         LINE#         764
  C:355FH         LINE#         765
  C:3563H         LINE#         766
  C:3563H         LINE#         767
  C:3566H         LINE#         770
  C:3566H         LINE#         772
  C:3571H         LINE#         773
  C:3576H         LINE#         774
  C:3578H         LINE#         775
  C:357DH         LINE#         776
  C:357DH         LINE#         777
  C:357FH         LINE#         779
  C:357FH         LINE#         781
  C:358AH         LINE#         782
  C:3590H         LINE#         783
  C:3592H         LINE#         784
  C:3595H         LINE#         785
  C:3595H         LINE#         787
  C:35A0H         LINE#         788
  C:35A7H         LINE#         789
  C:35AAH         LINE#         790
  C:35B2H         LINE#         791
  C:35B2H         LINE#         792
  C:35B5H         LINE#         794
  C:35B5H         LINE#         796
  C:35C0H         LINE#         797
  C:35C6H         LINE#         798
  C:35C8H         LINE#         799
  C:35CBH         LINE#         800
  C:35CBH         LINE#         803
  C:35D6H         LINE#         804
BL51 BANKED LINKER/LOCATER V6.22                                                      03/28/2018  18:26:36  PAGE 47


  C:35DDH         LINE#         805
  C:35E0H         LINE#         806
  C:35E3H         LINE#         807
  C:35E3H         LINE#         809
  C:35E6H         LINE#         811
  C:35E6H         LINE#         813
  C:35F1H         LINE#         814
  C:35F7H         LINE#         815
  C:35F9H         LINE#         816
  C:35FCH         LINE#         817
  C:35FCH         LINE#         820
  C:3607H         LINE#         821
  C:360DH         LINE#         822
  C:360FH         LINE#         823
  C:3617H         LINE#         824
  C:3617H         LINE#         827
  C:3622H         LINE#         828
  C:3629H         LINE#         829
  C:362CH         LINE#         830
  C:3634H         LINE#         831
  C:3634H         LINE#         832
  C:3637H         LINE#         834
  C:3637H         LINE#         835
  C:3637H         LINE#         837
  C:3637H         LINE#         839
  C:3642H         LINE#         840
  C:3648H         LINE#         841
  C:364AH         LINE#         842
  C:364DH         LINE#         843
  C:364DH         LINE#         846
  C:3658H         LINE#         847
  C:365EH         LINE#         848
  C:3660H         LINE#         849
  C:3663H         LINE#         850
  C:3663H         LINE#         853
  C:366EH         LINE#         854
  C:3675H         LINE#         855
  C:3678H         LINE#         856
  C:367DH         LINE#         857
  C:367DH         LINE#         858
  C:3680H         LINE#         860
  C:3680H         LINE#         862
  C:368BH         LINE#         863
  C:3691H         LINE#         864
  C:3693H         LINE#         865
  C:3696H         LINE#         866
  C:3696H         LINE#         869
  C:36A1H         LINE#         870
  C:36A7H         LINE#         871
  C:36A9H         LINE#         872
  C:36AFH         LINE#         873
  C:36AFH         LINE#         876
  C:36BAH         LINE#         877
  C:36C1H         LINE#         878
  C:36C4H         LINE#         879
  C:36CCH         LINE#         880
  C:36CCH         LINE#         881
BL51 BANKED LINKER/LOCATER V6.22                                                      03/28/2018  18:26:36  PAGE 48


  C:36CFH         LINE#         883
  C:36CFH         LINE#         885
  C:36DAH         LINE#         886
  C:36E0H         LINE#         887
  C:36E2H         LINE#         888
  C:36E5H         LINE#         889
  C:36E5H         LINE#         892
  C:36F0H         LINE#         893
  C:36F6H         LINE#         894
  C:36F8H         LINE#         895
  C:36FEH         LINE#         896
  C:36FEH         LINE#         899
  C:3709H         LINE#         900
  C:370FH         LINE#         901
  C:3711H         LINE#         902
  C:3719H         LINE#         903
  C:3719H         LINE#         906
  C:3724H         LINE#         907
  C:3730H         LINE#         908
  C:3730H         LINE#         909
  C:3738H         LINE#         910
  C:3738H         LINE#         911
  C:3738H         LINE#         1202
  C:3738H         LINE#         1203
  C:3738H         LINE#         1204
  C:3738H         LINE#         1205
  -------         ENDPROC       _PCT_SHOWMIRRORICON
  C:7BF3H         SYMBOL        L?0335
  -------         PROC          PCT_SHOWMODEICON
  C:7BC0H         LINE#         1904
  C:7BC0H         LINE#         1905
  C:7BC0H         LINE#         1906
  C:7BC5H         LINE#         1908
  C:7BCFH         LINE#         1909
  C:7BCFH         LINE#         1910
  C:7BCFH         LINE#         1911
  C:7BCFH         LINE#         1912
  C:7BCFH         LINE#         1913
  C:7BD8H         LINE#         1914
  C:7BD8H         LINE#         1915
  C:7BDAH         LINE#         1917
  C:7BDAH         LINE#         1918
  C:7BDAH         LINE#         1919
  C:7BDAH         LINE#         1920
  C:7BEDH         LINE#         1921
  C:7BF2H         LINE#         1922
  C:7BF2H         LINE#         1924
  C:7BF2H         LINE#         1925
  C:7BF2H         LINE#         1926
  C:7BF2H         LINE#         1927
  -------         ENDPROC       PCT_SHOWMODEICON
  -------         PROC          PCT_OSDACTIONFORHS
  C:8184H         LINE#         1933
  C:8184H         LINE#         1934
  C:8184H         LINE#         1935
  C:8189H         LINE#         1937
  C:818FH         LINE#         1941
BL51 BANKED LINKER/LOCATER V6.22                                                      03/28/2018  18:26:36  PAGE 49


  C:818FH         LINE#         1943
  C:8198H         LINE#         1948
  C:81A1H         LINE#         1949
  C:81A1H         LINE#         1950
  C:81A4H         LINE#         1951
  -------         ENDPROC       PCT_OSDACTIONFORHS
  -------         ENDMOD        OSDACTION

  -------         MODULE        OSDCTRL
  C:0000H         SYMBOL        _ICE_DUMMY_
  D:0090H         PUBLIC        P1
  C:250CH         PUBLIC        FONT_TABLE
  D:00B0H         PUBLIC        P3
  C:7195H         PUBLIC        _PCT_FullColorOnOSD
  C:7EAAH         PUBLIC        _PCT_EnShowOSDPage
  D:00A8H         PUBLIC        IE
  D:0016H         PUBLIC        backColor
  D:00B8H         PUBLIC        IP
  D:00D8H         PUBLIC        CCON
  C:83DBH         PUBLIC        _PCT_PreSetBackgroundColor
  C:70F4H         PUBLIC        _PCT_ClearWordsPathX
  D:0017H         PUBLIC        foreColor
  D:00C0H         PUBLIC        WDTC
  D:0098H         PUBLIC        SCON
  D:0088H         PUBLIC        TCON
  C:6E4BH         PUBLIC        _PCT_WriteOSDFntX
  C:6F42H         PUBLIC        _PCT_WriteOSDFntY
  C:83D8H         PUBLIC        _PCT_PreSetForegroundColor
  C:68C4H         PUBLIC        PCT_InitOSDColor
  B:0022H.0       PUBLIC        DAT_BIT0
  B:0022H.1       PUBLIC        DAT_BIT1
  B:0022H.2       PUBLIC        DAT_BIT2
  B:0022H.3       PUBLIC        DAT_BIT3
  B:0022H.4       PUBLIC        DAT_BIT4
  B:0022H.5       PUBLIC        DAT_BIT5
  C:76A9H         PUBLIC        _PCT_ShowOSDString
  D:00E8H         PUBLIC        IEA
  B:0022H.6       PUBLIC        DAT_BIT6
  B:0022H.7       PUBLIC        DAT_BIT7
  D:00F8H         PUBLIC        IPA
  C:7973H         PUBLIC        _PCT_SetOSDColor
  D:00C8H         PUBLIC        T2CON
  C:81F1H         PUBLIC        _PCT_SetOSDDrawPage
  C:6392H         PUBLIC        _PCT_WriteOSDDataBufferX
  C:8244H         PUBLIC        _PCT_ClearOSDPageX
  C:6B13H         PUBLIC        _PCT_WriteOSDDataBufferY
  C:820EH         PUBLIC        _PCT_DisShowOSDPage
  D:00D0H         PUBLIC        PSW
  D:0022H         PUBLIC        bitdat
  C:64FBH         SYMBOL        Com0080
  C:64FBH         SYMBOL        L?0129
  C:6507H         SYMBOL        L?0130
  C:650FH         SYMBOL        L?0131
  C:6512H         SYMBOL        L?0132
  C:651BH         SYMBOL        L?0133
  C:651BH         SYMBOL        L?0134
  C:6520H         SYMBOL        L?0135
BL51 BANKED LINKER/LOCATER V6.22                                                      03/28/2018  18:26:36  PAGE 50


  C:6522H         SYMBOL        L?0136
  C:6523H         SYMBOL        L?0137
  C:652AH         SYMBOL        L?0142
  C:6537H         SYMBOL        L?0143
  C:6539H         SYMBOL        L?0144
  C:6540H         SYMBOL        L?0146
  C:6549H         SYMBOL        L?0147
  C:6553H         SYMBOL        L?0149
  C:655AH         SYMBOL        L?0150
  C:6566H         SYMBOL        L?0151
  C:6568H         SYMBOL        L?0152
  C:656AH         SYMBOL        L?0153
  C:6572H         SYMBOL        L?0154
  C:6574H         SYMBOL        L?0155
  C:6576H         SYMBOL        L?0156
  C:657EH         SYMBOL        L?0157
  C:6580H         SYMBOL        L?0158
  C:6582H         SYMBOL        L?0159
  C:658AH         SYMBOL        L?0160
  C:658AH         SYMBOL        L?0161
  C:6596H         SYMBOL        L?0162
  C:659AH         SYMBOL        L?0163
  C:65A2H         SYMBOL        L?0165
  C:65A5H         SYMBOL        L?0166
  C:65B2H         SYMBOL        L?0167
  C:65CAH         SYMBOL        L?0168
  C:65CAH         SYMBOL        L?0169
  C:65CCH         SYMBOL        L?0170
  C:65D3H         SYMBOL        L?0171
  C:65E9H         SYMBOL        L?0172
  C:65ECH         SYMBOL        L?0173
  C:65F3H         SYMBOL        L?0174
  C:65F3H         SYMBOL        L?0175
  C:65F5H         SYMBOL        L?0176
  C:65FDH         SYMBOL        L?0179
  C:65FFH         SYMBOL        L?0180
  C:6607H         SYMBOL        L?0182
  C:6616H         SYMBOL        L?0183
  C:6618H         SYMBOL        L?0184
  C:6620H         SYMBOL        L?0185
  C:6621H         SYMBOL        L?0186
  C:6629H         SYMBOL        L?0187
  C:6635H         SYMBOL        L?0188
  C:6640H         SYMBOL        L?0189
  C:664BH         SYMBOL        L?0190
  C:664BH         SYMBOL        L?0191
  -------         PROC          COM0080
  -------         ENDPROC       COM0080
  -------         PROC          _PCT_PRESETFOREGROUNDCOLOR
  D:0007H         SYMBOL        _color
  C:83D8H         LINE#         81
  C:83D8H         LINE#         82
  C:83D8H         LINE#         83
  C:83DAH         LINE#         85
  -------         ENDPROC       _PCT_PRESETFOREGROUNDCOLOR
  -------         PROC          _PCT_PRESETBACKGROUNDCOLOR
  D:0007H         SYMBOL        _color
BL51 BANKED LINKER/LOCATER V6.22                                                      03/28/2018  18:26:36  PAGE 51


  C:83DBH         LINE#         91
  C:83DBH         LINE#         92
  C:83DBH         LINE#         93
  C:83DDH         LINE#         95
  -------         ENDPROC       _PCT_PRESETBACKGROUNDCOLOR
  C:79BBH         SYMBOL        L?0181
  -------         PROC          _PCT_SETOSDCOLOR
  X:00A5H         SYMBOL        _pth
  X:00A6H         SYMBOL        _col_num
  D:0003H         SYMBOL        _y
  X:00A8H         SYMBOL        _cb
  X:00A9H         SYMBOL        _cr
  C:7973H         LINE#         101
  C:797AH         LINE#         102
  C:797AH         LINE#         103
  C:7983H         LINE#         104
  C:798EH         LINE#         105
  C:799DH         LINE#         107
  C:79A3H         LINE#         111
  C:79A9H         LINE#         113
  C:79BAH         LINE#         114
  -------         ENDPROC       _PCT_SETOSDCOLOR
  C:69BFH         SYMBOL        L?0139
  C:69C9H         SYMBOL        L?0141
  C:69D3H         SYMBOL        L?0145
  C:69DBH         SYMBOL        L?0148
  C:69E3H         SYMBOL        L?0164
  C:69EBH         SYMBOL        L?0177
  -------         PROC          PCT_INITOSDCOLOR
  C:68C4H         LINE#         120
  C:68C4H         LINE#         121
  C:68C4H         LINE#         122
  C:68D2H         LINE#         123
  C:68DCH         LINE#         124
  C:68E1H         LINE#         125
  C:68EFH         LINE#         126
  C:68FBH         LINE#         128
  C:6906H         LINE#         129
  C:690EH         LINE#         130
  C:691CH         LINE#         131
  C:6928H         LINE#         132
  C:6934H         LINE#         133
  C:6940H         LINE#         134
  C:694CH         LINE#         135
  C:6958H         LINE#         136
  C:6966H         LINE#         137
  C:6978H         LINE#         138
  C:698AH         LINE#         139
  C:699CH         LINE#         140
  C:69ADH         LINE#         141
  C:69B9H         LINE#         143
  C:69BCH         LINE#         144
  C:69BEH         LINE#         145
  -------         ENDPROC       PCT_INITOSDCOLOR
  -------         PROC          _PCT_SETOSDDRAWPAGE
  X:00ABH         SYMBOL        _page
  C:81F1H         LINE#         151
BL51 BANKED LINKER/LOCATER V6.22                                                      03/28/2018  18:26:36  PAGE 52


  C:81F4H         LINE#         152
  C:81F4H         LINE#         153
  C:8208H         LINE#         154
  -------         ENDPROC       _PCT_SETOSDDRAWPAGE
  C:7ECBH         SYMBOL        L?0178
  -------         PROC          _PCT_ENSHOWOSDPAGE
  X:00ABH         SYMBOL        _page
  C:7EAAH         LINE#         161
  C:7EAEH         LINE#         162
  C:7EAEH         LINE#         163
  C:7EB6H         LINE#         164
  C:7EB9H         LINE#         165
  C:7EBBH         LINE#         166
  C:7EBDH         LINE#         167
  C:7EC1H         LINE#         168
  C:7ECAH         LINE#         169
  C:7ECAH         LINE#         170
  -------         ENDPROC       _PCT_ENSHOWOSDPAGE
  -------         PROC          _PCT_DISSHOWOSDPAGE
  X:00A5H         SYMBOL        _bit
  -------         DO            
  D:0006H         SYMBOL        dat
  -------         ENDDO         
  C:820EH         LINE#         176
  C:8211H         LINE#         177
  C:8211H         LINE#         179
  C:821DH         LINE#         180
  -------         ENDPROC       _PCT_DISSHOWOSDPAGE
  -------         PROC          _PCT_FULLCOLORONOSD
  X:00A5H         SYMBOL        _posx
  X:00A6H         SYMBOL        _posy
  X:00A8H         SYMBOL        _wide
  X:00A9H         SYMBOL        _high
  C:7195H         LINE#         189
  C:7197H         LINE#         190
  C:7197H         LINE#         191
  C:719DH         LINE#         192
  C:71A3H         LINE#         193
  C:71A9H         LINE#         194
  C:71AFH         LINE#         196
  C:71B5H         LINE#         197
  C:71C9H         LINE#         198
  C:71D6H         LINE#         199
  C:71EFH         LINE#         201
  C:71F6H         LINE#         202
  C:71FEH         LINE#         203
  C:7206H         LINE#         204
  C:720EH         LINE#         205
  C:7219H         LINE#         207
  C:7228H         LINE#         208
  C:7232H         LINE#         209
  -------         ENDPROC       _PCT_FULLCOLORONOSD
  -------         PROC          _PCT_CLEAROSDPAGEX
  D:0007H         SYMBOL        _page
  C:8244H         LINE#         211
  C:8244H         LINE#         212
  C:8244H         LINE#         213
BL51 BANKED LINKER/LOCATER V6.22                                                      03/28/2018  18:26:36  PAGE 53


  C:8247H         LINE#         215
  C:824CH         LINE#         216
  -------         ENDPROC       _PCT_CLEAROSDPAGEX
  C:64B9H         SYMBOL        L?0127
  C:64D8H         SYMBOL        L?0138
  C:64E6H         SYMBOL        L?0140
  C:64F4H         SYMBOL        L?0192
  -------         PROC          _PCT_WRITEOSDDATABUFFERX
  X:00C5H         SYMBOL        _index
  X:00C6H         SYMBOL        _dat
  C:6392H         LINE#         223
  C:6397H         LINE#         224
  C:6397H         LINE#         225
  C:63A1H         LINE#         226
  C:63B1H         LINE#         227
  C:63BDH         LINE#         228
  C:63C9H         LINE#         229
  C:63D2H         LINE#         230
  C:63D5H         LINE#         231
  C:63DAH         LINE#         233
  C:63ECH         LINE#         234
  C:63F8H         LINE#         235
  C:6404H         LINE#         236
  C:640DH         LINE#         237
  C:6410H         LINE#         238
  C:6415H         LINE#         240
  C:641EH         LINE#         241
  C:6430H         LINE#         242
  C:6440H         LINE#         243
  C:6450H         LINE#         244
  C:645DH         LINE#         245
  C:6463H         LINE#         246
  C:6468H         LINE#         248
  C:647AH         LINE#         249
  C:648CH         LINE#         250
  C:649EH         LINE#         251
  C:64B0H         LINE#         252
  C:64B9H         LINE#         253
  -------         ENDPROC       _PCT_WRITEOSDDATABUFFERX
  -------         PROC          _PCT_WRITEOSDFNTX
  D:0007H         SYMBOL        _posx
  X:00B3H         SYMBOL        _posy
  X:00B5H         SYMBOL        _len
  X:00B6H         SYMBOL        _indx
  -------         DO            
  D:0029H         SYMBOL        i
  D:002AH         SYMBOL        j
  D:002BH         SYMBOL        posx
  X:00B9H         SYMBOL        charPtr
  -------         ENDDO         
  C:6E4BH         LINE#         263
  C:6E50H         LINE#         264
  C:6E50H         LINE#         268
  C:6E53H         LINE#         269
  C:6E58H         LINE#         270
  C:6E6AH         LINE#         271
  C:6E74H         LINE#         272
BL51 BANKED LINKER/LOCATER V6.22                                                      03/28/2018  18:26:36  PAGE 54


  C:6E7EH         LINE#         273
  C:6E86H         LINE#         274
  C:6E91H         LINE#         275
  C:6EA1H         LINE#         277
  C:6EACH         LINE#         278
  C:6EB9H         LINE#         279
  C:6EE5H         LINE#         280
  C:6EEDH         LINE#         281
  C:6EF5H         LINE#         283
  C:6EFEH         LINE#         284
  C:6F0AH         LINE#         285
  C:6F14H         LINE#         287
  C:6F1FH         LINE#         288
  C:6F2BH         LINE#         289
  C:6F35H         LINE#         291
  C:6F3AH         LINE#         292
  C:6F41H         LINE#         293
  -------         ENDPROC       _PCT_WRITEOSDFNTX
  -------         PROC          _PCT_CLEARWORDSPATHX
  X:00A8H         SYMBOL        _posx
  X:00A9H         SYMBOL        _posy
  X:00ABH         SYMBOL        _len
  -------         DO            
  X:00ACH         SYMBOL        wide
  X:00ADH         SYMBOL        high
  -------         ENDDO         
  C:70F4H         LINE#         302
  C:70F6H         LINE#         303
  C:70F6H         LINE#         307
  C:70FCH         LINE#         308
  C:7102H         LINE#         309
  C:7108H         LINE#         310
  C:710EH         LINE#         312
  C:7115H         LINE#         313
  C:7118H         LINE#         314
  C:7128H         LINE#         315
  C:7130H         LINE#         317
  C:7141H         LINE#         318
  C:714FH         LINE#         320
  C:7158H         LINE#         321
  C:7160H         LINE#         322
  C:7168H         LINE#         323
  C:7170H         LINE#         324
  C:717BH         LINE#         326
  C:718AH         LINE#         327
  C:7194H         LINE#         328
  -------         ENDPROC       _PCT_CLEARWORDSPATHX
  -------         PROC          _PCT_WRITEOSDDATABUFFERY
  X:00D1H         SYMBOL        _index
  X:00D2H         SYMBOL        _dat
  C:6B13H         LINE#         334
  C:6B18H         LINE#         335
  C:6B18H         LINE#         336
  C:6B22H         LINE#         337
  C:6B41H         LINE#         338
  C:6B60H         LINE#         339
  C:6B7FH         LINE#         340
BL51 BANKED LINKER/LOCATER V6.22                                                      03/28/2018  18:26:36  PAGE 55


  C:6B9EH         LINE#         341
  C:6BA4H         LINE#         343
  C:6BAEH         LINE#         344
  C:6BCDH         LINE#         345
  C:6BECH         LINE#         346
  C:6C0BH         LINE#         347
  C:6C2AH         LINE#         348
  -------         ENDPROC       _PCT_WRITEOSDDATABUFFERY
  -------         PROC          _PCT_WRITEOSDFNTY
  X:00B2H         SYMBOL        _posx
  X:00B3H         SYMBOL        _posy
  X:00B5H         SYMBOL        _len
  X:00B6H         SYMBOL        _indx
  -------         DO            
  D:0029H         SYMBOL        i
  D:002AH         SYMBOL        j
  X:00B9H         SYMBOL        charPtr
  -------         ENDDO         
  C:6F42H         LINE#         359
  C:6F4AH         LINE#         360
  C:6F4AH         LINE#         364
  C:6F51H         LINE#         365
  C:6F54H         LINE#         366
  C:6F64H         LINE#         367
  C:6F6CH         LINE#         369
  C:6F77H         LINE#         370
  C:6F84H         LINE#         371
  C:6FA3H         LINE#         373
  C:6FADH         LINE#         374
  C:6FD7H         LINE#         375
  C:6FE0H         LINE#         376
  C:6FE8H         LINE#         377
  C:7001H         LINE#         378
  C:700DH         LINE#         379
  C:7017H         LINE#         380
  C:701CH         LINE#         381
  C:7023H         LINE#         382
  -------         ENDPROC       _PCT_WRITEOSDFNTY
  -------         PROC          _PCT_SHOWOSDSTRING
  X:00ABH         SYMBOL        _path
  X:00ACH         SYMBOL        _addrx
  X:00ADH         SYMBOL        _addry
  X:00AEH         SYMBOL        _strptr
  -------         DO            
  X:00B1H         SYMBOL        slen
  -------         ENDDO         
  C:76A9H         LINE#         388
  C:76AFH         LINE#         389
  C:76AFH         LINE#         392
  C:76BAH         LINE#         393
  C:76C1H         LINE#         395
  C:76C7H         LINE#         399
  C:76C7H         LINE#         400
  C:76C7H         LINE#         401
  C:76D3H         LINE#         402
  C:76D9H         LINE#         403
  C:76E0H         LINE#         404
BL51 BANKED LINKER/LOCATER V6.22                                                      03/28/2018  18:26:36  PAGE 56


  C:76E0H         LINE#         405
  C:76E5H         LINE#         406
  C:76E7H         LINE#         407
  C:76E7H         LINE#         408
  C:76F3H         LINE#         409
  C:76F9H         LINE#         410
  C:7700H         LINE#         411
  C:7700H         LINE#         412
  C:7705H         LINE#         413
  C:7705H         LINE#         414
  C:7708H         LINE#         415
  -------         ENDPROC       _PCT_SHOWOSDSTRING
  -------         ENDMOD        OSDCTRL

  -------         MODULE        TIMER
  C:0000H         SYMBOL        _ICE_DUMMY_
  D:0090H         PUBLIC        P1
  D:00B0H         PUBLIC        P3
  C:82B8H         PUBLIC        InitialTimer0
  B:00A8H.7       PUBLIC        EA
  C:78CDH         PUBLIC        Timer0_interrupt
  D:00A8H         PUBLIC        IE
  D:00B8H         PUBLIC        IP
  D:00D8H         PUBLIC        CCON
  D:00C0H         PUBLIC        WDTC
  D:0098H         PUBLIC        SCON
  D:0088H         PUBLIC        TCON
  D:0010H         PUBLIC        user_timer
  B:00A8H.1       PUBLIC        ET0
  B:0088H.5       PUBLIC        TF0
  D:008CH         PUBLIC        TH0
  D:00E8H         PUBLIC        IEA
  D:008AH         PUBLIC        TL0
  B:00B8H.1       PUBLIC        PT0
  B:0088H.4       PUBLIC        TR0
  D:00F8H         PUBLIC        IPA
  D:00C8H         PUBLIC        T2CON
  D:00D0H         PUBLIC        PSW
  -------         PROC          INITIALTIMER0
  -------         DO            
  D:0007H         SYMBOL        i
  -------         ENDDO         
  C:82B8H         LINE#         63
  C:82B8H         LINE#         66
  C:82BAH         LINE#         67
  C:82BCH         LINE#         68
  C:82BFH         LINE#         69
  C:82C2H         LINE#         70
  C:82C4H         LINE#         72
  C:82C4H         LINE#         73
  C:82CDH         LINE#         74
  -------         ENDPROC       INITIALTIMER0
  -------         PROC          TIMER0_INTERRUPT
  C:78CDH         LINE#         80
  C:78D1H         LINE#         82
  C:78D3H         LINE#         83
  C:78D6H         LINE#         84
BL51 BANKED LINKER/LOCATER V6.22                                                      03/28/2018  18:26:36  PAGE 57


  C:78D9H         LINE#         85
  C:78DBH         LINE#         87
  C:78F0H         LINE#         88
  C:7905H         LINE#         89
  C:791AH         LINE#         91
  C:791CH         LINE#         92
  -------         ENDPROC       TIMER0_INTERRUPT
  -------         ENDMOD        TIMER

  -------         MODULE        TW28XX_AUDIO
  C:0000H         SYMBOL        _ICE_DUMMY_
  D:0090H         PUBLIC        P1
  D:00B0H         PUBLIC        P3
  C:7648H         PUBLIC        _PCT_AudioMixCtrl
  C:7FABH         PUBLIC        _PCT_AudioMixMute
  D:00A8H         PUBLIC        IE
  D:00B8H         PUBLIC        IP
  D:00D8H         PUBLIC        CCON
  D:00C0H         PUBLIC        WDTC
  D:0098H         PUBLIC        SCON
  D:0088H         PUBLIC        TCON
  D:00E8H         PUBLIC        IEA
  C:77C5H         PUBLIC        _PCT_AudioGainCtrl
  D:00F8H         PUBLIC        IPA
  D:00C8H         PUBLIC        T2CON
  C:80E6H         PUBLIC        _PCT_AudioSelLive
  D:00D0H         PUBLIC        PSW
  C:5D4CH         PUBLIC        PCT_AudioRegList
  C:7CCAH         SYMBOL        Com0017
  C:7CCAH         SYMBOL        L?0024
  C:7CCCH         SYMBOL        L?0025
  C:7CD8H         SYMBOL        L?0026
  C:7CE4H         SYMBOL        L?0028
  C:7CE7H         SYMBOL        L?0029
  C:7CF3H         SYMBOL        L?0031
  C:7CFFH         SYMBOL        L?0032
  -------         PROC          COM0017
  -------         ENDPROC       COM0017
  C:5E3EH         SYMBOL        L?0014
  C:5E50H         SYMBOL        L?0015
  C:5E62H         SYMBOL        L?0016
  C:5E74H         SYMBOL        L?0017
  C:5E86H         SYMBOL        L?0018
  C:5E98H         SYMBOL        L?0019
  C:5EAAH         SYMBOL        L?0020
  C:5EBCH         SYMBOL        L?0021
  C:5ECEH         SYMBOL        L?0022
  C:5EE0H         SYMBOL        L?0027
  C:5EF2H         SYMBOL        L?0030
  -------         PROC          PCT_AUDIOREGLIST
  C:5D4CH         LINE#         60
  C:5D4CH         LINE#         61
  C:5D4CH         LINE#         62
  C:5D57H         LINE#         63
  C:5D62H         LINE#         64
  C:5D6DH         LINE#         65
  C:5D78H         LINE#         66
BL51 BANKED LINKER/LOCATER V6.22                                                      03/28/2018  18:26:36  PAGE 58


  C:5D83H         LINE#         68
  C:5D8EH         LINE#         69
  C:5D99H         LINE#         70
  C:5DA4H         LINE#         71
  C:5DAFH         LINE#         72
  C:5DBAH         LINE#         73
  C:5DC5H         LINE#         74
  C:5DD0H         LINE#         75
  C:5DDBH         LINE#         77
  C:5DE6H         LINE#         78
  C:5DF1H         LINE#         79
  C:5DFCH         LINE#         80
  C:5E07H         LINE#         81
  C:5E12H         LINE#         83
  C:5E1DH         LINE#         84
  C:5E28H         LINE#         85
  C:5E33H         LINE#         86
  C:5E3EH         LINE#         87
  -------         ENDPROC       PCT_AUDIOREGLIST
  -------         PROC          _PCT_AUDIOGAINCTRL
  D:0007H         SYMBOL        _dvc
  X:00ABH         SYMBOL        _channel
  X:00ACH         SYMBOL        _gain
  -------         DO            
  D:0004H         SYMBOL        dat
  X:00ADH         SYMBOL        result
  C:7D63H         SYMBOL        chanData
  -------         ENDDO         
  C:77C5H         LINE#         93
  C:77CCH         LINE#         94
  C:77CCH         LINE#         110
  C:77CEH         LINE#         111
  C:77DBH         LINE#         113
  C:77EAH         LINE#         114
  C:77FFH         LINE#         116
  C:780EH         LINE#         117
  C:781DH         LINE#         118
  C:781FH         LINE#         119
  -------         ENDPROC       _PCT_AUDIOGAINCTRL
  -------         PROC          _PCT_AUDIOMIXCTRL
  X:00ABH         SYMBOL        _dvc
  X:00ACH         SYMBOL        _channel
  X:00ADH         SYMBOL        _gain
  -------         DO            
  D:0004H         SYMBOL        dat
  X:00AEH         SYMBOL        result
  C:7D77H         SYMBOL        chanData
  -------         ENDDO         
  C:7648H         LINE#         126
  C:7652H         LINE#         127
  C:7652H         LINE#         143
  C:7656H         LINE#         144
  C:7661H         LINE#         146
  C:7670H         LINE#         147
  C:7685H         LINE#         149
  C:7691H         LINE#         150
  C:769DH         LINE#         152
BL51 BANKED LINKER/LOCATER V6.22                                                      03/28/2018  18:26:36  PAGE 59


  C:76A6H         LINE#         153
  C:76A8H         LINE#         154
  -------         ENDPROC       _PCT_AUDIOMIXCTRL
  -------         PROC          _PCT_AUDIOMIXMUTE
  D:0007H         SYMBOL        _dvc
  X:00ABH         SYMBOL        _ch
  X:00ACH         SYMBOL        _ctrl
  -------         DO            
  D:0031H         SYMBOL        dat
  -------         ENDDO         
  C:7FABH         LINE#         160
  C:7FB2H         LINE#         161
  C:7FB2H         LINE#         167
  C:7FB4H         LINE#         168
  C:7FBCH         LINE#         169
  C:7FC2H         LINE#         170
  C:7FC7H         LINE#         171
  C:7FC9H         LINE#         172
  C:7FCEH         LINE#         173
  C:7FCEH         LINE#         174
  C:7FDBH         LINE#         176
  C:7FDDH         LINE#         177
  -------         ENDPROC       _PCT_AUDIOMIXMUTE
  -------         PROC          _PCT_AUDIOSELLIVE
  D:0007H         SYMBOL        _dvc
  X:00AFH         SYMBOL        _chan
  C:80E6H         LINE#         183
  C:80EAH         LINE#         184
  C:80EAH         LINE#         188
  C:80ECH         LINE#         189
  C:80EFH         LINE#         190
  C:80F8H         LINE#         191
  C:80FAH         LINE#         192
  C:80FAH         LINE#         194
  C:8100H         LINE#         195
  C:810BH         LINE#         196
  C:810DH         LINE#         197
  -------         ENDPROC       _PCT_AUDIOSELLIVE
  -------         ENDMOD        TW28XX_AUDIO

  -------         MODULE        TW28XX_VIDEO
  C:0000H         SYMBOL        _ICE_DUMMY_
  C:7E3CH         PUBLIC        _PCT_WinAttrClear
  D:0090H         PUBLIC        P1
  D:00B0H         PUBLIC        P3
  C:3B75H         PUBLIC        VidoW2_ModifyACHM
  C:7E04H         PUBLIC        _PCT_WinAttrCtrlY
  C:3B69H         PUBLIC        VidoW2_ModifyACNM
  C:7B33H         PUBLIC        _PCT_DetectVideoFormat
  D:00A8H         PUBLIC        IE
  C:3B59H         PUBLIC        Video_HDelay
  C:3B8DH         PUBLIC        VidoW2_ModifyRBHM
  C:69F3H         PUBLIC        _PCT_RecompenseYHdelay
  D:00B8H         PUBLIC        IP
  C:3B81H         PUBLIC        VidoW2_ModifyRBNM
  C:3C26H         PUBLIC        XWinAttr_RegAddr
  D:00D8H         PUBLIC        CCON
BL51 BANKED LINKER/LOCATER V6.22                                                      03/28/2018  18:26:36  PAGE 60


  C:3C46H         PUBLIC        YWinAttr_RegAddr
  C:3B3BH         PUBLIC        Video_HDelayInit
  C:4464H         PUBLIC        _PCT_SetVideoHDelay
  C:7FDEH         PUBLIC        _PCT_WinAttrCtrl
  C:7233H         PUBLIC        _PCT_SetChanelScale
  D:00C0H         PUBLIC        WDTC
  D:0098H         PUBLIC        SCON
  D:0088H         PUBLIC        TCON
  C:5F04H         PUBLIC        _PCT_SetXVideoMixing
  C:82E2H         PUBLIC        _PCT_SetYVideoMixing
  C:3BA5H         PUBLIC        Init_Vido_Y
  C:3B99H         PUBLIC        VidoW2_ModifyACHM_PAL
  D:00E8H         PUBLIC        IEA
  D:00F8H         PUBLIC        IPA
  C:810EH         PUBLIC        _PCT_SetVideoFormat
  D:00C8H         PUBLIC        T2CON
  C:380BH         PUBLIC        Init_Vido_W1
  C:387DH         PUBLIC        Init_Vido_W2
  C:3901H         PUBLIC        Init_Vido_W3
  C:3C36H         PUBLIC        XWinPOP_RegAddr
  C:3AC9H         PUBLIC        Init_Vido_W4
  D:00D0H         PUBLIC        PSW
  C:6D47H         SYMBOL        Com006B
  C:6D47H         SYMBOL        L?0108
  C:6D47H         SYMBOL        L?0109
  C:6D4CH         SYMBOL        L?0110
  C:6D53H         SYMBOL        L?0111
  C:6D5DH         SYMBOL        L?0112
  C:6D66H         SYMBOL        L?0113
  C:6D68H         SYMBOL        L?0114
  C:6D69H         SYMBOL        L?0115
  C:6D6BH         SYMBOL        L?0116
  C:6D74H         SYMBOL        L?0128
  C:6D77H         SYMBOL        L?0129
  C:6D85H         SYMBOL        L?0131
  C:6D86H         SYMBOL        L?0132
  C:6D8FH         SYMBOL        L?0133
  C:6D9BH         SYMBOL        L?0135
  C:6D9BH         SYMBOL        L?0136
  C:6D9FH         SYMBOL        L?0137
  C:6DA2H         SYMBOL        L?0138
  C:6DAAH         SYMBOL        L?0139
  C:6DAAH         SYMBOL        L?0140
  C:6DADH         SYMBOL        L?0141
  C:6DB0H         SYMBOL        L?0142
  C:6DBEH         SYMBOL        L?0145
  C:6DBEH         SYMBOL        L?0146
  C:6DC8H         SYMBOL        L?0147
  C:6DC8H         SYMBOL        L?0148
  C:6DCBH         SYMBOL        L?0149
  C:6DD3H         SYMBOL        L?0150
  C:6DD3H         SYMBOL        L?0151
  C:6DD9H         SYMBOL        L?0153
  C:6DF6H         SYMBOL        L?0154
  C:6DF6H         SYMBOL        L?0155
  C:6DFCH         SYMBOL        L?0158
  C:6E01H         SYMBOL        L?0159
BL51 BANKED LINKER/LOCATER V6.22                                                      03/28/2018  18:26:36  PAGE 61


  C:6E08H         SYMBOL        L?0161
  C:6E08H         SYMBOL        L?0162
  C:6E13H         SYMBOL        L?0163
  C:6E1AH         SYMBOL        L?0164
  C:6E21H         SYMBOL        L?0165
  C:6E21H         SYMBOL        L?0166
  C:6E27H         SYMBOL        L?0167
  C:6E27H         SYMBOL        L?0168
  C:6E2FH         SYMBOL        L?0171
  C:6E3AH         SYMBOL        L?0173
  C:6E3AH         SYMBOL        L?0174
  C:6E41H         SYMBOL        L?0175
  -------         PROC          COM006B
  -------         ENDPROC       COM006B
  -------         PROC          _PCT_DETECTVIDEOFORMAT
  X:00A5H         SYMBOL        _ch
  -------         DO            
  X:00A6H         SYMBOL        tmpSta
  -------         ENDDO         
  C:7B33H         LINE#         75
  C:7B37H         LINE#         76
  C:7B37H         LINE#         82
  C:7B3AH         LINE#         84
  C:7B48H         LINE#         85
  C:7B59H         LINE#         87
  C:7B5FH         LINE#         88
  C:7B62H         LINE#         90
  C:7B68H         LINE#         91
  C:7B6EH         LINE#         92
  C:7B79H         LINE#         103
  -------         ENDPROC       _PCT_DETECTVIDEOFORMAT
  -------         PROC          _PCT_SETVIDEOFORMAT
  D:0007H         SYMBOL        _dvc
  D:0005H         SYMBOL        _ch
  X:00ABH         SYMBOL        _fmat
  -------         DO            
  D:0007H         SYMBOL        tmpSta
  X:00ACH         SYMBOL        addr
  -------         ENDDO         
  C:810EH         LINE#         109
  C:8112H         LINE#         110
  C:8112H         LINE#         113
  C:8112H         LINE#         114
  C:811DH         LINE#         115
  C:8123H         LINE#         118
  C:8127H         LINE#         120
  C:812CH         LINE#         121
  -------         ENDPROC       _PCT_SETVIDEOFORMAT
  C:7291H         SYMBOL        L?0127
  -------         PROC          _PCT_SETCHANELSCALE
  D:0007H         SYMBOL        _ch
  X:00ACH         SYMBOL        datptr
  -------         DO            
  C:3C4EH         SYMBOL        ScaleRgeAddr
  X:00AFH         SYMBOL        addrptr
  X:00B2H         SYMBOL        value
  -------         ENDDO         
BL51 BANKED LINKER/LOCATER V6.22                                                      03/28/2018  18:26:36  PAGE 62


  C:7233H         LINE#         130
  C:7239H         LINE#         131
  C:7239H         LINE#         143
  C:7249H         LINE#         144
  C:725BH         LINE#         145
  C:7260H         LINE#         146
  C:7260H         LINE#         147
  C:726BH         LINE#         148
  C:7276H         LINE#         149
  C:7286H         LINE#         150
  C:7286H         LINE#         151
  C:7291H         LINE#         152
  -------         ENDPROC       _PCT_SETCHANELSCALE
  C:4674H         SYMBOL        L?0117
  C:4690H         SYMBOL        L?0118
  C:46ACH         SYMBOL        L?0119
  C:46C8H         SYMBOL        L?0120
  C:46E1H         SYMBOL        L?0121
  C:46FDH         SYMBOL        L?0122
  C:4714H         SYMBOL        L?0123
  C:472DH         SYMBOL        L?0124
  C:4741H         SYMBOL        L?0125
  C:4755H         SYMBOL        L?0126
  C:4771H         SYMBOL        L?0130
  C:4788H         SYMBOL        L?0134
  C:47A1H         SYMBOL        L?0143
  C:47B5H         SYMBOL        L?0157
  -------         PROC          _PCT_SETVIDEOHDELAY
  D:0007H         SYMBOL        _typ
  X:00A6H         SYMBOL        _winch
  X:00A9H         SYMBOL        _cattr
  -------         DO            
  X:00ACH         SYMBOL        hdelay
  -------         ENDDO         
  C:4464H         LINE#         155
  C:446AH         LINE#         156
  C:446AH         LINE#         164
  C:449CH         LINE#         165
  C:449CH         LINE#         166
  C:449CH         LINE#         171
  C:44A1H         LINE#         172
  C:44AAH         LINE#         173
  C:44B6H         LINE#         174
  C:44BCH         LINE#         176
  C:44BEH         LINE#         177
  C:44C7H         LINE#         178
  C:44CDH         LINE#         179
  C:44D0H         LINE#         181
  C:44D0H         LINE#         182
  C:44D0H         LINE#         184
  C:44D0H         LINE#         185
  C:44D9H         LINE#         186
  C:44E1H         LINE#         187
  C:44E7H         LINE#         189
  C:44ECH         LINE#         190
  C:44ECH         LINE#         191
  C:44F7H         LINE#         192
BL51 BANKED LINKER/LOCATER V6.22                                                      03/28/2018  18:26:36  PAGE 63


  C:44FDH         LINE#         194
  C:4500H         LINE#         196
  C:4500H         LINE#         197
  C:4500H         LINE#         199
  C:4500H         LINE#         200
  C:450AH         LINE#         201
  C:4512H         LINE#         202
  C:4518H         LINE#         204
  C:4518H         LINE#         205
  C:4518H         LINE#         206
  C:4523H         LINE#         207
  C:4529H         LINE#         208
  C:452CH         LINE#         210
  C:452CH         LINE#         211
  C:452CH         LINE#         213
  C:452CH         LINE#         214
  C:4535H         LINE#         215
  C:453DH         LINE#         216
  C:4543H         LINE#         218
  C:4543H         LINE#         219
  C:454FH         LINE#         220
  C:4557H         LINE#         221
  C:455DH         LINE#         223
  C:4566H         LINE#         224
  C:4569H         LINE#         225
  C:4574H         LINE#         226
  C:457AH         LINE#         227
  C:457DH         LINE#         229
  C:457DH         LINE#         230
  C:457DH         LINE#         231
  C:457DH         LINE#         233
  C:457DH         LINE#         234
  C:457DH         LINE#         237
  C:457DH         LINE#         238
  C:4587H         LINE#         239
  C:458FH         LINE#         240
  C:4595H         LINE#         242
  C:4595H         LINE#         243
  C:4595H         LINE#         244
  C:459DH         LINE#         245
  C:45A3H         LINE#         247
  C:45A8H         LINE#         248
  C:45B1H         LINE#         249
  C:45BCH         LINE#         250
  C:45C2H         LINE#         251
  C:45C5H         LINE#         253
  C:45C5H         LINE#         254
  C:45C5H         LINE#         257
  C:45C5H         LINE#         258
  C:45CFH         LINE#         259
  C:45D7H         LINE#         260
  C:45DDH         LINE#         262
  C:45DDH         LINE#         263
  C:45DDH         LINE#         264
  C:45E5H         LINE#         265
  C:45EBH         LINE#         267
  C:45EBH         LINE#         268
BL51 BANKED LINKER/LOCATER V6.22                                                      03/28/2018  18:26:36  PAGE 64


  C:45F7H         LINE#         269
  C:45FFH         LINE#         270
  C:4605H         LINE#         271
  C:4608H         LINE#         273
  C:4608H         LINE#         274
  C:4608H         LINE#         277
  C:4608H         LINE#         278
  C:4612H         LINE#         279
  C:461AH         LINE#         280
  C:4620H         LINE#         282
  C:4620H         LINE#         283
  C:4620H         LINE#         284
  C:4628H         LINE#         285
  C:462EH         LINE#         287
  C:462EH         LINE#         288
  C:463AH         LINE#         289
  C:4642H         LINE#         290
  C:464EH         LINE#         292
  C:4653H         LINE#         293
  C:465CH         LINE#         294
  C:4667H         LINE#         295
  C:4673H         LINE#         296
  C:4673H         LINE#         298
  C:4673H         LINE#         299
  C:4673H         LINE#         300
  C:4673H         LINE#         301
  -------         ENDPROC       _PCT_SETVIDEOHDELAY
  C:6084H         SYMBOL        L?0156
  C:6091H         SYMBOL        L?0169
  -------         PROC          _PCT_SETXVIDEOMIXING
  X:00A5H         SYMBOL        _typ
  X:00A6H         SYMBOL        _winch
  -------         DO            
  X:00A9H         SYMBOL        wregptr
  -------         ENDDO         
  C:5F04H         LINE#         304
  C:5F0DH         LINE#         305
  C:5F0DH         LINE#         308
  C:5F1DH         LINE#         309
  C:5F2DH         LINE#         310
  C:5F41H         LINE#         311
  C:5F55H         LINE#         313
  C:5F8BH         LINE#         314
  C:5F8BH         LINE#         315
  C:5F8BH         LINE#         319
  C:5F9AH         LINE#         320
  C:5FA4H         LINE#         321
  C:5FA4H         LINE#         322
  C:5FA7H         LINE#         324
  C:5FA7H         LINE#         325
  C:5FA7H         LINE#         326
  C:5FA7H         LINE#         327
  C:5FA7H         LINE#         328
  C:5FB6H         LINE#         329
  C:5FB8H         LINE#         331
  C:5FC9H         LINE#         332
  C:5FD4H         LINE#         333
BL51 BANKED LINKER/LOCATER V6.22                                                      03/28/2018  18:26:36  PAGE 65


  C:5FD4H         LINE#         334
  C:5FD7H         LINE#         336
  C:5FD7H         LINE#         337
  C:5FD7H         LINE#         338
  C:5FD7H         LINE#         339
  C:5FD7H         LINE#         340
  C:5FD7H         LINE#         341
  C:5FD7H         LINE#         342
  C:5FD7H         LINE#         343
  C:5FD7H         LINE#         344
  C:5FE6H         LINE#         345
  C:5FE8H         LINE#         347
  C:5FF9H         LINE#         348
  C:600DH         LINE#         349
  C:601EH         LINE#         350
  C:6023H         LINE#         351
  C:6026H         LINE#         353
  C:6026H         LINE#         354
  C:6026H         LINE#         355
  C:6035H         LINE#         356
  C:6045H         LINE#         357
  C:6056H         LINE#         358
  C:6067H         LINE#         359
  C:6075H         LINE#         360
  C:6083H         LINE#         361
  C:6083H         LINE#         363
  C:6083H         LINE#         364
  C:6083H         LINE#         365
  C:6083H         LINE#         366
  -------         ENDPROC       _PCT_SETXVIDEOMIXING
  -------         PROC          _PCT_SETYVIDEOMIXING
  D:0007H         SYMBOL        _typ
  C:82E2H         LINE#         372
  C:82E2H         LINE#         373
  C:82E2H         LINE#         374
  -------         ENDPROC       _PCT_SETYVIDEOMIXING
  C:6AE0H         SYMBOL        L?0144
  C:6AEBH         SYMBOL        L?0152
  C:6AF6H         SYMBOL        L?0160
  C:6B01H         SYMBOL        L?0170
  C:6B08H         SYMBOL        L?0172
  -------         PROC          _PCT_RECOMPENSEYHDELAY
  X:00A5H         SYMBOL        _chmiro
  C:69F3H         LINE#         378
  C:69F9H         LINE#         379
  C:69F9H         LINE#         380
  C:6A23H         LINE#         381
  C:6A23H         LINE#         383
  C:6A31H         LINE#         384
  C:6A3AH         LINE#         385
  C:6A4BH         LINE#         386
  C:6A54H         LINE#         387
  C:6A62H         LINE#         388
  C:6A6EH         LINE#         389
  C:6A7FH         LINE#         390
  C:6A7FH         LINE#         391
  C:6A82H         LINE#         393
BL51 BANKED LINKER/LOCATER V6.22                                                      03/28/2018  18:26:36  PAGE 66


  C:6A82H         LINE#         394
  C:6A90H         LINE#         395
  C:6A96H         LINE#         396
  C:6A99H         LINE#         398
  C:6A99H         LINE#         399
  C:6AA7H         LINE#         400
  C:6AADH         LINE#         401
  C:6AAFH         LINE#         403
  C:6AAFH         LINE#         404
  C:6ABDH         LINE#         405
  C:6AC3H         LINE#         406
  C:6AC5H         LINE#         408
  C:6AC5H         LINE#         409
  C:6AD3H         LINE#         410
  C:6ADFH         LINE#         411
  C:6ADFH         LINE#         412
  C:6ADFH         LINE#         413
  -------         ENDPROC       _PCT_RECOMPENSEYHDELAY
  -------         PROC          _PCT_WINATTRCTRL
  X:00ABH         SYMBOL        _wid
  X:00ACH         SYMBOL        _attrsel
  X:00ADH         SYMBOL        _setval
  -------         DO            
  D:0004H         SYMBOL        dat
  -------         ENDDO         
  C:7FDEH         LINE#         464
  C:7FE9H         LINE#         465
  C:7FE9H         LINE#         471
  C:7FF3H         LINE#         472
  C:8004H         LINE#         473
  -------         ENDPROC       _PCT_WINATTRCTRL
  -------         PROC          _PCT_WINATTRCTRLY
  X:00A5H         SYMBOL        _wid
  X:00A6H         SYMBOL        _attrsel
  X:00A7H         SYMBOL        _setval
  -------         DO            
  D:0004H         SYMBOL        dat
  -------         ENDDO         
  C:7E04H         LINE#         482
  C:7E0FH         LINE#         483
  C:7E0FH         LINE#         488
  C:7E1CH         LINE#         489
  C:7E2DH         LINE#         490
  -------         ENDPROC       _PCT_WINATTRCTRLY
  -------         PROC          _PCT_WINATTRCLEAR
  X:00A5H         SYMBOL        _attrsel
  -------         DO            
  X:00A6H         SYMBOL        _wid
  X:00A7H         SYMBOL        dat
  -------         ENDDO         
  C:7E3CH         LINE#         499
  C:7E40H         LINE#         500
  C:7E40H         LINE#         507
  C:7E4CH         LINE#         508
  C:7E59H         LINE#         509
  C:7E62H         LINE#         510
  C:7E6CH         LINE#         511
BL51 BANKED LINKER/LOCATER V6.22                                                      03/28/2018  18:26:36  PAGE 67


  C:7E73H         LINE#         512
  -------         ENDPROC       _PCT_WINATTRCLEAR
  -------         ENDMOD        TW28XX_VIDEO

  -------         MODULE        TW2835_INIT
  C:0000H         SYMBOL        _ICE_DUMMY_
  D:0090H         PUBLIC        P1
  D:00B0H         PUBLIC        P3
  D:00A8H         PUBLIC        IE
  C:4064H         PUBLIC        TW2835_Page0
  C:4264H         PUBLIC        TW2835_Page1
  C:7C47H         PUBLIC        PCT_InitialTW2835
  D:00B8H         PUBLIC        IP
  C:830AH         PUBLIC        PCT_TW2835ResetN
  D:00D8H         PUBLIC        CCON
  D:00C0H         PUBLIC        WDTC
  D:0098H         PUBLIC        SCON
  D:0088H         PUBLIC        TCON
  C:75E6H         PUBLIC        _PCT_ChangeSystemType
  D:00E8H         PUBLIC        IEA
  D:00F8H         PUBLIC        IPA
  D:00C8H         PUBLIC        T2CON
  B:00B0H.4       PUBLIC        RSTn
  C:751FH         PUBLIC        PCT_TW2835_Initial
  D:00D0H         PUBLIC        PSW
  C:825DH         SYMBOL        Com000C
  C:825DH         SYMBOL        L?0013
  C:8266H         SYMBOL        L?0014
  -------         PROC          COM000C
  -------         ENDPROC       COM000C
  -------         PROC          PCT_INITIALTW2835
  C:7C47H         LINE#         72
  C:7C47H         LINE#         73
  C:7C47H         LINE#         74
  C:7C4AH         LINE#         75
  C:7C4EH         LINE#         78
  C:7C53H         LINE#         79
  C:7C5BH         LINE#         80
  C:7C6AH         LINE#         81
  C:7C73H         LINE#         82
  C:7C75H         LINE#         83
  C:7C75H         LINE#         84
  C:7C7CH         LINE#         85
  C:7C7EH         LINE#         86
  C:7C83H         LINE#         88
  C:7C86H         LINE#         89
  -------         ENDPROC       PCT_INITIALTW2835
  -------         PROC          PCT_TW2835RESETN
  -------         DO            
  D:0006H         SYMBOL        _delay
  -------         ENDDO         
  C:830AH         LINE#         96
  C:830AH         LINE#         97
  C:830AH         LINE#         112
  C:830CH         LINE#         113
  C:831AH         LINE#         114
  C:831CH         LINE#         116
BL51 BANKED LINKER/LOCATER V6.22                                                      03/28/2018  18:26:36  PAGE 68


  -------         ENDPROC       PCT_TW2835RESETN
  C:7578H         SYMBOL        L?0015
  -------         PROC          PCT_TW2835_INITIAL
  -------         DO            
  X:00A5H         SYMBOL        offset
  -------         ENDDO         
  C:751FH         LINE#         122
  C:751FH         LINE#         123
  C:751FH         LINE#         126
  C:752AH         LINE#         127
  C:7535H         LINE#         128
  C:7547H         LINE#         130
  C:755EH         LINE#         132
  C:7578H         LINE#         133
  -------         ENDPROC       PCT_TW2835_INITIAL
  C:763DH         SYMBOL        L?0016
  -------         PROC          _PCT_CHANGESYSTEMTYPE
  D:0007H         SYMBOL        _sys
  -------         DO            
  X:009FH         SYMBOL        offset
  -------         ENDDO         
  C:75E6H         LINE#         139
  C:75E6H         LINE#         140
  C:75E6H         LINE#         143
  C:75EFH         LINE#         144
  C:75FAH         LINE#         146
  C:760DH         LINE#         148
  C:7623H         LINE#         149
  C:763DH         LINE#         150
  -------         ENDPROC       _PCT_CHANGESYSTEMTYPE
  -------         ENDMOD        TW2835_INIT

  -------         MODULE        ?C?CLDPTR
  C:3C5EH         PUBLIC        ?C?CLDPTR
  -------         ENDMOD        ?C?CLDPTR

  -------         MODULE        ?C?CLDOPTR
  C:3C77H         PUBLIC        ?C?CLDOPTR
  -------         ENDMOD        ?C?CLDOPTR

  -------         MODULE        ?C?CSTPTR
  C:3CA4H         PUBLIC        ?C?CSTPTR
  -------         ENDMOD        ?C?CSTPTR

  -------         MODULE        ?C?IMUL
  C:3CB6H         PUBLIC        ?C?IMUL
  -------         ENDMOD        ?C?IMUL

  -------         MODULE        ?C?ILDPTR
  C:3CC8H         PUBLIC        ?C?ILDPTR
  -------         ENDMOD        ?C?ILDPTR

  -------         MODULE        ?C?IILDOPTR
  C:3CF3H         PUBLIC        ?C?IILDOPTR
  -------         ENDMOD        ?C?IILDOPTR

  -------         MODULE        ?C?ULCMP
BL51 BANKED LINKER/LOCATER V6.22                                                      03/28/2018  18:26:36  PAGE 69


  C:3D40H         PUBLIC        ?C?ULCMP
  -------         ENDMOD        ?C?ULCMP

  -------         MODULE        ?C?PLDPTR
  C:3D51H         PUBLIC        ?C?PLDPTR
  -------         ENDMOD        ?C?PLDPTR

  -------         MODULE        ?C?PSTPTR
  C:3D71H         PUBLIC        ?C?PSTPTR
  -------         ENDMOD        ?C?PSTPTR

  -------         MODULE        ?C?CCASE
  C:3DC0H         PUBLIC        ?C?CCASE
  -------         ENDMOD        ?C?CCASE

  -------         MODULE        PRINTF
  X:00A5H         PUBLIC        ?_PRINTF517?BYTE
  X:00A5H         PUBLIC        ?_PRINTF?BYTE
  X:00A5H         PUBLIC        ?_SPRINTF517?BYTE
  X:00A5H         PUBLIC        ?_SPRINTF?BYTE
  C:482DH         PUBLIC        _PRINTF
  C:482DH         PUBLIC        _PRINTF517
  C:4827H         PUBLIC        _SPRINTF
  C:4827H         PUBLIC        _SPRINTF517
  -------         ENDMOD        PRINTF

  -------         MODULE        PUTS
  C:8094H         PUBLIC        _PUTS
  -------         ENDMOD        PUTS

  -------         MODULE        SCANF
  X:00ABH         PUBLIC        ?_SCANF517?BYTE
  X:00ABH         PUBLIC        ?_SCANF?BYTE
  X:00ABH         PUBLIC        ?_SSCANF517?BYTE
  X:00ABH         PUBLIC        ?_SSCANF?BYTE
  C:4ED8H         PUBLIC        _SCANF
  C:4ED8H         PUBLIC        _SCANF517
  C:4ED4H         PUBLIC        _SSCANF
  C:4ED4H         PUBLIC        _SSCANF517
  -------         ENDMOD        SCANF

  -------         MODULE        ?C?STRCMP
  C:3F64H         PUBLIC        ?C?STRCMP
  -------         ENDMOD        ?C?STRCMP

  -------         MODULE        STRLEN
  C:000EH         PUBLIC        _STRLEN
  -------         ENDMOD        STRLEN

  -------         MODULE        ATOI
  C:7024H         PUBLIC        _atoi
  -------         ENDMOD        ATOI

  -------         MODULE        ?C?IILDX
  C:3F81H         PUBLIC        ?C?IILDX
  -------         ENDMOD        ?C?IILDX

BL51 BANKED LINKER/LOCATER V6.22                                                      03/28/2018  18:26:36  PAGE 70


  -------         MODULE        ?C?ISTPTR
  C:3F97H         PUBLIC        ?C?ISTPTR
  -------         ENDMOD        ?C?ISTPTR

  -------         MODULE        ?C?LNEG
  C:3FB6H         PUBLIC        ?C?LNEG
  -------         ENDMOD        ?C?LNEG

  -------         MODULE        ?C?LSTPTR
  C:3FC4H         PUBLIC        ?C?LSTPTR
  -------         ENDMOD        ?C?LSTPTR

  -------         MODULE        ?C?PLDIDATA
  C:3FDEH         PUBLIC        ?C?PLDIDATA
  -------         ENDMOD        ?C?PLDIDATA

  -------         MODULE        ?C?PSTIDATA
  C:3FE7H         PUBLIC        ?C?PSTIDATA
  -------         ENDMOD        ?C?PSTIDATA

  -------         MODULE        ?C?PLDXDATA
  C:3FF0H         PUBLIC        ?C?PLDXDATA
  -------         ENDMOD        ?C?PLDXDATA

  -------         MODULE        ?C?PSTXDATA
  C:3FF9H         PUBLIC        ?C?PSTXDATA
  -------         ENDMOD        ?C?PSTXDATA

  -------         MODULE        ?C?PLDPDATA
  C:4002H         PUBLIC        ?C?PLDPDATA
  -------         ENDMOD        ?C?PLDPDATA

  -------         MODULE        ?C?PLDIPDATA
  C:400BH         PUBLIC        ?C?PLDIPDATA
  -------         ENDMOD        ?C?PLDIPDATA

  -------         MODULE        ?C?PILDPDATA
  C:401BH         PUBLIC        ?C?PILDPDATA
  -------         ENDMOD        ?C?PILDPDATA

  -------         MODULE        ?C?PSTPDATA
  C:402BH         PUBLIC        ?C?PSTPDATA
  -------         ENDMOD        ?C?PSTPDATA

  -------         MODULE        ?C?PLDCODE
  C:4034H         PUBLIC        ?C?PLDCODE
  -------         ENDMOD        ?C?PLDCODE

  -------         MODULE        PUTCHAR
  C:815DH         PUBLIC        _PUTCHAR
  -------         ENDMOD        PUTCHAR

  -------         MODULE        GETCHAR
  B:0024H.2       PUBLIC        ?C?CHARLOADED
  X:009BH         PUBLIC        ?_UNGETCHAR?BYTE
  C:831DH         PUBLIC        GETCHAR
  -------         ENDMOD        GETCHAR
BL51 BANKED LINKER/LOCATER V6.22                                                      03/28/2018  18:26:36  PAGE 71



  -------         MODULE        UNGETC
  C:83C7H         PUBLIC        _UNGETCHAR
  -------         ENDMOD        UNGETC

  -------         MODULE        ISDIGIT
  C:837FH         PUBLIC        _isdigit
  -------         ENDMOD        ISDIGIT

  -------         MODULE        ISSPACE
  C:82F6H         PUBLIC        _isspace
  -------         ENDMOD        ISSPACE

  -------         MODULE        ?C?LSTIDATA
  C:4040H         PUBLIC        ?C?LSTIDATA
  -------         ENDMOD        ?C?LSTIDATA

  -------         MODULE        ?C?LSTXDATA
  C:404CH         PUBLIC        ?C?LSTXDATA
  -------         ENDMOD        ?C?LSTXDATA

  -------         MODULE        ?C?LSTPDATA
  C:4058H         PUBLIC        ?C?LSTPDATA
  -------         ENDMOD        ?C?LSTPDATA

  -------         MODULE        _GETKEY
  C:83A4H         PUBLIC        _GETKEY
  -------         ENDMOD        _GETKEY

Program Size: data=46.3 xdata=218 code=33759
LINK/LOCATE RUN COMPLETE.  0 WARNING(S),  0 ERROR(S)
