BL51 BANKED LINKER/LOCATER V6.22.2.0                                                    07/14/2021  16:13:00  PAGE 1


BL51 BANKED LINKER/LOCATER V6.22.2.0, INVOKED BY:
C:\KEIL_V5\C51\BIN\BL51.EXE .\OBJ\STARTUP.obj, .\OBJ\UART.obj, .\OBJ\BusCtrl.obj, .\OBJ\CommandShell.obj, .\OBJ\Main.obj
>> , .\OBJ\OSD_Graph.obj, .\OBJ\OSDAction.obj, .\OBJ\OSDCtrl.obj, .\OBJ\Timer.obj, .\OBJ\TW28xx_Audio.obj, .\OBJ\TW28xx_
>> Video.obj, .\OBJ\TW2835_Init.obj TO .\OBJ\TW2835 PRINT (.\OBJ\TW2835.m51) RAMSIZE (256)


MEMORY MODEL: COMPACT


INPUT MODULES INCLUDED:
  .\OBJ\STARTUP.obj (?C_STARTUP)
  .\OBJ\UART.obj (UART)
  .\OBJ\BusCtrl.obj (BUSCTRL)
  .\OBJ\CommandShell.obj (COMMANDSHELL)
  .\OBJ\Main.obj (MAIN)
  .\OBJ\OSD_Graph.obj (OSD_GRAPH)
  .\OBJ\OSDAction.obj (OSDACTION)
  .\OBJ\OSDCtrl.obj (OSDCTRL)
  .\OBJ\Timer.obj (TIMER)
  .\OBJ\TW28xx_Audio.obj (TW28XX_AUDIO)
  .\OBJ\TW28xx_Video.obj (TW28XX_VIDEO)
  .\OBJ\TW2835_Init.obj (TW2835_INIT)
  C:\KEIL_V5\C51\LIB\C51C.LIB (?C_INIT)
  C:\KEIL_V5\C51\LIB\C51C.LIB (?C?CLDPTR)
  C:\KEIL_V5\C51\LIB\C51C.LIB (?C?CLDOPTR)
  C:\KEIL_V5\C51\LIB\C51C.LIB (?C?CSTPTR)
  C:\KEIL_V5\C51\LIB\C51C.LIB (?C?IMUL)
  C:\KEIL_V5\C51\LIB\C51C.LIB (?C?ILDPTR)
  C:\KEIL_V5\C51\LIB\C51C.LIB (?C?IILDOPTR)
  C:\KEIL_V5\C51\LIB\C51C.LIB (?C?ULCMP)
  C:\KEIL_V5\C51\LIB\C51C.LIB (?C?PLDPTR)
  C:\KEIL_V5\C51\LIB\C51C.LIB (?C?PSTPTR)
  C:\KEIL_V5\C51\LIB\C51C.LIB (?C?CCASE)
  C:\KEIL_V5\C51\LIB\C51C.LIB (PRINTF)
  C:\KEIL_V5\C51\LIB\C51C.LIB (PUTS)
  C:\KEIL_V5\C51\LIB\C51C.LIB (SCANF)
  C:\KEIL_V5\C51\LIB\C51C.LIB (?C?STRCMP)
  C:\KEIL_V5\C51\LIB\C51C.LIB (STRLEN)
  C:\KEIL_V5\C51\LIB\C51C.LIB (ATOI)
  C:\KEIL_V5\C51\LIB\C51C.LIB (?C?IILDX)
  C:\KEIL_V5\C51\LIB\C51C.LIB (?C?ISTPTR)
  C:\KEIL_V5\C51\LIB\C51C.LIB (?C?LNEG)
  C:\KEIL_V5\C51\LIB\C51C.LIB (?C?LSTPTR)
  C:\KEIL_V5\C51\LIB\C51C.LIB (?C?PLDIDATA)
  C:\KEIL_V5\C51\LIB\C51C.LIB (?C?PSTIDATA)
  C:\KEIL_V5\C51\LIB\C51C.LIB (?C?PLDXDATA)
  C:\KEIL_V5\C51\LIB\C51C.LIB (?C?PSTXDATA)
  C:\KEIL_V5\C51\LIB\C51C.LIB (?C?PLDPDATA)
  C:\KEIL_V5\C51\LIB\C51C.LIB (?C?PLDIPDATA)
  C:\KEIL_V5\C51\LIB\C51C.LIB (?C?PILDPDATA)
  C:\KEIL_V5\C51\LIB\C51C.LIB (?C?PSTPDATA)
  C:\KEIL_V5\C51\LIB\C51C.LIB (?C?PLDCODE)
  C:\KEIL_V5\C51\LIB\C51C.LIB (PUTCHAR)
  C:\KEIL_V5\C51\LIB\C51C.LIB (GETCHAR)
  C:\KEIL_V5\C51\LIB\C51C.LIB (UNGETC)
  C:\KEIL_V5\C51\LIB\C51C.LIB (ISDIGIT)
  C:\KEIL_V5\C51\LIB\C51C.LIB (ISSPACE)
  C:\KEIL_V5\C51\LIB\C51C.LIB (?C?LSTIDATA)
BL51 BANKED LINKER/LOCATER V6.22.2.0                                                  07/14/2021  16:13:00  PAGE 2


  C:\KEIL_V5\C51\LIB\C51C.LIB (?C?LSTXDATA)
  C:\KEIL_V5\C51\LIB\C51C.LIB (?C?LSTPDATA)
  C:\KEIL_V5\C51\LIB\C51C.LIB (_GETKEY)


LINK MAP OF MODULE:  .\OBJ\TW2835 (?C_STARTUP)


            TYPE    BASE      LENGTH    RELOCATION   SEGMENT NAME
            -----------------------------------------------------

            * * * * * * *   D A T A   M E M O R Y   * * * * * * *
            REG     0000H     0008H     ABSOLUTE     "REG BANK 0"
            REG     0008H     0008H     ABSOLUTE     "REG BANK 1"
            DATA    0010H     0006H     UNIT         ?DT?TIMER
            DATA    0016H     0002H     UNIT         ?DT?OSDCTRL
                    0018H     0008H                  *** GAP ***
            DATA    0020H     0001H     BIT_ADDR     ?BA?MAIN
            DATA    0021H     0001H     BIT_ADDR     ?BA?OSDACTION
            DATA    0022H     0001H     BIT_ADDR     ?BA?OSDCTRL
            BIT     0023H.0   0001H.1   UNIT         _BIT_GROUP_
            BIT     0024H.1   0000H.1   UNIT         ?BI?MAIN
            BIT     0024H.2   0000H.1   UNIT         ?BI?GETCHAR
                    0024H.3   0000H.5                *** GAP ***
            DATA    0025H     0011H     UNIT         _DATA_GROUP_
            IDATA   0036H     0001H     UNIT         ?STACK

            * * * * * * *  X D A T A   M E M O R Y  * * * * * * *
            XDATA   0000H     0052H     INPAGE       ?PD?UART
            XDATA   0052H     0019H     INPAGE       ?PD?COMMANDSHELL
            XDATA   006BH     002DH     INPAGE       ?PD?MAIN
            XDATA   0098H     0001H     INPAGE       ?PD?OSD_GRAPH
            XDATA   0099H     0001H     INPAGE       ?PD?OSDACTION
            XDATA   009AH     0001H     INPAGE       ?PD?TW2835_INIT
            XDATA   009BH     0001H     INPAGE       ?PD?GETCHAR
            XDATA   009CH     003EH     INPAGE       _PDATA_GROUP_
            XDATA   00DAH     0001H     UNIT         ?XD?COMMANDSHELL

            * * * * * * *   C O D E   M E M O R Y   * * * * * * *
            CODE    0000H     0003H     ABSOLUTE     
            CODE    0003H     0008H     UNIT         ?PR?_RS_TX?UART
            CODE    000BH     0003H     ABSOLUTE     
            CODE    000EH     0015H     UNIT         ?PR?_STRLEN?STRLEN
            CODE    0023H     0003H     ABSOLUTE     
            CODE    0026H     24E6H     UNIT         ?CO?OSD_GRAPH
            CODE    250CH     0EA0H     UNIT         ?CO?OSDCTRL
            CODE    33ACH     0910H     UNIT         ?CO?TW2835_INIT
            CODE    3CBCH     0565H     UNIT         ?PR?PCT_SHOWVLOSS?OSDACTION
            CODE    4221H     04C2H     UNIT         ?PR?_PCT_SHOWMIRRORICON?OSDACTION
            CODE    46E3H     04ADH     UNIT         ?PR?_PCT_SHOWSPEAKICON?OSDACTION
            CODE    4B90H     0463H     UNIT         ?CO?TW28XX_VIDEO
            CODE    4FF3H     0406H     UNIT         ?C?LIB_CODE
            CODE    53F9H     03D0H     UNIT         ?PR?_PCT_SETVIDEOHDELAY?TW28XX_VIDEO
            CODE    57C9H     03C8H     UNIT         ?PR?_PCT_OSD_ACTIONPTHX?OSDACTION
            CODE    5B91H     035BH     UNIT         ?PR?PRINTF?PRINTF
            CODE    5EECH     0316H     UNIT         ?PR?SCANF?SCANF
            CODE    6202H     02DFH     UNIT         ?CO?COMMANDSHELL
BL51 BANKED LINKER/LOCATER V6.22.2.0                                                  07/14/2021  16:13:00  PAGE 3


            CODE    64E1H     0296H     UNIT         ?PR?_PCT_RUNCOMMSHELL?COMMANDSHELL
            CODE    6777H     027EH     UNIT         ?PR?_PCT_SHOWINDICATEICON?OSDACTION
            CODE    69F5H     0210H     UNIT         ?PR?_MONIVIDEOMIXATTR?COMMANDSHELL
            CODE    6C05H     020BH     UNIT         ?PR?COMMANDSHELL
            CODE    6E10H     01DDH     UNIT         ?PR?PCT_TW2835_INITIAL?TW2835_INIT
            CODE    6FEDH     01BCH     UNIT         ?PR?_PCT_OSD16X16GRAPHX?OSD_GRAPH
            CODE    71A9H     01B8H     UNIT         ?PR?PCT_AUDIOREGLIST?TW28XX_AUDIO
            CODE    7361H     0195H     UNIT         ?PR?_PCT_SETXVIDEOMIXING?TW28XX_VIDEO
            CODE    74F6H     018EH     UNIT         ?PR?_PCT_RECOMPENSEYHDELAY?TW28XX_VIDEO
            CODE    7684H     018AH     UNIT         ?PR?_MONIAUDIOMIXING?COMMANDSHELL
            CODE    780EH     0169H     UNIT         ?PR?_PCT_WRITEOSDDATABUFFERX?OSDCTRL
            CODE    7977H     0165H     UNIT         ?PR?OSDCTRL
            CODE    7ADCH     013DH     UNIT         ?PR?_MONIAUDIOGAIN?COMMANDSHELL
            CODE    7C19H     013CH     UNIT         ?PR?_MONIHSCOMM?COMMANDSHELL
            CODE    7D55H     0131H     UNIT         ?PR?TW28XX_VIDEO
            CODE    7E86H     012FH     UNIT         ?PR?PCT_INITOSDCOLOR?OSDCTRL
            CODE    7FB5H     011DH     UNIT         ?PR?_PCT_WRITEOSDDATABUFFERY?OSDCTRL
            CODE    80D2H     0117H     UNIT         ?PR?_MONISETVIDEOFORMAT?COMMANDSHELL
            CODE    81E9H     00FFH     UNIT         ?PR?_PCT_WRITEOSDFNTX?OSDCTRL
            CODE    82E8H     00FAH     UNIT         ?PR?OSDACTION
            CODE    83E2H     00EAH     UNIT         ?PR?_PCT_WRITEOSDFNTY?OSDCTRL
            CODE    84CCH     00D0H     UNIT         ?PR?_ATOI?ATOI
            CODE    859CH     00ADH     UNIT         ?PR?_PCT_CLEARWORDSPATHX?OSDCTRL
            CODE    8649H     009EH     UNIT         ?PR?_PCT_FULLCOLORONOSD?OSDCTRL
            CODE    86E7H     0097H     UNIT         ?PR?_PCT_SETCHANELSCALE?TW28XX_VIDEO
            CODE    877EH     0097H     UNIT         ?PR?_PCT_CHANGESYSTEMTYPE?TW2835_INIT
            CODE    8815H     0090H     UNIT         ?PR?_PCT_DETECTVIDEOFORMAT?TW28XX_VIDEO
            CODE    88A5H     008CH     UNIT         ?C_C51STARTUP
            CODE    8931H     007CH     UNIT         ?PR?_PCT_WRITEASICTABLE?BUSCTRL
            CODE    89ADH     0077H     UNIT         ?PR?MAIN?MAIN
            CODE    8A24H     006BH     UNIT         ?PR?PCT_CHECKSYSTEM?COMMANDSHELL
            CODE    8A8FH     0068H     UNIT         ?PR?_PCT_GETFIRSTSTR?COMMANDSHELL
            CODE    8AF7H     0065H     UNIT         ?PR?_PCT_READASICBYTE?BUSCTRL
            CODE    8B5CH     0064H     UNIT         ?PR?_PCT_WRITEASICBYTE?BUSCTRL
            CODE    8BC0H     0061H     UNIT         ?PR?_PCT_AUDIOMIXCTRL?TW28XX_AUDIO
            CODE    8C21H     0061H     UNIT         ?PR?PCT_INITIALTW2835?TW2835_INIT
            CODE    8C82H     0060H     UNIT         ?PR?_PCT_SHOWOSDSTRING?OSDCTRL
            CODE    8CE2H     005DH     UNIT         ?PR?_MONISHOWSODSTR?COMMANDSHELL
            CODE    8D3FH     005BH     UNIT         ?PR?_PCT_SHOWGRAPHSTRING?OSD_GRAPH
            CODE    8D9AH     005BH     UNIT         ?PR?_PCT_AUDIOGAINCTRL?TW28XX_AUDIO
            CODE    8DF5H     0057H     UNIT         ?PR?_PCT_WRITESTABLE?BUSCTRL
            CODE    8E4CH     0056H     UNIT         ?PR?_MONIVIDEOMIXWIN?COMMANDSHELL
            CODE    8EA2H     0054H     UNIT         ?PR?TIMER0_INTERRUPT?TIMER
            CODE    8EF6H     0053H     UNIT         ?PR?_PCT_SETOSDCOLOR?OSDCTRL
            CODE    8F49H     0052H     UNIT         ?PR?COMMANDSHELL?MAIN
            CODE    8F9BH     0052H     UNIT         ?PR?OSD_GRAPH
            CODE    8FEDH     0050H     UNIT         ?PR?PCT_INITIALOSD?OSDACTION
            CODE    903DH     004FH     UNIT         ?PR?MONIREGISTERDUMP?COMMANDSHELL
            CODE    908CH     004CH     UNIT         ?PR?_MONIWRITEASICBYTE?COMMANDSHELL
            CODE    90D8H     0047H     UNIT         ?PR?_MONIREADASICBYTE?COMMANDSHELL
            CODE    911FH     0046H     UNIT         ?PR?_WAIT_MS?MAIN
            CODE    9165H     0046H     UNIT         ?PR?PCT_SHOWMODEICON?OSDACTION
            CODE    91ABH     0043H     UNIT         ?PR?_MONIREADPAGEBUFFER?COMMANDSHELL
            CODE    91EEH     0043H     UNIT         ?PR?MONIHSCOMMVERSION?COMMANDSHELL
            CODE    9231H     0041H     UNIT         ?PR?_PCT_CHECKVMIXTYPE?COMMANDSHELL
            CODE    9272H     0041H     UNIT         ?PR?PCT_AUDIOACTIONFORHS?COMMANDSHELL
            CODE    92B3H     0041H     UNIT         ?PR?TW28XX_AUDIO
BL51 BANKED LINKER/LOCATER V6.22.2.0                                                  07/14/2021  16:13:00  PAGE 4


            CODE    92F4H     0040H     UNIT         ?CO?TW28XX_AUDIO
            CODE    9334H     003EH     UNIT         ?PR?_PCT_STRTOCOMMCODE?COMMANDSHELL
            CODE    9372H     003CH     UNIT         ?PR?_PCT_WINATTRCLEAR?TW28XX_VIDEO
            CODE    93AEH     0038H     UNIT         ?PR?PCT_GETVIDEOSIGNALSTATUS?OSDACTION
            CODE    93E6H     0038H     UNIT         ?PR?_PCT_WINATTRCTRLY?TW28XX_VIDEO
            CODE    941EH     0036H     UNIT         ?PR?_PUTSP?MAIN
            CODE    9454H     0035H     UNIT         ?PR?_PCT_ENSHOWOSDPAGE?OSDCTRL
            CODE    9489H     0034H     UNIT         ?PR?_PCT_AUDIOMIXMUTE?TW28XX_AUDIO
            CODE    94BDH     0033H     UNIT         ?PR?_MONIREADONEBUFFER?COMMANDSHELL
            CODE    94F0H     0033H     UNIT         ?PR?_MONIWRITEONEBUFFER?COMMANDSHELL
            CODE    9523H     0033H     UNIT         ?PR?MONIVIDEOAUTODETECT?COMMANDSHELL
            CODE    9556H     0031H     UNIT         ?PR?_PCT_WINATTRCTRL?TW28XX_VIDEO
            CODE    9587H     002EH     UNIT         ?PR?_CHKSTARTCOMMSHELL?MAIN
            CODE    95B5H     002EH     UNIT         ?PR?TW2835_INIT
            CODE    95E3H     002AH     UNIT         ?PR?_PUTS?PUTS
            CODE    960DH     0029H     UNIT         ?PR?_PCT_AUDIOSELLIVE?TW28XX_AUDIO
            CODE    9636H     0028H     UNIT         ?PR?PCT_OSDACTIONFORHS?OSDACTION
            CODE    965EH     0028H     UNIT         ?PR?_PCT_SETVIDEOFORMAT?TW28XX_VIDEO
            CODE    9686H     0027H     UNIT         ?PR?PUTCHAR?PUTCHAR
            CODE    96ADH     0026H     UNIT         ?PR?INITIALTIMER0?TIMER
            CODE    96D3H     0025H     UNIT         ?PR?_PCT_PAGECHANGE?BUSCTRL
            CODE    96F8H     0025H     UNIT         ?CO?OSDACTION
            CODE    971DH     0023H     UNIT         ?PR?RS_INTERRUPT?UART
            CODE    9740H     0023H     UNIT         ?PR?BUSCTRL
            CODE    9763H     0023H     UNIT         ?PR?INITIALMPU?MAIN
            CODE    9786H     001DH     UNIT         ?PR?_PCT_SETOSDDRAWPAGE?OSDCTRL
            CODE    97A3H     001CH     UNIT         ?PR?_PCT_DISSHOWOSDPAGE?OSDCTRL
            CODE    97BFH     0019H     UNIT         ?PR?_PCT_CLEAROSDPAGEX?OSDCTRL
            CODE    97D8H     0019H     UNIT         ?PR?PCT_TW2837IDCHECK?TW2835_INIT
            CODE    97F1H     0017H     UNIT         ?CO?MAIN
            CODE    9808H     0016H     UNIT         ?PR?RS_RX?UART
            CODE    981EH     0016H     UNIT         ?PR?_MONIHSCOMMSJMODE?COMMANDSHELL
            CODE    9834H     0016H     UNIT         ?PR?RESETCOMMSELL?MAIN
            CODE    984AH     0014H     UNIT         ?PR?_MONIAUDIOLIVE?COMMANDSHELL
            CODE    985EH     0014H     UNIT         ?PR?_PCT_SETYVIDEOMIXING?TW28XX_VIDEO
            CODE    9872H     0014H     UNIT         ?PR?_ISSPACE?ISSPACE
            CODE    9886H     0013H     UNIT         ?PR?PCT_TW2835RESETN?TW2835_INIT
            CODE    9899H     0013H     UNIT         ?PR?GETCHAR?GETCHAR
            CODE    98ACH     0012H     UNIT         ?PR?_MONIYVIDEOMIX?COMMANDSHELL
            CODE    98BEH     0010H     UNIT         ?PR?INITIALUART?UART
            CODE    98CEH     000FH     UNIT         ?PR?RS_RXREADY?UART
            CODE    98DDH     000FH     UNIT         ?PR?PCT_SENDACK?COMMANDSHELL
            CODE    98ECH     000FH     UNIT         ?PR?MONIAUDIOMUTE?COMMANDSHELL
            CODE    98FBH     000FH     UNIT         ?PR?_ISDIGIT?ISDIGIT
            CODE    990AH     000CH     UNIT         ?PR?UART
            CODE    9916H     000BH     UNIT         ?C_INITSEG
            CODE    9921H     000BH     UNIT         ?PR?INITIALCOMMSHELL?MAIN
            CODE    992CH     000AH     UNIT         ?PR?_GETKEY?_GETKEY
            CODE    9936H     0009H     UNIT         ?PR?NEWLINE?MAIN
            CODE    993FH     0009H     UNIT         ?PR?_PCT_FLASHOSDCTRL?MAIN
            CODE    9948H     0007H     UNIT         ?PR?PCT_ENFALSHVLOSS?OSDACTION
            CODE    994FH     0007H     UNIT         ?PR?GETCHAR?UNGETCHAR
            CODE    9956H     0005H     UNIT         ?PR?MONIHSCOMMDISSCROLL?COMMANDSHELL
            CODE    995BH     0005H     UNIT         ?PR?PCT_CLEARGRAPHATTR?OSD_GRAPH
            CODE    9960H     0003H     UNIT         ?PR?_PCT_PRESETFOREGROUNDCOLOR?OSDCTRL
            CODE    9963H     0003H     UNIT         ?PR?_PCT_PRESETBACKGROUNDCOLOR?OSDCTRL
            CODE    9966H     0001H     UNIT         ?PR?PTC_SWITCHTOI2CMODE?BUSCTRL
BL51 BANKED LINKER/LOCATER V6.22.2.0                                                  07/14/2021  16:13:00  PAGE 5





OVERLAY MAP OF MODULE:   .\OBJ\TW2835 (?C_STARTUP)


SEGMENT                                            BIT_GROUP          DATA_GROUP          PDATA_GROUP
  +--> CALLED SEGMENT                           START    LENGTH     START    LENGTH     START    LENGTH
-------------------------------------------------------------------------------------------------------
?C_C51STARTUP                                   -----    -----      -----    -----      -----    -----
  +--> ?PR?MAIN?MAIN
  +--> ?C_INITSEG

?PR?MAIN?MAIN                                   -----    -----      -----    -----      009CH    0003H
  +--> ?PR?INITIALMPU?MAIN
  +--> ?PR?INITIALCOMMSHELL?MAIN
  +--> ?PR?PTC_SWITCHTOI2CMODE?BUSCTRL
  +--> ?PR?PCT_INITIALTW2835?TW2835_INIT
  +--> ?PR?RESETCOMMSELL?MAIN
  +--> ?PR?COMMANDSHELL?MAIN
  +--> ?PR?_PCT_RUNCOMMSHELL?COMMANDSHELL
  +--> ?PR?PCT_CHECKSYSTEM?COMMANDSHELL
  +--> ?PR?RS_RXREADY?UART
  +--> ?PR?PCT_GETVIDEOSIGNALSTATUS?OSDACTION

?PR?INITIALMPU?MAIN                             -----    -----      -----    -----      -----    -----
  +--> ?PR?INITIALUART?UART
  +--> ?PR?INITIALTIMER0?TIMER

?PR?PCT_INITIALTW2835?TW2835_INIT               -----    -----      -----    -----      -----    -----
  +--> ?PR?PCT_TW2835RESETN?TW2835_INIT
  +--> ?PR?PCT_TW2837IDCHECK?TW2835_INIT
  +--> ?PR?_WAIT_MS?MAIN
  +--> ?PR?_PCT_DETECTVIDEOFORMAT?TW28XX_VIDEO
  +--> ?PR?PCT_TW2835_INITIAL?TW2835_INIT
  +--> ?PR?PCT_INITIALOSD?OSDACTION
  +--> ?PR?_PCT_READASICBYTE?BUSCTRL

?PR?PCT_TW2837IDCHECK?TW2835_INIT               -----    -----      -----    -----      -----    -----
  +--> ?PR?_PCT_READASICBYTE?BUSCTRL

?PR?_PCT_READASICBYTE?BUSCTRL                   -----    -----      -----    -----      -----    -----
  +--> ?PR?BUSCTRL
  +--> ?PR?_PCT_PAGECHANGE?BUSCTRL

?PR?_PCT_PAGECHANGE?BUSCTRL                     -----    -----      -----    -----      00D9H    0001H
  +--> ?PR?BUSCTRL

?PR?_WAIT_MS?MAIN                               -----    -----      -----    -----      00A5H    0004H

?PR?_PCT_DETECTVIDEOFORMAT?TW28XX_VIDEO         -----    -----      -----    -----      00A5H    0002H
  +--> ?PR?_PCT_READASICBYTE?BUSCTRL

?PR?PCT_TW2835_INITIAL?TW2835_INIT              -----    -----      -----    -----      00A5H    0002H
  +--> ?PR?TW2835_INIT
  +--> ?CO?TW2835_INIT
  +--> ?PR?_PCT_WRITEASICTABLE?BUSCTRL
BL51 BANKED LINKER/LOCATER V6.22.2.0                                                  07/14/2021  16:13:00  PAGE 6


  +--> ?PR?_PCT_WRITEASICBYTE?BUSCTRL

?PR?TW2835_INIT                                 -----    -----      -----    -----      -----    -----
  +--> ?CO?TW2835_INIT

?PR?_PCT_WRITEASICTABLE?BUSCTRL                 -----    -----      -----    -----      00A7H    0007H
  +--> ?PR?BUSCTRL
  +--> ?PR?_PCT_PAGECHANGE?BUSCTRL

?PR?_PCT_WRITEASICBYTE?BUSCTRL                  -----    -----      -----    -----      00D5H    0004H
  +--> ?PR?BUSCTRL
  +--> ?PR?_PCT_PAGECHANGE?BUSCTRL

?PR?PCT_INITIALOSD?OSDACTION                    -----    -----      0027H    0001H      -----    -----
  +--> ?PR?PCT_INITOSDCOLOR?OSDCTRL
  +--> ?PR?PCT_CLEARGRAPHATTR?OSD_GRAPH
  +--> ?PR?_PCT_PRESETFOREGROUNDCOLOR?OSDCTRL
  +--> ?PR?_PCT_PRESETBACKGROUNDCOLOR?OSDCTRL
  +--> ?PR?_PCT_ENSHOWOSDPAGE?OSDCTRL
  +--> ?PR?_PCT_SETOSDDRAWPAGE?OSDCTRL
  +--> ?PR?_PCT_FULLCOLORONOSD?OSDCTRL

?PR?PCT_INITOSDCOLOR?OSDCTRL                    -----    -----      -----    -----      -----    -----
  +--> ?PR?_PCT_WRITEASICBYTE?BUSCTRL
  +--> ?PR?OSDCTRL
  +--> ?PR?_PCT_SETOSDCOLOR?OSDCTRL

?PR?OSDCTRL                                     -----    -----      -----    -----      -----    -----
  +--> ?CO?OSDCTRL

?PR?_PCT_SETOSDCOLOR?OSDCTRL                    -----    -----      -----    -----      00A5H    0005H
  +--> ?PR?_PCT_WRITEASICBYTE?BUSCTRL

?PR?_PCT_ENSHOWOSDPAGE?OSDCTRL                  -----    -----      -----    -----      00ABH    0001H
  +--> ?PR?OSDCTRL
  +--> ?PR?_PCT_WRITEASICBYTE?BUSCTRL
  +--> ?PR?_PCT_READASICBYTE?BUSCTRL

?PR?_PCT_SETOSDDRAWPAGE?OSDCTRL                 -----    -----      -----    -----      00ABH    0001H
  +--> ?PR?OSDCTRL
  +--> ?PR?_PCT_READASICBYTE?BUSCTRL
  +--> ?PR?_PCT_WRITEASICBYTE?BUSCTRL

?PR?_PCT_FULLCOLORONOSD?OSDCTRL                 -----    -----      -----    -----      00A5H    0006H
  +--> ?PR?OSDCTRL
  +--> ?PR?_PCT_WRITEASICBYTE?BUSCTRL
  +--> ?PR?_PCT_READASICBYTE?BUSCTRL

?PR?RESETCOMMSELL?MAIN                          -----    -----      -----    -----      -----    -----
  +--> ?CO?MAIN
  +--> ?PR?_PUTSP?MAIN

?PR?_PUTSP?MAIN                                 -----    -----      0025H    0001H      009FH    0003H
  +--> ?PR?_RS_TX?UART

?PR?COMMANDSHELL?MAIN                           -----    -----      0025H    0001H      -----    -----
  +--> ?PR?RS_RXREADY?UART
BL51 BANKED LINKER/LOCATER V6.22.2.0                                                  07/14/2021  16:13:00  PAGE 7


  +--> ?PR?RS_RX?UART
  +--> ?PR?_RS_TX?UART
  +--> ?PR?_CHKSTARTCOMMSHELL?MAIN
  +--> ?PR?NEWLINE?MAIN

?PR?RS_RX?UART                                  -----    -----      -----    -----      -----    -----
  +--> ?PR?UART

?PR?_CHKSTARTCOMMSHELL?MAIN                     -----    -----      -----    -----      009FH    0003H
  +--> ?CO?MAIN

?PR?NEWLINE?MAIN                                -----    -----      -----    -----      -----    -----
  +--> ?CO?MAIN
  +--> ?PR?_PUTS?PUTS

?PR?_PUTS?PUTS                                  -----    -----      -----    -----      -----    -----
  +--> ?PR?PUTCHAR?PUTCHAR

?PR?_PCT_RUNCOMMSHELL?COMMANDSHELL              -----    -----      0025H    0002H      009FH    0006H
  +--> ?PR?COMMANDSHELL
  +--> ?PR?_PCT_GETFIRSTSTR?COMMANDSHELL
  +--> ?PR?_PCT_STRTOCOMMCODE?COMMANDSHELL
  +--> ?CO?COMMANDSHELL
  +--> ?PR?_MONIREADPAGEBUFFER?COMMANDSHELL
  +--> ?PR?_MONIREADONEBUFFER?COMMANDSHELL
  +--> ?PR?_MONIWRITEONEBUFFER?COMMANDSHELL
  +--> ?PR?_MONIWRITEASICBYTE?COMMANDSHELL
  +--> ?PR?_MONIREADASICBYTE?COMMANDSHELL
  +--> ?PR?_MONIAUDIOMIXING?COMMANDSHELL
  +--> ?PR?MONIAUDIOMUTE?COMMANDSHELL
  +--> ?PR?PCT_AUDIOREGLIST?TW28XX_AUDIO
  +--> ?PR?_MONIAUDIOGAIN?COMMANDSHELL
  +--> ?PR?_MONIAUDIOLIVE?COMMANDSHELL
  +--> ?PR?MONIREGISTERDUMP?COMMANDSHELL
  +--> ?PR?_PCT_WINATTRCLEAR?TW28XX_VIDEO
  +--> ?PR?_MONIVIDEOMIXWIN?COMMANDSHELL
  +--> ?PR?PCT_SENDACK?COMMANDSHELL
  +--> ?PR?_MONIVIDEOMIXATTR?COMMANDSHELL
  +--> ?PR?_MONIYVIDEOMIX?COMMANDSHELL
  +--> ?PR?PCT_INITIALTW2835?TW2835_INIT
  +--> ?PR?MONIVIDEOAUTODETECT?COMMANDSHELL
  +--> ?PR?_MONISETVIDEOFORMAT?COMMANDSHELL
  +--> ?PR?_MONISHOWSODSTR?COMMANDSHELL
  +--> ?PR?_MONIHSCOMM?COMMANDSHELL
  +--> ?PR?PCT_AUDIOACTIONFORHS?COMMANDSHELL
  +--> ?PR?PCT_OSDACTIONFORHS?OSDACTION
  +--> ?PR?_PCT_FLASHOSDCTRL?MAIN
  +--> ?PR?_MONIHSCOMMSJMODE?COMMANDSHELL
  +--> ?PR?MONIHSCOMMDISSCROLL?COMMANDSHELL
  +--> ?PR?MONIHSCOMMVERSION?COMMANDSHELL

?PR?COMMANDSHELL                                -----    -----      -----    -----      -----    -----
  +--> ?CO?COMMANDSHELL

?PR?_PCT_GETFIRSTSTR?COMMANDSHELL               -----    -----      -----    -----      00ABH    0006H
  +--> ?PR?COMMANDSHELL

BL51 BANKED LINKER/LOCATER V6.22.2.0                                                  07/14/2021  16:13:00  PAGE 8


?PR?_PCT_STRTOCOMMCODE?COMMANDSHELL             -----    -----      0031H    0002H      00ABH    0003H
  +--> ?PR?COMMANDSHELL

?PR?_MONIREADPAGEBUFFER?COMMANDSHELL            -----    -----      0027H    0003H      -----    -----
  +--> ?PR?COMMANDSHELL
  +--> ?CO?COMMANDSHELL
  +--> ?PR?SCANF?SCANF
  +--> ?PR?_PCT_READASICBYTE?BUSCTRL
  +--> ?PR?PRINTF?PRINTF

?PR?SCANF?SCANF                                 0023H.0  0000H.6    0031H    0005H      00ABH    0015H
  +--> ?PR?GETCHAR?UNGETCHAR
  +--> ?PR?_ISSPACE?ISSPACE
  +--> ?PR?GETCHAR?GETCHAR

?PR?GETCHAR?GETCHAR                             -----    -----      -----    -----      -----    -----
  +--> ?PR?_GETKEY?_GETKEY
  +--> ?PR?PUTCHAR?PUTCHAR

?PR?PRINTF?PRINTF                               0023H.0  0001H.1    002BH    0005H      00A5H    000FH
  +--> ?PR?PUTCHAR?PUTCHAR

?PR?_MONIREADONEBUFFER?COMMANDSHELL             -----    -----      0027H    0002H      -----    -----
  +--> ?PR?COMMANDSHELL
  +--> ?CO?COMMANDSHELL
  +--> ?PR?SCANF?SCANF
  +--> ?PR?_PCT_READASICBYTE?BUSCTRL
  +--> ?PR?PRINTF?PRINTF

?PR?_MONIWRITEONEBUFFER?COMMANDSHELL            -----    -----      0027H    0003H      -----    -----
  +--> ?PR?COMMANDSHELL
  +--> ?CO?COMMANDSHELL
  +--> ?PR?SCANF?SCANF
  +--> ?PR?_PCT_WRITEASICBYTE?BUSCTRL

?PR?_MONIWRITEASICBYTE?COMMANDSHELL             -----    -----      0027H    0004H      -----    -----
  +--> ?PR?COMMANDSHELL
  +--> ?CO?COMMANDSHELL
  +--> ?PR?SCANF?SCANF
  +--> ?PR?_PCT_WRITEASICBYTE?BUSCTRL

?PR?_MONIREADASICBYTE?COMMANDSHELL              -----    -----      0027H    0004H      -----    -----
  +--> ?PR?COMMANDSHELL
  +--> ?CO?COMMANDSHELL
  +--> ?PR?SCANF?SCANF
  +--> ?PR?_PCT_READASICBYTE?BUSCTRL
  +--> ?PR?PRINTF?PRINTF

?PR?_MONIAUDIOMIXING?COMMANDSHELL               -----    -----      0027H    000AH      00A5H    0006H
  +--> ?PR?COMMANDSHELL
  +--> ?PR?_PCT_GETFIRSTSTR?COMMANDSHELL
  +--> ?PR?_PCT_AUDIOMIXMUTE?TW28XX_AUDIO
  +--> ?PR?_ATOI?ATOI
  +--> ?PR?SCANF?SCANF
  +--> ?PR?_PCT_AUDIOMIXCTRL?TW28XX_AUDIO
  +--> ?CO?COMMANDSHELL

BL51 BANKED LINKER/LOCATER V6.22.2.0                                                  07/14/2021  16:13:00  PAGE 9


?PR?_PCT_AUDIOMIXMUTE?TW28XX_AUDIO              -----    -----      0031H    0001H      00ABH    0002H
  +--> ?PR?_PCT_READASICBYTE?BUSCTRL
  +--> ?PR?_PCT_WRITEASICBYTE?BUSCTRL

?PR?_ATOI?ATOI                                  0023H.0  0000H.1    -----    -----      00ABH    0005H
  +--> ?PR?_ISSPACE?ISSPACE
  +--> ?PR?_ISDIGIT?ISDIGIT

?PR?_PCT_AUDIOMIXCTRL?TW28XX_AUDIO              -----    -----      -----    -----      00ABH    0004H
  +--> ?PR?TW28XX_AUDIO
  +--> ?PR?_PCT_READASICBYTE?BUSCTRL
  +--> ?CO?TW28XX_AUDIO
  +--> ?PR?_PCT_WRITEASICBYTE?BUSCTRL
  +--> ?PR?_PCT_AUDIOSELLIVE?TW28XX_AUDIO

?PR?TW28XX_AUDIO                                -----    -----      -----    -----      -----    -----
  +--> ?CO?TW28XX_AUDIO

?PR?_PCT_AUDIOSELLIVE?TW28XX_AUDIO              -----    -----      -----    -----      00AFH    0001H
  +--> ?PR?_PCT_WRITEASICBYTE?BUSCTRL

?PR?MONIAUDIOMUTE?COMMANDSHELL                  -----    -----      -----    -----      -----    -----
  +--> ?PR?_PCT_AUDIOMIXMUTE?TW28XX_AUDIO
  +--> ?PR?_PCT_AUDIOSELLIVE?TW28XX_AUDIO

?PR?PCT_AUDIOREGLIST?TW28XX_AUDIO               -----    -----      -----    -----      -----    -----
  +--> ?PR?PRINTF?PRINTF
  +--> ?PR?_PCT_READASICBYTE?BUSCTRL
  +--> ?CO?TW28XX_AUDIO

?PR?_MONIAUDIOGAIN?COMMANDSHELL                 -----    -----      0027H    000AH      00A5H    0006H
  +--> ?PR?COMMANDSHELL
  +--> ?PR?_PCT_GETFIRSTSTR?COMMANDSHELL
  +--> ?PR?_ATOI?ATOI
  +--> ?PR?SCANF?SCANF
  +--> ?CO?COMMANDSHELL
  +--> ?PR?_PCT_AUDIOGAINCTRL?TW28XX_AUDIO

?PR?_PCT_AUDIOGAINCTRL?TW28XX_AUDIO             -----    -----      -----    -----      00ABH    0003H
  +--> ?PR?TW28XX_AUDIO
  +--> ?PR?_PCT_READASICBYTE?BUSCTRL
  +--> ?CO?TW28XX_AUDIO
  +--> ?PR?_PCT_WRITEASICBYTE?BUSCTRL

?PR?_MONIAUDIOLIVE?COMMANDSHELL                 -----    -----      0027H    0001H      -----    -----
  +--> ?PR?COMMANDSHELL
  +--> ?PR?SCANF?SCANF
  +--> ?PR?_PCT_AUDIOSELLIVE?TW28XX_AUDIO

?PR?MONIREGISTERDUMP?COMMANDSHELL               -----    -----      0027H    0002H      -----    -----
  +--> ?CO?COMMANDSHELL
  +--> ?PR?PRINTF?PRINTF
  +--> ?PR?_PCT_READASICBYTE?BUSCTRL

?PR?_PCT_WINATTRCLEAR?TW28XX_VIDEO              -----    -----      -----    -----      00A5H    0003H
  +--> ?PR?TW28XX_VIDEO
  +--> ?PR?_PCT_READASICBYTE?BUSCTRL
BL51 BANKED LINKER/LOCATER V6.22.2.0                                                  07/14/2021  16:13:00  PAGE 10


  +--> ?PR?_PCT_WRITEASICBYTE?BUSCTRL

?PR?TW28XX_VIDEO                                -----    -----      -----    -----      -----    -----
  +--> ?CO?TW28XX_VIDEO

?PR?_MONIVIDEOMIXWIN?COMMANDSHELL               -----    -----      0027H    0002H      -----    -----
  +--> ?PR?COMMANDSHELL
  +--> ?CO?COMMANDSHELL
  +--> ?PR?SCANF?SCANF
  +--> ?PR?_PCT_SETXVIDEOMIXING?TW28XX_VIDEO

?PR?_PCT_SETXVIDEOMIXING?TW28XX_VIDEO           -----    -----      -----    -----      00A5H    0007H
  +--> ?PR?TW28XX_VIDEO
  +--> ?PR?_PCT_WRITEASICBYTE?BUSCTRL
  +--> ?CO?TW28XX_VIDEO
  +--> ?PR?_PCT_SETCHANELSCALE?TW28XX_VIDEO
  +--> ?PR?_PCT_WRITESTABLE?BUSCTRL

?PR?_PCT_SETCHANELSCALE?TW28XX_VIDEO            -----    -----      -----    -----      00ACH    0008H
  +--> ?PR?TW28XX_VIDEO
  +--> ?CO?TW28XX_VIDEO
  +--> ?PR?_PCT_WRITEASICBYTE?BUSCTRL

?PR?_PCT_WRITESTABLE?BUSCTRL                    -----    -----      -----    -----      00ACH    0003H
  +--> ?PR?BUSCTRL
  +--> ?PR?_PCT_READASICBYTE?BUSCTRL
  +--> ?PR?_PCT_WRITEASICBYTE?BUSCTRL

?PR?PCT_SENDACK?COMMANDSHELL                    -----    -----      -----    -----      -----    -----
  +--> ?PR?_RS_TX?UART

?PR?_MONIVIDEOMIXATTR?COMMANDSHELL              -----    -----      0027H    000AH      00A5H    0006H
  +--> ?PR?COMMANDSHELL
  +--> ?PR?_ATOI?ATOI
  +--> ?PR?_PCT_STRTOCOMMCODE?COMMANDSHELL
  +--> ?CO?COMMANDSHELL
  +--> ?PR?_PCT_GETFIRSTSTR?COMMANDSHELL
  +--> ?PR?_PCT_WINATTRCTRL?TW28XX_VIDEO

?PR?_PCT_WINATTRCTRL?TW28XX_VIDEO               -----    -----      -----    -----      00ABH    0003H
  +--> ?PR?TW28XX_VIDEO
  +--> ?PR?_PCT_READASICBYTE?BUSCTRL
  +--> ?PR?_PCT_WRITEASICBYTE?BUSCTRL

?PR?_MONIYVIDEOMIX?COMMANDSHELL                 -----    -----      0027H    0001H      -----    -----
  +--> ?PR?COMMANDSHELL
  +--> ?PR?SCANF?SCANF
  +--> ?PR?_PCT_SETYVIDEOMIXING?TW28XX_VIDEO

?PR?_PCT_SETYVIDEOMIXING?TW28XX_VIDEO           -----    -----      -----    -----      -----    -----
  +--> ?CO?TW28XX_VIDEO
  +--> ?PR?_PCT_WRITESTABLE?BUSCTRL

?PR?MONIVIDEOAUTODETECT?COMMANDSHELL            -----    -----      -----    -----      -----    -----
  +--> ?PR?_PCT_DETECTVIDEOFORMAT?TW28XX_VIDEO
  +--> ?CO?COMMANDSHELL
  +--> ?PR?PRINTF?PRINTF
BL51 BANKED LINKER/LOCATER V6.22.2.0                                                  07/14/2021  16:13:00  PAGE 11



?PR?_MONISETVIDEOFORMAT?COMMANDSHELL            -----    -----      0027H    0008H      00A5H    0006H
  +--> ?PR?COMMANDSHELL
  +--> ?PR?_PCT_GETFIRSTSTR?COMMANDSHELL
  +--> ?PR?_ATOI?ATOI
  +--> ?CO?COMMANDSHELL
  +--> ?PR?_PCT_SETVIDEOFORMAT?TW28XX_VIDEO
  +--> ?PR?SCANF?SCANF

?PR?_PCT_SETVIDEOFORMAT?TW28XX_VIDEO            -----    -----      -----    -----      00ABH    0002H
  +--> ?PR?_PCT_READASICBYTE?BUSCTRL
  +--> ?PR?TW28XX_VIDEO
  +--> ?PR?_PCT_WRITEASICBYTE?BUSCTRL

?PR?_MONISHOWSODSTR?COMMANDSHELL                -----    -----      0027H    0002H      00A5H    0006H
  +--> ?PR?COMMANDSHELL
  +--> ?PR?_ATOI?ATOI
  +--> ?PR?_PCT_PRESETFOREGROUNDCOLOR?OSDCTRL
  +--> ?PR?_PCT_PRESETBACKGROUNDCOLOR?OSDCTRL
  +--> ?PR?_PCT_SETOSDDRAWPAGE?OSDCTRL
  +--> ?PR?_PCT_SHOWOSDSTRING?OSDCTRL
  +--> ?PR?_PCT_ENSHOWOSDPAGE?OSDCTRL
  +--> ?PR?_PCT_GETFIRSTSTR?COMMANDSHELL

?PR?_PCT_SHOWOSDSTRING?OSDCTRL                  -----    -----      -----    -----      00ABH    0007H
  +--> ?PR?OSDCTRL
  +--> ?PR?_STRLEN?STRLEN
  +--> ?PR?_PCT_WRITEOSDFNTX?OSDCTRL
  +--> ?PR?_PCT_WRITEOSDFNTY?OSDCTRL
  +--> ?PR?PTC_SWITCHTOI2CMODE?BUSCTRL

?PR?_PCT_WRITEOSDFNTX?OSDCTRL                   -----    -----      0029H    0003H      00B2H    0013H
  +--> ?PR?OSDCTRL
  +--> ?PR?_PCT_WRITEOSDDATABUFFERX?OSDCTRL
  +--> ?PR?_PCT_WRITEASICBYTE?BUSCTRL
  +--> ?PR?_PCT_READASICBYTE?BUSCTRL

?PR?_PCT_WRITEOSDDATABUFFERX?OSDCTRL            -----    -----      -----    -----      00C5H    0004H
  +--> ?PR?OSDCTRL
  +--> ?PR?_PCT_WRITEASICBYTE?BUSCTRL

?PR?_PCT_WRITEOSDFNTY?OSDCTRL                   -----    -----      0029H    0002H      00B2H    001FH
  +--> ?PR?OSDCTRL
  +--> ?PR?_PCT_WRITEOSDDATABUFFERY?OSDCTRL
  +--> ?PR?_PCT_WRITEASICBYTE?BUSCTRL
  +--> ?PR?_PCT_READASICBYTE?BUSCTRL

?PR?_PCT_WRITEOSDDATABUFFERY?OSDCTRL            -----    -----      -----    -----      00D1H    0004H
  +--> ?PR?OSDCTRL
  +--> ?PR?_PCT_WRITEASICBYTE?BUSCTRL

?PR?_MONIHSCOMM?COMMANDSHELL                    -----    -----      0027H    0003H      -----    -----
  +--> ?PR?COMMANDSHELL
  +--> ?CO?COMMANDSHELL
  +--> ?PR?SCANF?SCANF
  +--> ?PR?_PCT_WINATTRCTRLY?TW28XX_VIDEO
  +--> ?PR?_PCT_RECOMPENSEYHDELAY?TW28XX_VIDEO
BL51 BANKED LINKER/LOCATER V6.22.2.0                                                  07/14/2021  16:13:00  PAGE 12


  +--> ?PR?_PCT_SETVIDEOHDELAY?TW28XX_VIDEO
  +--> ?PR?_PCT_SETXVIDEOMIXING?TW28XX_VIDEO
  +--> ?PR?_PCT_WINATTRCTRL?TW28XX_VIDEO
  +--> ?PR?_PCT_FLASHOSDCTRL?MAIN
  +--> ?PR?_PCT_CHECKVMIXTYPE?COMMANDSHELL
  +--> ?PR?_PCT_DISSHOWOSDPAGE?OSDCTRL
  +--> ?PR?_PCT_CLEAROSDPAGEX?OSDCTRL
  +--> ?PR?PCT_SHOWMODEICON?OSDACTION
  +--> ?PR?_PCT_OSD_ACTIONPTHX?OSDACTION

?PR?_PCT_WINATTRCTRLY?TW28XX_VIDEO              -----    -----      -----    -----      00A5H    0003H
  +--> ?PR?TW28XX_VIDEO
  +--> ?PR?_PCT_READASICBYTE?BUSCTRL
  +--> ?PR?_PCT_WRITEASICBYTE?BUSCTRL

?PR?_PCT_RECOMPENSEYHDELAY?TW28XX_VIDEO         -----    -----      -----    -----      00A5H    0006H
  +--> ?PR?TW28XX_VIDEO
  +--> ?PR?_PCT_READASICBYTE?BUSCTRL
  +--> ?PR?_PCT_WRITEASICBYTE?BUSCTRL

?PR?_PCT_SETVIDEOHDELAY?TW28XX_VIDEO            -----    -----      -----    -----      00A5H    000BH
  +--> ?PR?TW28XX_VIDEO
  +--> ?PR?_PCT_WRITEASICBYTE?BUSCTRL
  +--> ?PR?_PCT_READASICBYTE?BUSCTRL

?PR?_PCT_CHECKVMIXTYPE?COMMANDSHELL             -----    -----      002AH    0001H      -----    -----
  +--> ?PR?COMMANDSHELL

?PR?_PCT_DISSHOWOSDPAGE?OSDCTRL                 -----    -----      -----    -----      00A5H    0001H
  +--> ?PR?OSDCTRL
  +--> ?PR?_PCT_READASICBYTE?BUSCTRL
  +--> ?PR?_PCT_WRITEASICBYTE?BUSCTRL

?PR?_PCT_CLEAROSDPAGEX?OSDCTRL                  -----    -----      -----    -----      -----    -----
  +--> ?PR?_PCT_SETOSDDRAWPAGE?OSDCTRL
  +--> ?PR?_PCT_PRESETBACKGROUNDCOLOR?OSDCTRL
  +--> ?PR?_PCT_FULLCOLORONOSD?OSDCTRL

?PR?PCT_SHOWMODEICON?OSDACTION                  -----    -----      -----    -----      -----    -----
  +--> ?PR?_PCT_SETOSDDRAWPAGE?OSDCTRL
  +--> ?PR?OSDACTION
  +--> ?CO?OSDACTION
  +--> ?PR?_PCT_SHOWGRAPHSTRING?OSD_GRAPH
  +--> ?PR?_PCT_PRESETBACKGROUNDCOLOR?OSDCTRL
  +--> ?PR?_PCT_PRESETFOREGROUNDCOLOR?OSDCTRL

?PR?OSDACTION                                   -----    -----      -----    -----      -----    -----
  +--> ?CO?OSDACTION

?PR?_PCT_SHOWGRAPHSTRING?OSD_GRAPH              -----    -----      -----    -----      00A8H    0007H
  +--> ?PR?OSD_GRAPH
  +--> ?PR?_STRLEN?STRLEN
  +--> ?PR?_PCT_OSD16X16GRAPHX?OSD_GRAPH
  +--> ?PR?PTC_SWITCHTOI2CMODE?BUSCTRL

?PR?_PCT_OSD16X16GRAPHX?OSD_GRAPH               -----    -----      -----    -----      00AFH    000BH
  +--> ?PR?OSD_GRAPH
BL51 BANKED LINKER/LOCATER V6.22.2.0                                                  07/14/2021  16:13:00  PAGE 13


  +--> ?CO?OSD_GRAPH
  +--> ?PR?_PCT_WRITEASICBYTE?BUSCTRL
  +--> ?PR?_PCT_READASICBYTE?BUSCTRL

?PR?_PCT_OSD_ACTIONPTHX?OSDACTION               -----    -----      -----    -----      00A5H    0003H
  +--> ?PR?OSDACTION
  +--> ?PR?_PCT_PRESETFOREGROUNDCOLOR?OSDCTRL
  +--> ?PR?_PCT_PRESETBACKGROUNDCOLOR?OSDCTRL
  +--> ?PR?_PCT_SHOWGRAPHSTRING?OSD_GRAPH

?PR?PCT_AUDIOACTIONFORHS?COMMANDSHELL           -----    -----      0027H    0002H      -----    -----
  +--> ?PR?_PCT_AUDIOSELLIVE?TW28XX_AUDIO
  +--> ?PR?_PCT_AUDIOMIXMUTE?TW28XX_AUDIO

?PR?PCT_OSDACTIONFORHS?OSDACTION                -----    -----      -----    -----      -----    -----
  +--> ?PR?_PCT_SETOSDDRAWPAGE?OSDCTRL
  +--> ?PR?OSDACTION
  +--> ?PR?_PCT_SHOWMIRRORICON?OSDACTION
  +--> ?PR?_PCT_SHOWSPEAKICON?OSDACTION
  +--> ?PR?_PCT_SHOWINDICATEICON?OSDACTION
  +--> ?PR?PCT_ENFALSHVLOSS?OSDACTION
  +--> ?PR?_PCT_ENSHOWOSDPAGE?OSDCTRL

?PR?_PCT_SHOWMIRRORICON?OSDACTION               -----    -----      -----    -----      00A5H    0003H
  +--> ?PR?OSDACTION
  +--> ?PR?_PCT_PRESETFOREGROUNDCOLOR?OSDCTRL
  +--> ?PR?_PCT_CLEARWORDSPATHX?OSDCTRL
  +--> ?PR?_PCT_SHOWGRAPHSTRING?OSD_GRAPH

?PR?_PCT_CLEARWORDSPATHX?OSDCTRL                -----    -----      -----    -----      00A8H    0007H
  +--> ?PR?OSDCTRL
  +--> ?PR?_PCT_WRITEASICBYTE?BUSCTRL
  +--> ?PR?_PCT_READASICBYTE?BUSCTRL

?PR?_PCT_SHOWSPEAKICON?OSDACTION                -----    -----      -----    -----      00A5H    0003H
  +--> ?PR?OSDACTION
  +--> ?PR?_PCT_PRESETFOREGROUNDCOLOR?OSDCTRL
  +--> ?PR?_PCT_CLEARWORDSPATHX?OSDCTRL
  +--> ?PR?_PCT_SHOWGRAPHSTRING?OSD_GRAPH

?PR?_PCT_SHOWINDICATEICON?OSDACTION             -----    -----      0027H    0001H      00A5H    0003H
  +--> ?PR?OSDACTION
  +--> ?PR?_PCT_PRESETFOREGROUNDCOLOR?OSDCTRL
  +--> ?PR?_PCT_CLEARWORDSPATHX?OSDCTRL
  +--> ?PR?_PCT_SHOWGRAPHSTRING?OSD_GRAPH
  +--> ?CO?OSDACTION

?PR?_MONIHSCOMMSJMODE?COMMANDSHELL              -----    -----      -----    -----      -----    -----
  +--> ?PR?COMMANDSHELL
  +--> ?CO?COMMANDSHELL
  +--> ?PR?SCANF?SCANF

?PR?MONIHSCOMMDISSCROLL?COMMANDSHELL            -----    -----      -----    -----      -----    -----
  +--> ?PR?_PCT_ENSHOWOSDPAGE?OSDCTRL

?PR?MONIHSCOMMVERSION?COMMANDSHELL              -----    -----      -----    -----      00A5H    0001H
  +--> ?PR?_RS_TX?UART
BL51 BANKED LINKER/LOCATER V6.22.2.0                                                  07/14/2021  16:13:00  PAGE 14


  +--> ?CO?COMMANDSHELL

?PR?PCT_CHECKSYSTEM?COMMANDSHELL                -----    -----      -----    -----      -----    -----
  +--> ?PR?_PCT_DETECTVIDEOFORMAT?TW28XX_VIDEO
  +--> ?PR?_PCT_ENSHOWOSDPAGE?OSDCTRL
  +--> ?PR?_PCT_CHANGESYSTEMTYPE?TW2835_INIT
  +--> ?PR?_PCT_RECOMPENSEYHDELAY?TW28XX_VIDEO
  +--> ?PR?COMMANDSHELL
  +--> ?PR?_PCT_SETVIDEOHDELAY?TW28XX_VIDEO
  +--> ?PR?_PCT_SETXVIDEOMIXING?TW28XX_VIDEO
  +--> ?PR?_PCT_CLEAROSDPAGEX?OSDCTRL
  +--> ?PR?PCT_SHOWMODEICON?OSDACTION
  +--> ?PR?_PCT_OSD_ACTIONPTHX?OSDACTION
  +--> ?PR?PCT_OSDACTIONFORHS?OSDACTION

?PR?_PCT_CHANGESYSTEMTYPE?TW2835_INIT           -----    -----      -----    -----      009FH    0002H
  +--> ?PR?TW2835_INIT
  +--> ?CO?TW2835_INIT
  +--> ?PR?_PCT_WRITEASICTABLE?BUSCTRL

?PR?PCT_GETVIDEOSIGNALSTATUS?OSDACTION          -----    -----      -----    -----      -----    -----
  +--> ?PR?_PCT_READASICBYTE?BUSCTRL
  +--> ?PR?_PCT_WRITEASICBYTE?BUSCTRL
  +--> ?PR?PCT_SHOWVLOSS?OSDACTION

?PR?PCT_SHOWVLOSS?OSDACTION                     -----    -----      -----    -----      -----    -----
  +--> ?PR?OSDACTION
  +--> ?PR?_PCT_SHOWGRAPHSTRING?OSD_GRAPH
  +--> ?PR?_PCT_CLEARWORDSPATHX?OSDCTRL

*** NEW ROOT ***************************************************

?PR?RS_INTERRUPT?UART                           -----    -----      -----    -----      -----    -----
  +--> ?PR?UART



SYMBOL TABLE OF MODULE:  .\OBJ\TW2835 (?C_STARTUP)

  VALUE           TYPE          NAME
  ----------------------------------

  -------         MODULE        ?C_STARTUP
  C:88A5H         SEGMENT       ?C_C51STARTUP
  I:0036H         SEGMENT       ?STACK
  C:0000H         PUBLIC        ?C_STARTUP
  D:00E0H         SYMBOL        ACC
  D:00F0H         SYMBOL        B
  D:0083H         SYMBOL        DPH
  D:0082H         SYMBOL        DPL
  N:0000H         SYMBOL        IBPSTACK
  N:0100H         SYMBOL        IBPSTACKTOP
  N:0080H         SYMBOL        IDATALEN
  C:88A8H         SYMBOL        IDATALOOP
  N:0000H         SYMBOL        PBPSTACK
  N:0100H         SYMBOL        PBPSTACKTOP
  N:0000H         SYMBOL        PDATALEN
BL51 BANKED LINKER/LOCATER V6.22.2.0                                                  07/14/2021  16:13:00  PAGE 15


  N:0000H         SYMBOL        PDATASTART
  N:0000H         SYMBOL        PPAGE
  N:0000H         SYMBOL        PPAGEENABLE
  D:00A0H         SYMBOL        PPAGE_SFR
  D:0081H         SYMBOL        SP
  C:88A5H         SYMBOL        STARTUP1
  N:0000H         SYMBOL        XBPSTACK
  N:0000H         SYMBOL        XBPSTACKTOP
  N:0000H         SYMBOL        XDATALEN
  N:0000H         SYMBOL        XDATASTART
  C:0000H         LINE#         126
  C:88A5H         LINE#         133
  C:88A7H         LINE#         134
  C:88A8H         LINE#         135
  C:88A9H         LINE#         136
  C:88ABH         LINE#         185
  C:88AEH         LINE#         196
  -------         ENDMOD        ?C_STARTUP

  -------         MODULE        UART
  C:0000H         SYMBOL        _ICE_DUMMY_
  D:0090H         PUBLIC        P1
  D:00B0H         PUBLIC        P3
  C:98BEH         PUBLIC        InitialUART
  D:00A8H         PUBLIC        IE
  X:0000H         PUBLIC        RS_RECVBUF
  B:00A8H.4       PUBLIC        ES
  D:00B8H         PUBLIC        IP
  B:0098H.0       PUBLIC        RI
  B:0098H.1       PUBLIC        TI
  B:00B8H.4       PUBLIC        PS
  D:00D8H         PUBLIC        CCON
  D:0099H         PUBLIC        SBUF
  D:00C0H         PUBLIC        WDTC
  D:0098H         PUBLIC        SCON
  D:0088H         PUBLIC        TCON
  C:98CEH         PUBLIC        RS_RxReady
  D:008DH         PUBLIC        TH1
  D:00E8H         PUBLIC        IEA
  X:0050H         PUBLIC        RsRxRp
  B:0088H.6       PUBLIC        TR1
  X:0051H         PUBLIC        RsRxWp
  D:00F8H         PUBLIC        IPA
  D:00C8H         PUBLIC        T2CON
  C:9808H         PUBLIC        RS_rx
  C:0003H         PUBLIC        _RS_tx
  C:971DH         PUBLIC        RS_interrupt
  D:00D0H         PUBLIC        PSW
  C:990AH         SYMBOL        Com000E
  C:990AH         SYMBOL        L?0015
  -------         PROC          COM000E
  -------         ENDPROC       COM000E
  -------         PROC          INITIALUART
  C:98BEH         LINE#         66
  C:98BEH         LINE#         67
  C:98BEH         LINE#         69
  C:98C0H         LINE#         70
BL51 BANKED LINKER/LOCATER V6.22.2.0                                                  07/14/2021  16:13:00  PAGE 16


  C:98C2H         LINE#         77
  C:98C5H         LINE#         84
  C:98C7H         LINE#         86
  C:98CBH         LINE#         87
  C:98CDH         LINE#         88
  -------         ENDPROC       INITIALUART
  -------         PROC          RS_RXREADY
  C:98CEH         LINE#         94
  C:98CEH         LINE#         95
  C:98CEH         LINE#         96
  C:98DAH         LINE#         97
  C:98DCH         LINE#         98
  -------         ENDPROC       RS_RXREADY
  -------         PROC          RS_RX
  -------         DO            
  D:0007H         SYMBOL        ret
  -------         ENDDO         
  C:9808H         LINE#         104
  C:9808H         LINE#         105
  C:9808H         LINE#         108
  C:980AH         LINE#         112
  C:9812H         LINE#         113
  C:9814H         LINE#         114
  C:9819H         LINE#         115
  C:981BH         LINE#         116
  C:981DH         LINE#         118
  C:981DH         LINE#         119
  -------         ENDPROC       RS_RX
  -------         PROC          _RS_TX
  D:0007H         SYMBOL        tx_buf
  C:0003H         LINE#         125
  C:0003H         LINE#         126
  C:0003H         LINE#         127
  C:0003H         LINE#         128
  C:0006H         LINE#         129
  C:0008H         LINE#         130
  C:000AH         LINE#         131
  C:000AH         LINE#         132
  C:000AH         LINE#         133
  C:000AH         LINE#         134
  -------         ENDPROC       _RS_TX
  -------         PROC          RS_INTERRUPT
  C:971DH         LINE#         140
  C:9724H         LINE#         142
  C:9727H         LINE#         143
  C:9729H         LINE#         147
  C:9732H         LINE#         148
  C:9734H         LINE#         149
  C:973BH         LINE#         161
  C:973BH         LINE#         162
  -------         ENDPROC       RS_INTERRUPT
  -------         ENDMOD        UART

  -------         MODULE        BUSCTRL
  C:0000H         SYMBOL        _ICE_DUMMY_
  D:0080H         PUBLIC        P0
  D:0090H         PUBLIC        P1
BL51 BANKED LINKER/LOCATER V6.22.2.0                                                  07/14/2021  16:13:00  PAGE 17


  D:00B0H         PUBLIC        P3
  B:00A8H.7       PUBLIC        EA
  D:00A8H         PUBLIC        IE
  C:96D3H         PUBLIC        _PCT_PageChange
  C:8DF5H         PUBLIC        _PCT_WriteSTable
  D:00B8H         PUBLIC        IP
  B:0090H.3       PUBLIC        HALE
  B:0090H.2       PUBLIC        HRDB
  D:00D8H         PUBLIC        CCON
  D:00C0H         PUBLIC        WDTC
  B:0090H.1       PUBLIC        HWRB
  D:0098H         PUBLIC        SCON
  D:0088H         PUBLIC        TCON
  C:8931H         PUBLIC        _PCT_WriteAsicTable
  C:9966H         PUBLIC        PTC_SwitchToI2CMode
  D:00E8H         PUBLIC        IEA
  B:00B0H.6       PUBLIC        HCSB0
  B:00B0H.7       PUBLIC        HCSB1
  D:00F8H         PUBLIC        IPA
  C:8AF7H         PUBLIC        _PCT_ReadAsicByte
  D:00C8H         PUBLIC        T2CON
  C:8B5CH         PUBLIC        _PCT_WriteAsicByte
  D:00D0H         PUBLIC        PSW
  C:9740H         SYMBOL        Com002C
  C:9740H         SYMBOL        L?0045
  C:9740H         SYMBOL        L?0046
  C:974BH         SYMBOL        L?0047
  C:974BH         SYMBOL        L?0048
  C:9752H         SYMBOL        L?0049
  C:9752H         SYMBOL        L?0050
  C:975AH         SYMBOL        L?0051
  C:975CH         SYMBOL        L?0052
  -------         PROC          COM002C
  -------         ENDPROC       COM002C
  -------         PROC          _PCT_PAGECHANGE
  D:0007H         SYMBOL        _pg
  -------         DO            
  X:00D9H         SYMBOL        _dvc
  D:0006H         SYMBOL        _addr
  -------         ENDDO         
  C:96D3H         LINE#         66
  C:96D3H         LINE#         67
  C:96D3H         LINE#         68
  C:96D7H         LINE#         69
  C:96D9H         LINE#         71
  C:96DBH         LINE#         73
  C:96DEH         LINE#         77
  C:96E0H         LINE#         78
  C:96E2H         LINE#         80
  C:96E2H         LINE#         81
  C:96E2H         LINE#         82
  C:96E5H         LINE#         83
  C:96E7H         LINE#         84
  C:96E9H         LINE#         85
  C:96EBH         LINE#         87
  C:96EEH         LINE#         88
  C:96F0H         LINE#         89
BL51 BANKED LINKER/LOCATER V6.22.2.0                                                  07/14/2021  16:13:00  PAGE 18


  C:96F2H         LINE#         90
  C:96F5H         LINE#         91
  C:96F7H         LINE#         92
  -------         ENDPROC       _PCT_PAGECHANGE
  -------         PROC          _PCT_WRITEASICBYTE
  D:0007H         SYMBOL        _dvc
  D:0005H         SYMBOL        _pg
  D:0003H         SYMBOL        _addr
  X:00D8H         SYMBOL        _wdat
  C:8B5CH         LINE#         94
  C:8B5CH         LINE#         95
  C:8B5CH         LINE#         96
  C:8B5CH         LINE#         98
  C:8B5CH         LINE#         101
  C:8B61H         LINE#         102
  C:8B66H         LINE#         104
  C:8B66H         LINE#         106
  C:8B6EH         LINE#         107
  C:8B6EH         LINE#         108
  C:8B70H         LINE#         109
  C:8B72H         LINE#         110
  C:8B74H         LINE#         112
  C:8B74H         LINE#         114
  C:8B82H         LINE#         115
  C:8B90H         LINE#         116
  C:8B9CH         LINE#         117
  C:8B9CH         LINE#         119
  C:8B9CH         LINE#         120
  C:8B9CH         LINE#         121
  C:8B9FH         LINE#         122
  C:8BA4H         LINE#         123
  C:8BA6H         LINE#         124
  C:8BA8H         LINE#         126
  C:8BABH         LINE#         128
  C:8BB0H         LINE#         129
  C:8BB0H         LINE#         130
  C:8BB2H         LINE#         131
  C:8BB4H         LINE#         132
  C:8BB6H         LINE#         134
  C:8BB6H         LINE#         135
  C:8BB8H         LINE#         136
  C:8BBAH         LINE#         137
  C:8BBAH         LINE#         138
  C:8BBDH         LINE#         139
  C:8BBFH         LINE#         140
  -------         ENDPROC       _PCT_WRITEASICBYTE
  -------         PROC          _PCT_WRITEASICTABLE
  D:0007H         SYMBOL        _dvc
  D:0005H         SYMBOL        _pg
  D:0004H         SYMBOL        _addr
  X:00AAH         SYMBOL        _tbl_ptr
  X:00ADH         SYMBOL        _tbl_cnt
  C:8931H         LINE#         146
  C:8933H         LINE#         147
  C:8933H         LINE#         148
  C:8933H         LINE#         150
  C:8933H         LINE#         154
BL51 BANKED LINKER/LOCATER V6.22.2.0                                                  07/14/2021  16:13:00  PAGE 19


  C:8938H         LINE#         155
  C:893DH         LINE#         157
  C:893DH         LINE#         159
  C:8944H         LINE#         160
  C:8944H         LINE#         161
  C:8946H         LINE#         162
  C:8948H         LINE#         163
  C:894AH         LINE#         165
  C:894AH         LINE#         167
  C:8956H         LINE#         168
  C:8962H         LINE#         169
  C:896CH         LINE#         170
  C:896CH         LINE#         172
  C:896CH         LINE#         173
  C:8971H         LINE#         175
  C:8973H         LINE#         176
  C:8975H         LINE#         178
  C:898BH         LINE#         179
  C:898DH         LINE#         180
  C:898FH         LINE#         181
  C:8996H         LINE#         185
  C:8996H         LINE#         187
  C:899DH         LINE#         188
  C:899DH         LINE#         189
  C:899FH         LINE#         190
  C:89A1H         LINE#         191
  C:89A3H         LINE#         193
  C:89A3H         LINE#         194
  C:89A5H         LINE#         195
  C:89A7H         LINE#         196
  C:89A7H         LINE#         197
  C:89AAH         LINE#         199
  C:89ACH         LINE#         200
  -------         ENDPROC       _PCT_WRITEASICTABLE
  -------         PROC          _PCT_READASICBYTE
  D:0004H         SYMBOL        _dvc
  D:0005H         SYMBOL        _pg
  D:0003H         SYMBOL        _addr
  -------         DO            
  D:0006H         SYMBOL        _rdat_
  -------         ENDDO         
  C:8AF7H         LINE#         207
  C:8AF9H         LINE#         208
  C:8AF9H         LINE#         211
  C:8AF9H         LINE#         213
  C:8AFEH         LINE#         214
  C:8B03H         LINE#         217
  C:8B03H         LINE#         219
  C:8B03H         LINE#         221
  C:8B0BH         LINE#         222
  C:8B0BH         LINE#         223
  C:8B0DH         LINE#         224
  C:8B0FH         LINE#         225
  C:8B11H         LINE#         227
  C:8B11H         LINE#         229
  C:8B1FH         LINE#         230
  C:8B2DH         LINE#         231
BL51 BANKED LINKER/LOCATER V6.22.2.0                                                  07/14/2021  16:13:00  PAGE 20


  C:8B39H         LINE#         232
  C:8B39H         LINE#         234
  C:8B39H         LINE#         235
  C:8B39H         LINE#         236
  C:8B3CH         LINE#         237
  C:8B3FH         LINE#         238
  C:8B41H         LINE#         239
  C:8B43H         LINE#         240
  C:8B45H         LINE#         242
  C:8B48H         LINE#         244
  C:8B4DH         LINE#         245
  C:8B4DH         LINE#         246
  C:8B4FH         LINE#         247
  C:8B51H         LINE#         248
  C:8B53H         LINE#         250
  C:8B53H         LINE#         251
  C:8B55H         LINE#         252
  C:8B57H         LINE#         253
  C:8B57H         LINE#         255
  C:8B59H         LINE#         256
  C:8B5BH         LINE#         257
  -------         ENDPROC       _PCT_READASICBYTE
  -------         PROC          _PCT_WRITESTABLE
  D:0007H         SYMBOL        _dvc
  X:00ACH         SYMBOL        _tbl_ptr
  C:8DF5H         LINE#         264
  C:8DFFH         LINE#         265
  C:8DFFH         LINE#         269
  C:8DFFH         LINE#         270
  C:8E0DH         LINE#         271
  C:8E2AH         LINE#         272
  C:8E2AH         LINE#         273
  C:8E3EH         LINE#         274
  C:8E3EH         LINE#         275
  C:8E49H         LINE#         276
  C:8E4BH         LINE#         277
  -------         ENDPROC       _PCT_WRITESTABLE
  -------         PROC          PTC_SWITCHTOI2CMODE
  C:9966H         LINE#         283
  C:9966H         LINE#         284
  C:9966H         LINE#         294
  -------         ENDPROC       PTC_SWITCHTOI2CMODE
  -------         ENDMOD        BUSCTRL

  -------         MODULE        COMMANDSHELL
  C:0000H         SYMBOL        _ICE_DUMMY_
  D:0090H         PUBLIC        P1
  D:00B0H         PUBLIC        P3
  C:981EH         PUBLIC        _MoniHSCommSJmode
  C:9523H         PUBLIC        MoniVideoAutoDetect
  C:64E1H         PUBLIC        _PCT_RunCommShell
  C:7ADCH         PUBLIC        _MoniAudioGain
  D:00A8H         PUBLIC        IE
  C:94BDH         PUBLIC        _MoniReadOneBuffer
  D:00B8H         PUBLIC        IP
  C:98ACH         PUBLIC        _MoniYVideoMix
  X:0052H         PUBLIC        sysdat
BL51 BANKED LINKER/LOCATER V6.22.2.0                                                  07/14/2021  16:13:00  PAGE 21


  C:984AH         PUBLIC        _MoniAudioLive
  D:00D8H         PUBLIC        CCON
  C:98DDH         PUBLIC        PCT_SendACK
  C:94F0H         PUBLIC        _MoniWriteOneBuffer
  C:98ECH         PUBLIC        MoniAudioMute
  C:91EEH         PUBLIC        MoniHSCommVersion
  C:80D2H         PUBLIC        _MoniSetVideoFormat
  C:90D8H         PUBLIC        _MoniReadAsicByte
  C:8A8FH         PUBLIC        _PCT_GetFirstStr
  C:8A24H         PUBLIC        PCT_CheckSystem
  D:00C0H         PUBLIC        WDTC
  D:0098H         PUBLIC        SCON
  D:0088H         PUBLIC        TCON
  C:908CH         PUBLIC        _MoniWriteAsicByte
  C:7C19H         PUBLIC        _MoniHSComm
  X:0063H         PUBLIC        msg
  D:00E8H         PUBLIC        IEA
  C:9334H         PUBLIC        _PCT_StrToCommCode
  C:9231H         PUBLIC        _PCT_CheckVMixType
  C:9956H         PUBLIC        MoniHSCommDisScroll
  D:00F8H         PUBLIC        IPA
  C:8CE2H         PUBLIC        _MoniShowSODStr
  C:69F5H         PUBLIC        _MoniVideoMixAttr
  C:9272H         PUBLIC        PCT_AudioActionForHS
  D:00C8H         PUBLIC        T2CON
  C:8E4CH         PUBLIC        _MoniVideoMixWin
  C:91ABH         PUBLIC        _MoniReadPageBuffer
  X:00DAH         PUBLIC        Original_selwintype
  C:903DH         PUBLIC        MoniRegisterDump
  D:00D0H         PUBLIC        PSW
  C:7684H         PUBLIC        _MoniAudioMixing
  C:6C05H         SYMBOL        Com00E8
  C:6C05H         SYMBOL        L?0233
  C:6C06H         SYMBOL        L?0234
  C:6C3CH         SYMBOL        L?0235
  C:6C43H         SYMBOL        L?0236
  C:6C44H         SYMBOL        L?0237
  C:6C7AH         SYMBOL        L?0238
  C:6C81H         SYMBOL        L?0239
  C:6C81H         SYMBOL        L?0240
  C:6C83H         SYMBOL        L?0241
  C:6C8CH         SYMBOL        L?0242
  C:6C8DH         SYMBOL        L?0243
  C:6CADH         SYMBOL        L?0244
  C:6CB4H         SYMBOL        L?0245
  C:6CB4H         SYMBOL        L?0246
  C:6CBFH         SYMBOL        L?0247
  C:6CC6H         SYMBOL        L?0248
  C:6CD6H         SYMBOL        L?0249
  C:6CDDH         SYMBOL        L?0250
  C:6CEDH         SYMBOL        L?0251
  C:6CF4H         SYMBOL        L?0252
  C:6D04H         SYMBOL        L?0253
  C:6D0BH         SYMBOL        L?0254
  C:6D16H         SYMBOL        L?0255
  C:6D1DH         SYMBOL        L?0256
  C:6D28H         SYMBOL        L?0257
BL51 BANKED LINKER/LOCATER V6.22.2.0                                                  07/14/2021  16:13:00  PAGE 22


  C:6D2FH         SYMBOL        L?0258
  C:6D34H         SYMBOL        L?0259
  C:6D3BH         SYMBOL        L?0260
  C:6D40H         SYMBOL        L?0261
  C:6D47H         SYMBOL        L?0263
  C:6D53H         SYMBOL        L?0264
  C:6D54H         SYMBOL        L?0265
  C:6D5BH         SYMBOL        L?0267
  C:6D5BH         SYMBOL        L?0268
  C:6D63H         SYMBOL        L?0269
  C:6D6AH         SYMBOL        L?0270
  C:6D71H         SYMBOL        L?0274
  C:6D71H         SYMBOL        L?0275
  C:6D78H         SYMBOL        L?0276
  C:6D7FH         SYMBOL        L?0280
  C:6D86H         SYMBOL        L?0283
  C:6D8DH         SYMBOL        L?0288
  C:6D94H         SYMBOL        L?0290
  C:6DA3H         SYMBOL        L?0291
  C:6DAAH         SYMBOL        L?0294
  C:6DB1H         SYMBOL        L?0297
  C:6DB8H         SYMBOL        L?0301
  C:6DB8H         SYMBOL        L?0302
  C:6DB9H         SYMBOL        L?0303
  C:6DC1H         SYMBOL        L?0304
  C:6DC1H         SYMBOL        L?0305
  C:6DCBH         SYMBOL        L?0307
  C:6DD2H         SYMBOL        L?0308
  C:6DD3H         SYMBOL        L?0309
  C:6DDAH         SYMBOL        L?0310
  C:6DDAH         SYMBOL        L?0311
  C:6DE1H         SYMBOL        L?0313
  C:6DE1H         SYMBOL        L?0314
  C:6DEAH         SYMBOL        L?0315
  C:6DF7H         SYMBOL        L?0318
  C:6E03H         SYMBOL        L?0320
  C:6E03H         SYMBOL        L?0321
  C:6E09H         SYMBOL        L?0322
  -------         PROC          COM00E8
  -------         ENDPROC       COM00E8
  -------         PROC          _PCT_GETFIRSTSTR
  X:00ABH         SYMBOL        tagStr
  X:00AEH         SYMBOL        sourceStr
  C:8A8FH         LINE#         105
  C:8A94H         LINE#         106
  C:8A94H         LINE#         107
  C:8A9FH         LINE#         108
  C:8AB4H         LINE#         109
  C:8ACAH         LINE#         110
  C:8ACCH         LINE#         111
  C:8ACCH         LINE#         112
  C:8AD8H         LINE#         113
  C:8ADCH         LINE#         114
  C:8AE4H         LINE#         115
  C:8AE7H         LINE#         116
  C:8AEAH         LINE#         117
  C:8AEDH         LINE#         118
BL51 BANKED LINKER/LOCATER V6.22.2.0                                                  07/14/2021  16:13:00  PAGE 23


  C:8AF5H         LINE#         119
  -------         ENDPROC       _PCT_GETFIRSTSTR
  -------         PROC          _PCT_STRTOCOMMCODE
  X:00ABH         SYMBOL        Str
  -------         DO            
  D:0031H         SYMBOL        ret
  -------         ENDDO         
  C:9334H         LINE#         126
  C:9339H         LINE#         127
  C:9339H         LINE#         128
  C:933EH         LINE#         130
  C:936DH         LINE#         131
  C:9371H         LINE#         132
  -------         ENDPROC       _PCT_STRTOCOMMCODE
  -------         PROC          PCT_SENDACK
  C:98DDH         LINE#         138
  C:98DDH         LINE#         139
  C:98DDH         LINE#         140
  C:98E2H         LINE#         141
  C:98E7H         LINE#         142
  -------         ENDPROC       PCT_SENDACK
  -------         PROC          _PCT_CHECKVMIXTYPE
  D:0007H         SYMBOL        _typ
  -------         DO            
  D:002AH         SYMBOL        tmplktp
  -------         ENDDO         
  C:9231H         LINE#         149
  C:9231H         LINE#         150
  C:9231H         LINE#         151
  C:9234H         LINE#         153
  C:9239H         LINE#         154
  C:9240H         LINE#         155
  C:9246H         LINE#         156
  C:9252H         LINE#         158
  C:925EH         LINE#         159
  C:9263H         LINE#         161
  C:9263H         LINE#         162
  C:9268H         LINE#         163
  C:926DH         LINE#         164
  C:9271H         LINE#         165
  -------         ENDPROC       _PCT_CHECKVMIXTYPE
  -------         PROC          _MONIREADPAGEBUFFER
  D:0001H         SYMBOL        szParam
  -------         DO            
  D:0027H         SYMBOL        page
  D:0028H         SYMBOL        start
  D:0029H         SYMBOL        end
  -------         ENDDO         
  C:91ABH         LINE#         175
  C:91ABH         LINE#         176
  C:91ABH         LINE#         179
  C:91D0H         LINE#         181
  C:91D0H         LINE#         182
  C:91E6H         LINE#         183
  C:91E8H         LINE#         184
  C:91EDH         LINE#         185
  -------         ENDPROC       _MONIREADPAGEBUFFER
BL51 BANKED LINKER/LOCATER V6.22.2.0                                                  07/14/2021  16:13:00  PAGE 24


  -------         PROC          _MONIREADONEBUFFER
  D:0001H         SYMBOL        szParam
  -------         DO            
  D:0027H         SYMBOL        page
  D:0028H         SYMBOL        addr
  -------         ENDDO         
  C:94BDH         LINE#         191
  C:94BDH         LINE#         192
  C:94BDH         LINE#         195
  C:94DAH         LINE#         197
  -------         ENDPROC       _MONIREADONEBUFFER
  -------         PROC          _MONIWRITEONEBUFFER
  D:0001H         SYMBOL        szParam
  -------         DO            
  D:0027H         SYMBOL        page
  D:0028H         SYMBOL        addr
  D:0029H         SYMBOL        dat
  -------         ENDDO         
  C:94F0H         LINE#         204
  C:94F0H         LINE#         205
  C:94F0H         LINE#         208
  C:9515H         LINE#         209
  -------         ENDPROC       _MONIWRITEONEBUFFER
  -------         PROC          _MONIWRITEASICBYTE
  D:0001H         SYMBOL        szParam
  -------         DO            
  D:0027H         SYMBOL        _dev
  D:0028H         SYMBOL        _pg
  D:0029H         SYMBOL        _addr
  D:002AH         SYMBOL        _wdat
  -------         ENDDO         
  C:908CH         LINE#         216
  C:908CH         LINE#         217
  C:908CH         LINE#         218
  C:908FH         LINE#         219
  C:9091H         LINE#         220
  C:9093H         LINE#         221
  C:9095H         LINE#         223
  C:90CAH         LINE#         224
  -------         ENDPROC       _MONIWRITEASICBYTE
  -------         PROC          _MONIREADASICBYTE
  D:0001H         SYMBOL        szParam
  -------         DO            
  D:0027H         SYMBOL        _dev
  D:0028H         SYMBOL        _pg
  D:0029H         SYMBOL        _addr
  D:002AH         SYMBOL        _rdat
  -------         ENDDO         
  C:90D8H         LINE#         231
  C:90D8H         LINE#         232
  C:90D8H         LINE#         233
  C:90DBH         LINE#         234
  C:90DDH         LINE#         235
  C:90DFH         LINE#         236
  C:90E1H         LINE#         238
  C:9106H         LINE#         239
  C:9111H         LINE#         240
BL51 BANKED LINKER/LOCATER V6.22.2.0                                                  07/14/2021  16:13:00  PAGE 25


  -------         ENDPROC       _MONIREADASICBYTE
  C:77BFH         SYMBOL        L?0271
  C:77D5H         SYMBOL        L?0284
  C:77EBH         SYMBOL        L?0287
  -------         PROC          _MONIAUDIOMIXING
  X:00A5H         SYMBOL        szParam
  -------         DO            
  D:0027H         SYMBOL        selch0
  D:0028H         SYMBOL        selch1
  D:0029H         SYMBOL        selch2
  D:002AH         SYMBOL        selch3
  D:002BH         SYMBOL        selch4
  D:002CH         SYMBOL        valch0
  D:002DH         SYMBOL        valch1
  D:002EH         SYMBOL        valch2
  D:002FH         SYMBOL        valch3
  D:0030H         SYMBOL        valch4
  X:00A8H         SYMBOL        getStr
  C:64DCH         SYMBOL        chaddr
  -------         ENDDO         
  C:7684H         LINE#         248
  C:7686H         LINE#         249
  C:7686H         LINE#         260
  C:7699H         LINE#         262
  C:76A1H         LINE#         268
  C:76CAH         LINE#         269
  C:76CAH         LINE#         270
  C:76DFH         LINE#         271
  C:76E8H         LINE#         272
  C:76EEH         LINE#         273
  C:76F1H         LINE#         275
  C:76F1H         LINE#         276
  C:7713H         LINE#         278
  C:7713H         LINE#         279
  C:7716H         LINE#         280
  C:7719H         LINE#         281
  C:771CH         LINE#         283
  C:771CH         LINE#         284
  C:7733H         LINE#         286
  C:7733H         LINE#         287
  C:7736H         LINE#         288
  C:773AH         LINE#         289
  C:773DH         LINE#         290
  C:7740H         LINE#         292
  C:7740H         LINE#         293
  C:775AH         LINE#         295
  C:775AH         LINE#         296
  C:775AH         LINE#         297
  C:775AH         LINE#         298
  C:775DH         LINE#         300
  C:7765H         LINE#         301
  C:7768H         LINE#         303
  C:7768H         LINE#         304
  C:7793H         LINE#         306
  C:7793H         LINE#         307
  C:7793H         LINE#         308
  C:7793H         LINE#         309
BL51 BANKED LINKER/LOCATER V6.22.2.0                                                  07/14/2021  16:13:00  PAGE 26


  C:779BH         LINE#         310
  C:77A4H         LINE#         312
  C:77BEH         LINE#         313
  C:77BEH         LINE#         315
  C:77BEH         LINE#         316
  C:77BEH         LINE#         317
  C:77BEH         LINE#         318
  -------         ENDPROC       _MONIAUDIOMIXING
  -------         PROC          MONIAUDIOMUTE
  C:98ECH         LINE#         325
  C:98ECH         LINE#         326
  C:98ECH         LINE#         327
  C:98F4H         LINE#         332
  -------         ENDPROC       MONIAUDIOMUTE
  C:7BE4H         SYMBOL        L?0279
  C:7BFEH         SYMBOL        L?0306
  C:7C0FH         SYMBOL        L?0323
  -------         PROC          _MONIAUDIOGAIN
  X:00A5H         SYMBOL        szParam
  -------         DO            
  D:0027H         SYMBOL        selch0
  D:0028H         SYMBOL        selch1
  D:0029H         SYMBOL        selch2
  D:002AH         SYMBOL        selch3
  D:002BH         SYMBOL        selch4
  D:002CH         SYMBOL        ch0val
  D:002DH         SYMBOL        ch1val
  D:002EH         SYMBOL        ch2val
  D:002FH         SYMBOL        ch3val
  D:0030H         SYMBOL        ch4val
  X:00A8H         SYMBOL        getStr
  -------         ENDDO         
  C:7ADCH         LINE#         340
  C:7ADEH         LINE#         341
  C:7ADEH         LINE#         346
  C:7AF1H         LINE#         348
  C:7B17H         LINE#         349
  C:7B17H         LINE#         350
  C:7B2CH         LINE#         351
  C:7B30H         LINE#         352
  C:7B33H         LINE#         354
  C:7B33H         LINE#         355
  C:7B55H         LINE#         357
  C:7B55H         LINE#         358
  C:7B58H         LINE#         359
  C:7B5BH         LINE#         361
  C:7B5BH         LINE#         362
  C:7B72H         LINE#         364
  C:7B72H         LINE#         365
  C:7B72H         LINE#         366
  C:7B75H         LINE#         367
  C:7B78H         LINE#         369
  C:7B78H         LINE#         370
  C:7B92H         LINE#         372
  C:7B92H         LINE#         373
  C:7B92H         LINE#         374
  C:7B95H         LINE#         375
BL51 BANKED LINKER/LOCATER V6.22.2.0                                                  07/14/2021  16:13:00  PAGE 27


  C:7B98H         LINE#         376
  C:7B9BH         LINE#         378
  C:7B9BH         LINE#         379
  C:7BC6H         LINE#         381
  C:7BC6H         LINE#         382
  C:7BCEH         LINE#         383
  C:7BD2H         LINE#         384
  C:7BDAH         LINE#         385
  C:7BE3H         LINE#         386
  C:7BE3H         LINE#         388
  C:7BE3H         LINE#         389
  C:7BE3H         LINE#         390
  C:7BE3H         LINE#         391
  -------         ENDPROC       _MONIAUDIOGAIN
  -------         PROC          _MONIAUDIOLIVE
  D:0001H         SYMBOL        szParam
  -------         DO            
  D:0027H         SYMBOL        chan
  -------         ENDDO         
  C:984AH         LINE#         398
  C:984AH         LINE#         399
  C:984AH         LINE#         402
  C:9857H         LINE#         404
  -------         ENDPROC       _MONIAUDIOLIVE
  -------         PROC          MONIREGISTERDUMP
  -------         DO            
  D:0027H         SYMBOL        addr
  D:0028H         SYMBOL        page
  -------         ENDDO         
  C:903DH         LINE#         411
  C:903DH         LINE#         412
  C:903DH         LINE#         416
  C:904BH         LINE#         417
  C:9059H         LINE#         418
  C:905CH         LINE#         419
  C:905CH         LINE#         420
  C:9072H         LINE#         421
  C:9074H         LINE#         422
  C:9083H         LINE#         423
  C:9087H         LINE#         424
  C:908BH         LINE#         425
  -------         ENDPROC       MONIREGISTERDUMP
  -------         PROC          _MONIVIDEOMIXWIN
  D:0001H         SYMBOL        szParam
  -------         DO            
  D:0027H         SYMBOL        chose
  D:0028H         SYMBOL        wintp
  -------         ENDDO         
  C:8E4CH         LINE#         431
  C:8E4CH         LINE#         432
  C:8E4CH         LINE#         435
  C:8E8EH         LINE#         437
  C:8E9BH         LINE#         438
  -------         ENDPROC       _MONIVIDEOMIXWIN
  C:6BC3H         SYMBOL        L?0278
  C:6BCAH         SYMBOL        L?0282
  C:6BD1H         SYMBOL        L?0286
BL51 BANKED LINKER/LOCATER V6.22.2.0                                                  07/14/2021  16:13:00  PAGE 28


  C:6BD8H         SYMBOL        L?0292
  C:6BDFH         SYMBOL        L?0293
  C:6BF0H         SYMBOL        L?0296
  C:6BF7H         SYMBOL        L?0299
  C:6BFEH         SYMBOL        L?0316
  -------         PROC          _MONIVIDEOMIXATTR
  X:00A5H         SYMBOL        szParam
  -------         DO            
  D:0027H         SYMBOL        chose
  D:0029H         SYMBOL        attrsel
  D:002AH         SYMBOL        setval
  D:002BH         SYMBOL        winNm
  D:002FH         SYMBOL        wincnt
  D:0030H         SYMBOL        division
  X:00A8H         SYMBOL        getStr
  -------         ENDDO         
  C:69F5H         LINE#         445
  C:69FAH         LINE#         446
  C:69FAH         LINE#         449
  C:69FDH         LINE#         453
  C:6A03H         LINE#         454
  C:6A0DH         LINE#         456
  C:6A13H         LINE#         457
  C:6A1FH         LINE#         459
  C:6A2DH         LINE#         460
  C:6A30H         LINE#         461
  C:6A30H         LINE#         462
  C:6A41H         LINE#         463
  C:6A44H         LINE#         464
  C:6A44H         LINE#         465
  C:6A55H         LINE#         466
  C:6A58H         LINE#         467
  C:6A58H         LINE#         468
  C:6A68H         LINE#         469
  C:6A6BH         LINE#         470
  C:6A6BH         LINE#         471
  C:6A7BH         LINE#         472
  C:6A7EH         LINE#         473
  C:6A7EH         LINE#         474
  C:6A8EH         LINE#         475
  C:6A91H         LINE#         476
  C:6A91H         LINE#         477
  C:6AA1H         LINE#         478
  C:6AA4H         LINE#         479
  C:6AA4H         LINE#         480
  C:6AB4H         LINE#         481
  C:6AB7H         LINE#         482
  C:6ABAH         LINE#         483
  C:6ACBH         LINE#         484
  C:6ACEH         LINE#         485
  C:6ACEH         LINE#         486
  C:6ADFH         LINE#         487
  C:6AE2H         LINE#         488
  C:6AE2H         LINE#         489
  C:6AF2H         LINE#         490
  C:6AF5H         LINE#         491
  C:6AF5H         LINE#         492
BL51 BANKED LINKER/LOCATER V6.22.2.0                                                  07/14/2021  16:13:00  PAGE 29


  C:6B05H         LINE#         493
  C:6B08H         LINE#         494
  C:6B08H         LINE#         495
  C:6B18H         LINE#         496
  C:6B1BH         LINE#         497
  C:6B1BH         LINE#         498
  C:6B2BH         LINE#         499
  C:6B2EH         LINE#         500
  C:6B2EH         LINE#         501
  C:6B41H         LINE#         502
  C:6B44H         LINE#         503
  C:6B47H         LINE#         504
  C:6B5CH         LINE#         505
  C:6B5FH         LINE#         506
  C:6B61H         LINE#         507
  C:6B61H         LINE#         509
  C:6B61H         LINE#         511
  C:6B77H         LINE#         512
  C:6B94H         LINE#         513
  C:6B94H         LINE#         514
  C:6BA5H         LINE#         515
  C:6BA7H         LINE#         516
  C:6BA7H         LINE#         517
  C:6BA9H         LINE#         518
  C:6BADH         LINE#         519
  C:6BB7H         LINE#         520
  C:6BBEH         LINE#         521
  C:6BBEH         LINE#         522
  C:6BC2H         LINE#         523
  -------         ENDPROC       _MONIVIDEOMIXATTR
  -------         PROC          _MONIYVIDEOMIX
  D:0001H         SYMBOL        szParam
  -------         DO            
  D:0027H         SYMBOL        chan
  -------         ENDDO         
  C:98ACH         LINE#         530
  C:98ACH         LINE#         531
  C:98ACH         LINE#         534
  C:98B9H         LINE#         535
  -------         ENDPROC       _MONIYVIDEOMIX
  -------         PROC          MONIVIDEOAUTODETECT
  C:9523H         LINE#         542
  C:9523H         LINE#         543
  C:9523H         LINE#         544
  -------         ENDPROC       MONIVIDEOAUTODETECT
  C:81BFH         SYMBOL        L?0273
  C:81DDH         SYMBOL        L?0319
  -------         PROC          _MONISETVIDEOFORMAT
  X:00A5H         SYMBOL        szParam
  -------         DO            
  D:0027H         SYMBOL        selch0
  D:0028H         SYMBOL        selch1
  D:0029H         SYMBOL        selch2
  D:002AH         SYMBOL        selch3
  D:002BH         SYMBOL        valch0
  D:002CH         SYMBOL        valch1
  D:002DH         SYMBOL        valch2
BL51 BANKED LINKER/LOCATER V6.22.2.0                                                  07/14/2021  16:13:00  PAGE 30


  D:002EH         SYMBOL        valch3
  X:00A8H         SYMBOL        getStr
  -------         ENDDO         
  C:80D2H         LINE#         556
  C:80D4H         LINE#         557
  C:80D4H         LINE#         562
  C:80E7H         LINE#         564
  C:8107H         LINE#         565
  C:8107H         LINE#         566
  C:811EH         LINE#         567
  C:8121H         LINE#         568
  C:8124H         LINE#         570
  C:8124H         LINE#         571
  C:813BH         LINE#         573
  C:8143H         LINE#         574
  C:814BH         LINE#         575
  C:814EH         LINE#         577
  C:814EH         LINE#         578
  C:8168H         LINE#         580
  C:8168H         LINE#         581
  C:816BH         LINE#         582
  C:8173H         LINE#         583
  C:8176H         LINE#         585
  C:8176H         LINE#         586
  C:81A1H         LINE#         588
  C:81A1H         LINE#         589
  C:81A4H         LINE#         590
  C:81B1H         LINE#         591
  C:81BEH         LINE#         592
  C:81BEH         LINE#         594
  C:81BEH         LINE#         595
  C:81BEH         LINE#         596
  C:81BEH         LINE#         597
  -------         ENDPROC       _MONISETVIDEOFORMAT
  C:8D2CH         SYMBOL        L?0300
  -------         PROC          _MONISHOWSODSTR
  X:00A5H         SYMBOL        szParam
  -------         DO            
  D:0027H         SYMBOL        addrx
  D:0028H         SYMBOL        addry
  X:00A8H         SYMBOL        getStr
  -------         ENDDO         
  C:8CE2H         LINE#         603
  C:8CE4H         LINE#         604
  C:8CE4H         LINE#         608
  C:8CE7H         LINE#         609
  C:8CF2H         LINE#         610
  C:8CF5H         LINE#         611
  C:8D00H         LINE#         613
  C:8D05H         LINE#         614
  C:8D0AH         LINE#         615
  C:8D0FH         LINE#         616
  C:8D27H         LINE#         617
  C:8D2CH         LINE#         618
  -------         ENDPROC       _MONISHOWSODSTR
  -------         PROC          PCT_AUDIOACTIONFORHS
  -------         DO            
BL51 BANKED LINKER/LOCATER V6.22.2.0                                                  07/14/2021  16:13:00  PAGE 31


  D:0027H         SYMBOL        winid
  D:0028H         SYMBOL        muteFlage
  -------         ENDDO         
  C:9272H         LINE#         624
  C:9272H         LINE#         625
  C:9272H         LINE#         627
  C:9275H         LINE#         630
  C:9283H         LINE#         631
  C:928CH         LINE#         632
  C:9298H         LINE#         633
  C:929BH         LINE#         634
  C:929BH         LINE#         635
  C:929FH         LINE#         637
  C:92A3H         LINE#         639
  C:92ABH         LINE#         644
  C:92B2H         LINE#         645
  C:92B2H         LINE#         647
  -------         ENDPROC       PCT_AUDIOACTIONFORHS
  -------         PROC          _MONIHSCOMM
  D:0001H         SYMBOL        szParam
  -------         DO            
  D:0027H         SYMBOL        winid
  D:0028H         SYMBOL        chose
  D:0029H         SYMBOL        wintp
  -------         ENDDO         
  C:7C19H         LINE#         654
  C:7C19H         LINE#         658
  C:7C83H         LINE#         661
  C:7C9DH         LINE#         665
  C:7CA5H         LINE#         666
  C:7CADH         LINE#         667
  C:7CB6H         LINE#         668
  C:7CBFH         LINE#         670
  C:7CC9H         LINE#         671
  C:7CD3H         LINE#         672
  C:7CDDH         LINE#         673
  C:7CE7H         LINE#         678
  C:7CF0H         LINE#         679
  C:7CF8H         LINE#         681
  C:7D02H         LINE#         683
  C:7D10H         LINE#         684
  C:7D21H         LINE#         688
  C:7D26H         LINE#         689
  C:7D2BH         LINE#         690
  C:7D30H         LINE#         691
  C:7D37H         LINE#         692
  C:7D3CH         LINE#         693
  C:7D41H         LINE#         694
  C:7D44H         LINE#         695
  C:7D4DH         LINE#         696
  C:7D54H         LINE#         698
  -------         ENDPROC       _MONIHSCOMM
  -------         PROC          PCT_CHECKSYSTEM
  -------         DO            
  D:0007H         SYMBOL        TempSystem
  -------         ENDDO         
  C:8A24H         LINE#         704
BL51 BANKED LINKER/LOCATER V6.22.2.0                                                  07/14/2021  16:13:00  PAGE 32


  C:8A24H         LINE#         705
  C:8A24H         LINE#         708
  C:8A29H         LINE#         710
  C:8A35H         LINE#         711
  C:8A37H         LINE#         712
  C:8A3DH         LINE#         713
  C:8A3FH         LINE#         715
  C:8A43H         LINE#         718
  C:8A52H         LINE#         720
  C:8A57H         LINE#         722
  C:8A5EH         LINE#         723
  C:8A67H         LINE#         724
  C:8A6FH         LINE#         726
  C:8A79H         LINE#         729
  C:8A7EH         LINE#         730
  C:8A81H         LINE#         731
  C:8A8AH         LINE#         732
  C:8A8DH         LINE#         734
  C:8A8EH         LINE#         735
  -------         ENDPROC       PCT_CHECKSYSTEM
  -------         PROC          _MONIHSCOMMSJMODE
  D:0001H         SYMBOL        szParam
  C:981EH         LINE#         741
  C:981EH         LINE#         742
  C:981EH         LINE#         743
  -------         ENDPROC       _MONIHSCOMMSJMODE
  -------         PROC          MONIHSCOMMDISSCROLL
  C:9956H         LINE#         750
  C:9956H         LINE#         751
  C:9956H         LINE#         752
  -------         ENDPROC       MONIHSCOMMDISSCROLL
  C:9227H         SYMBOL        L?0317
  -------         PROC          MONIHSCOMMVERSION
  -------         DO            
  X:00A5H         SYMBOL        version
  -------         ENDDO         
  C:91EEH         LINE#         760
  C:91EEH         LINE#         761
  C:91EEH         LINE#         762
  C:91F2H         LINE#         765
  C:91F7H         LINE#         772
  C:91FAH         LINE#         773
  C:91FEH         LINE#         774
  C:9209H         LINE#         775
  C:920EH         LINE#         777
  C:9217H         LINE#         778
  C:9217H         LINE#         779
  C:921AH         LINE#         780
  C:921CH         LINE#         781
  C:921EH         LINE#         783
  C:921EH         LINE#         784
  C:9221H         LINE#         785
  C:9226H         LINE#         786
  C:9226H         LINE#         788
  -------         ENDPROC       MONIHSCOMMVERSION
  C:672AH         SYMBOL        L?0262
  C:6731H         SYMBOL        L?0266
BL51 BANKED LINKER/LOCATER V6.22.2.0                                                  07/14/2021  16:13:00  PAGE 33


  C:6738H         SYMBOL        L?0272
  C:673FH         SYMBOL        L?0277
  C:6746H         SYMBOL        L?0281
  C:674DH         SYMBOL        L?0285
  C:6754H         SYMBOL        L?0289
  C:675BH         SYMBOL        L?0295
  C:6762H         SYMBOL        L?0298
  C:6769H         SYMBOL        L?0312
  C:6770H         SYMBOL        L?0324
  -------         PROC          _PCT_RUNCOMMSHELL
  X:009FH         SYMBOL        strptr
  -------         DO            
  D:0025H         SYMBOL        commcode
  X:00A2H         SYMBOL        getStr
  -------         ENDDO         
  C:64E1H         LINE#         802
  C:64E3H         LINE#         803
  C:64E3H         LINE#         809
  C:64F6H         LINE#         812
  C:6502H         LINE#         814
  C:6510H         LINE#         816
  C:6516H         LINE#         817
  C:6527H         LINE#         819
  C:652DH         LINE#         820
  C:653EH         LINE#         822
  C:6544H         LINE#         823
  C:6555H         LINE#         826
  C:655BH         LINE#         827
  C:656CH         LINE#         830
  C:6572H         LINE#         831
  C:6583H         LINE#         834
  C:6589H         LINE#         835
  C:659AH         LINE#         838
  C:659DH         LINE#         839
  C:65AEH         LINE#         842
  C:65B1H         LINE#         843
  C:65C2H         LINE#         846
  C:65C8H         LINE#         847
  C:65D9H         LINE#         850
  C:65DFH         LINE#         851
  C:65F0H         LINE#         854
  C:65F3H         LINE#         855
  C:6604H         LINE#         858
  C:6609H         LINE#         859
  C:660FH         LINE#         860
  C:6612H         LINE#         861
  C:6623H         LINE#         864
  C:6629H         LINE#         865
  C:663AH         LINE#         868
  C:6640H         LINE#         869
  C:6651H         LINE#         871
  C:6654H         LINE#         873
  C:665AH         LINE#         874
  C:666BH         LINE#         877
  C:666EH         LINE#         878
  C:667FH         LINE#         881
  C:6682H         LINE#         882
BL51 BANKED LINKER/LOCATER V6.22.2.0                                                  07/14/2021  16:13:00  PAGE 34


  C:6693H         LINE#         885
  C:6699H         LINE#         886
  C:66AAH         LINE#         889
  C:66B0H         LINE#         891
  C:66C1H         LINE#         892
  C:66C4H         LINE#         894
  C:66CAH         LINE#         896
  C:66CDH         LINE#         897
  C:66D0H         LINE#         898
  C:66D5H         LINE#         902
  C:66DAH         LINE#         903
  C:66DFH         LINE#         906
  C:66EFH         LINE#         907
  C:66F2H         LINE#         909
  C:66F8H         LINE#         910
  C:6708H         LINE#         911
  C:670BH         LINE#         913
  C:670EH         LINE#         914
  C:6721H         LINE#         915
  C:6724H         LINE#         917
  C:6727H         LINE#         920
  C:6727H         LINE#         921
  C:6727H         LINE#         924
  C:6729H         LINE#         925
  -------         ENDPROC       _PCT_RUNCOMMSHELL
  -------         ENDMOD        COMMANDSHELL

  -------         MODULE        MAIN
  C:0000H         SYMBOL        _ICE_DUMMY_
  C:941EH         PUBLIC        _PutsP
  D:00B1H         PUBLIC        P3M0
  D:0090H         PUBLIC        P1
  D:00B2H         PUBLIC        P3M1
  D:00B0H         PUBLIC        P3
  B:00A8H.7       PUBLIC        EA
  X:006BH         PUBLIC        RScommand
  D:00A8H         PUBLIC        IE
  B:0024H.1       PUBLIC        VlossFlag
  D:00B8H         PUBLIC        IP
  B:0098H.1       PUBLIC        TI
  D:00D8H         PUBLIC        CCON
  C:89ADH         PUBLIC        main
  C:9834H         PUBLIC        ResetCommSell
  D:0020H         PUBLIC        commFlag
  D:0087H         PUBLIC        PCON
  D:00C0H         PUBLIC        WDTC
  D:0098H         PUBLIC        SCON
  D:0089H         PUBLIC        TMOD
  D:0088H         PUBLIC        TCON
  C:9936H         PUBLIC        NewLine
  C:993FH         PUBLIC        _PCT_FlashOSDCtrl
  C:8F49H         PUBLIC        CommandShell
  C:9763H         PUBLIC        InitialMPU
  B:0020H.0       PUBLIC        comm_chk_flag
  D:00E8H         PUBLIC        IEA
  C:9587H         PUBLIC        _chkStartCommShell
  C:911FH         PUBLIC        _Wait_ms
BL51 BANKED LINKER/LOCATER V6.22.2.0                                                  07/14/2021  16:13:00  PAGE 35


  C:9921H         PUBLIC        InitialCommShell
  D:00F8H         PUBLIC        IPA
  B:0020H.1       PUBLIC        osd_chk_flag
  D:00C8H         PUBLIC        T2CON
  X:0096H         PUBLIC        _delay
  D:00D0H         PUBLIC        PSW
  -------         PROC          COMMANDSHELL
  -------         DO            
  D:0025H         SYMBOL        ch
  -------         ENDDO         
  C:8F49H         LINE#         74
  C:8F49H         LINE#         79
  C:8F56H         LINE#         80
  C:8F5BH         LINE#         81
  C:8F61H         LINE#         83
  C:8F6BH         LINE#         84
  C:8F6BH         LINE#         85
  C:8F73H         LINE#         86
  C:8F77H         LINE#         87
  C:8F80H         LINE#         88
  C:8F86H         LINE#         89
  C:8F86H         LINE#         91
  C:8F86H         LINE#         92
  C:8F8BH         LINE#         93
  C:8F8CH         LINE#         95
  C:8F8CH         LINE#         96
  C:8F95H         LINE#         97
  C:8F9AH         LINE#         98
  C:8F9AH         LINE#         99
  C:8F9AH         LINE#         100
  C:8F9AH         LINE#         102
  -------         ENDPROC       COMMANDSHELL
  -------         PROC          NEWLINE
  C:9936H         LINE#         108
  C:9936H         LINE#         109
  C:9936H         LINE#         110
  -------         ENDPROC       NEWLINE
  -------         PROC          _PUTSP
  X:009FH         SYMBOL        ptr
  -------         DO            
  D:0025H         SYMBOL        ch
  -------         ENDDO         
  C:941EH         LINE#         117
  C:9428H         LINE#         118
  C:9428H         LINE#         121
  C:9437H         LINE#         122
  C:944DH         LINE#         123
  C:9451H         LINE#         124
  C:9453H         LINE#         125
  -------         ENDPROC       _PUTSP
  -------         PROC          RESETCOMMSELL
  C:9834H         LINE#         131
  C:9834H         LINE#         132
  C:9834H         LINE#         133
  C:9840H         LINE#         135
  C:9844H         LINE#         136
  C:9846H         LINE#         137
BL51 BANKED LINKER/LOCATER V6.22.2.0                                                  07/14/2021  16:13:00  PAGE 36


  C:9849H         LINE#         138
  -------         ENDPROC       RESETCOMMSELL
  -------         PROC          _PCT_FLASHOSDCTRL
  D:0007H         SYMBOL        _on
  C:993FH         LINE#         144
  C:993FH         LINE#         145
  C:993FH         LINE#         146
  C:9945H         LINE#         147
  C:9947H         LINE#         148
  -------         ENDPROC       _PCT_FLASHOSDCTRL
  -------         PROC          INITIALCOMMSHELL
  C:9921H         LINE#         154
  C:9921H         LINE#         155
  C:9921H         LINE#         156
  C:9923H         LINE#         157
  C:9925H         LINE#         160
  C:9927H         LINE#         161
  C:992BH         LINE#         162
  -------         ENDPROC       INITIALCOMMSHELL
  -------         PROC          _CHKSTARTCOMMSHELL
  X:009FH         SYMBOL        ptr
  C:9587H         LINE#         168
  C:9591H         LINE#         169
  C:9591H         LINE#         170
  C:9594H         LINE#         171
  C:95B4H         LINE#         172
  -------         ENDPROC       _CHKSTARTCOMMSHELL
  -------         PROC          _WAIT_MS
  X:00A5H         SYMBOL        Tms
  -------         DO            
  X:00A7H         SYMBOL        count
  -------         ENDDO         
  C:911FH         LINE#         174
  C:9126H         LINE#         175
  C:9126H         LINE#         187
  C:912FH         LINE#         188
  C:912FH         LINE#         189
  C:9157H         LINE#         190
  C:9162H         LINE#         191
  C:9164H         LINE#         192
  -------         ENDPROC       _WAIT_MS
  -------         PROC          MAIN
  -------         DO            
  X:009CH         SYMBOL        Counter
  X:009DH         SYMBOL        OsdCount1
  X:009EH         SYMBOL        OsdCount2
  -------         ENDDO         
  C:89ADH         LINE#         198
  C:89ADH         LINE#         199
  C:89ADH         LINE#         200
  C:89B1H         LINE#         201
  C:89B5H         LINE#         202
  C:89B9H         LINE#         205
  C:89BCH         LINE#         206
  C:89BFH         LINE#         207
  C:89C2H         LINE#         208
  C:89C5H         LINE#         210
BL51 BANKED LINKER/LOCATER V6.22.2.0                                                  07/14/2021  16:13:00  PAGE 37


  C:89C8H         LINE#         213
  C:89C8H         LINE#         214
  C:89CBH         LINE#         215
  C:89DBH         LINE#         216
  C:89E5H         LINE#         237
  C:89E8H         LINE#         238
  C:89E8H         LINE#         239
  C:89EDH         LINE#         240
  C:89EFH         LINE#         241
  C:89EFH         LINE#         244
  C:89FDH         LINE#         245
  C:8A05H         LINE#         249
  C:8A09H         LINE#         250
  C:8A11H         LINE#         251
  C:8A11H         LINE#         252
  C:8A19H         LINE#         253
  C:8A1CH         LINE#         254
  C:8A22H         LINE#         255
  C:8A22H         LINE#         256
  -------         ENDPROC       MAIN
  -------         PROC          INITIALMPU
  C:9763H         LINE#         265
  C:9763H         LINE#         267
  C:9766H         LINE#         268
  C:9768H         LINE#         271
  C:976BH         LINE#         278
  C:976DH         LINE#         279
  C:9770H         LINE#         282
  C:9772H         LINE#         284
  C:9775H         LINE#         288
  C:9777H         LINE#         289
  C:977AH         LINE#         291
  C:977DH         LINE#         292
  C:9780H         LINE#         294
  C:9782H         LINE#         295
  C:9784H         LINE#         296
  C:9785H         LINE#         297
  -------         ENDPROC       INITIALMPU
  -------         ENDMOD        MAIN

  -------         MODULE        OSD_GRAPH
  C:0000H         SYMBOL        _ICE_DUMMY_
  D:0090H         PUBLIC        P1
  D:00B0H         PUBLIC        P3
  D:00A8H         PUBLIC        IE
  D:00B8H         PUBLIC        IP
  D:00D8H         PUBLIC        CCON
  C:2168H         PUBLIC        GRAPH16_TABLE
  D:00C0H         PUBLIC        WDTC
  D:0098H         PUBLIC        SCON
  D:0088H         PUBLIC        TCON
  C:0026H         PUBLIC        GRAPH_TABLE
  C:6FEDH         PUBLIC        _PCT_OSD16x16GraphX
  C:995BH         PUBLIC        PCT_ClearGraphAttr
  D:00E8H         PUBLIC        IEA
  X:0098H         PUBLIC        graphattr
  D:00F8H         PUBLIC        IPA
BL51 BANKED LINKER/LOCATER V6.22.2.0                                                  07/14/2021  16:13:00  PAGE 38


  C:8D3FH         PUBLIC        _PCT_ShowGraphString
  D:00C8H         PUBLIC        T2CON
  D:00D0H         PUBLIC        PSW
  C:8F9BH         SYMBOL        Com0022
  C:8F9BH         SYMBOL        L?0035
  C:8FA5H         SYMBOL        L?0036
  C:8FA8H         SYMBOL        L?0037
  C:8FB1H         SYMBOL        L?0039
  C:8FC6H         SYMBOL        L?0040
  C:8FC8H         SYMBOL        L?0041
  C:8FD1H         SYMBOL        L?0042
  C:8FE3H         SYMBOL        L?0043
  C:8FE6H         SYMBOL        L?0044
  -------         PROC          COM0022
  -------         ENDPROC       COM0022
  -------         PROC          PCT_CLEARGRAPHATTR
  C:995BH         LINE#         74
  C:995BH         LINE#         75
  C:995BH         LINE#         76
  C:995FH         LINE#         77
  -------         ENDPROC       PCT_CLEARGRAPHATTR
  C:715DH         SYMBOL        L?0033
  C:7184H         SYMBOL        L?0038
  C:718CH         SYMBOL        L?0045
  C:7194H         SYMBOL        L?0046
  C:719FH         SYMBOL        L?0047
  -------         PROC          _PCT_OSD16X16GRAPHX
  X:00AFH         SYMBOL        _posx
  X:00B0H         SYMBOL        _posy
  D:0003H         SYMBOL        _indx
  -------         DO            
  X:00B2H         SYMBOL        row
  X:00B3H         SYMBOL        column
  X:00B4H         SYMBOL        cntr
  X:00B5H         SYMBOL        cntc
  X:00B6H         SYMBOL        posx
  X:00B7H         SYMBOL        graph
  -------         ENDDO         
  C:6FEDH         LINE#         98
  C:6FF7H         LINE#         99
  C:6FF7H         LINE#         103
  C:6FFEH         LINE#         104
  C:7005H         LINE#         105
  C:701AH         LINE#         107
  C:7021H         LINE#         108
  C:7021H         LINE#         109
  C:7059H         LINE#         111
  C:7060H         LINE#         113
  C:7065H         LINE#         114
  C:7067H         LINE#         116
  C:7067H         LINE#         117
  C:706FH         LINE#         118
  C:706FH         LINE#         120
  C:708CH         LINE#         121
  C:7091H         LINE#         122
  C:7097H         LINE#         124
  C:70A8H         LINE#         125
BL51 BANKED LINKER/LOCATER V6.22.2.0                                                  07/14/2021  16:13:00  PAGE 39


  C:70B9H         LINE#         126
  C:70CAH         LINE#         127
  C:70D5H         LINE#         128
  C:70E0H         LINE#         129
  C:70EEH         LINE#         130
  C:70F8H         LINE#         131
  C:7100H         LINE#         133
  C:7108H         LINE#         134
  C:7112H         LINE#         136
  C:7121H         LINE#         137
  C:7124H         LINE#         138
  C:712AH         LINE#         140
  C:7133H         LINE#         141
  C:7136H         LINE#         142
  C:713CH         LINE#         144
  C:7141H         LINE#         145
  C:7149H         LINE#         146
  C:714FH         LINE#         147
  C:7154H         LINE#         148
  C:715CH         LINE#         149
  -------         ENDPROC       _PCT_OSD16X16GRAPHX
  -------         PROC          _PCT_SHOWGRAPHSTRING
  X:00A8H         SYMBOL        _path
  X:00A9H         SYMBOL        _addrx
  X:00AAH         SYMBOL        _addry
  X:00ABH         SYMBOL        _strptr
  -------         DO            
  X:00AEH         SYMBOL        slen
  -------         ENDDO         
  C:8D3FH         LINE#         155
  C:8D49H         LINE#         156
  C:8D49H         LINE#         159
  C:8D54H         LINE#         160
  C:8D5EH         LINE#         162
  C:8D67H         LINE#         166
  C:8D67H         LINE#         167
  C:8D67H         LINE#         168
  C:8D7BH         LINE#         169
  C:8D80H         LINE#         170
  C:8D84H         LINE#         171
  C:8D8AH         LINE#         172
  C:8D8FH         LINE#         173
  C:8D91H         LINE#         174
  C:8D91H         LINE#         175
  C:8D96H         LINE#         176
  C:8D96H         LINE#         177
  C:8D99H         LINE#         179
  -------         ENDPROC       _PCT_SHOWGRAPHSTRING
  -------         ENDMOD        OSD_GRAPH

  -------         MODULE        OSDACTION
  C:0000H         SYMBOL        _ICE_DUMMY_
  C:8FEDH         PUBLIC        PCT_InitialOSD
  C:9165H         PUBLIC        PCT_ShowModeIcon
  D:0090H         PUBLIC        P1
  D:00B0H         PUBLIC        P3
  C:9948H         PUBLIC        PCT_EnfalshVLoss
BL51 BANKED LINKER/LOCATER V6.22.2.0                                                  07/14/2021  16:13:00  PAGE 40


  C:96F8H         PUBLIC        camstr
  D:00A8H         PUBLIC        IE
  D:00B8H         PUBLIC        IP
  C:6777H         PUBLIC        _PCT_ShowIndicateIcon
  C:9715H         PUBLIC        SPEAKICON
  D:00D8H         PUBLIC        CCON
  X:0099H         PUBLIC        VlossCount
  D:00C0H         PUBLIC        WDTC
  D:0098H         PUBLIC        SCON
  D:0088H         PUBLIC        TCON
  B:0021H.0       PUBLIC        OSDPAGE2
  B:0021H.1       PUBLIC        OSDPAGE3
  B:0021H.2       PUBLIC        OSDPAGE4
  B:0021H.3       PUBLIC        OSDPAGE5
  D:0021H         PUBLIC        osdflage
  D:00E8H         PUBLIC        IEA
  C:93AEH         PUBLIC        PCT_GetVideoSignalStatus
  C:970DH         PUBLIC        indicate_icon
  C:9636H         PUBLIC        PCT_OSDActionForHS
  D:00F8H         PUBLIC        IPA
  C:9717H         PUBLIC        msgVLOSS
  C:3CBCH         PUBLIC        PCT_ShowVLoss
  D:00C8H         PUBLIC        T2CON
  C:46E3H         PUBLIC        _PCT_ShowSpeakIcon
  C:4221H         PUBLIC        _PCT_ShowMirrorIcon
  C:57C9H         PUBLIC        _PCT_OSD_ActionPthX
  D:00D0H         PUBLIC        PSW
  C:82E8H         SYMBOL        Com0226
  C:82E8H         SYMBOL        L?0551
  C:82E8H         SYMBOL        L?0552
  C:82EAH         SYMBOL        L?0553
  C:82F6H         SYMBOL        L?0554
  C:82F7H         SYMBOL        L?0555
  C:82FEH         SYMBOL        L?0556
  C:82FEH         SYMBOL        L?0557
  C:8300H         SYMBOL        L?0558
  C:8303H         SYMBOL        L?0559
  C:830EH         SYMBOL        L?0560
  C:830EH         SYMBOL        L?0561
  C:8310H         SYMBOL        L?0562
  C:8319H         SYMBOL        L?0563
  C:8319H         SYMBOL        L?0564
  C:831BH         SYMBOL        L?0565
  C:8325H         SYMBOL        L?0566
  C:8325H         SYMBOL        L?0567
  C:8327H         SYMBOL        L?0568
  C:832EH         SYMBOL        L?0569
  C:832EH         SYMBOL        L?0570
  C:8336H         SYMBOL        L?0571
  C:8336H         SYMBOL        L?0572
  C:833EH         SYMBOL        L?0573
  C:833EH         SYMBOL        L?0574
  C:8346H         SYMBOL        L?0575
  C:8346H         SYMBOL        L?0576
  C:834EH         SYMBOL        L?0589
  C:834EH         SYMBOL        L?0590
  C:8354H         SYMBOL        L?0598
BL51 BANKED LINKER/LOCATER V6.22.2.0                                                  07/14/2021  16:13:00  PAGE 41


  C:8354H         SYMBOL        L?0599
  C:835CH         SYMBOL        L?0600
  C:835CH         SYMBOL        L?0601
  C:8364H         SYMBOL        L?0602
  C:8364H         SYMBOL        L?0603
  C:836CH         SYMBOL        L?0608
  C:836CH         SYMBOL        L?0609
  C:836FH         SYMBOL        L?0610
  C:8378H         SYMBOL        L?0611
  C:8378H         SYMBOL        L?0612
  C:837DH         SYMBOL        L?0613
  C:8384H         SYMBOL        L?0620
  C:8384H         SYMBOL        L?0621
  C:838BH         SYMBOL        L?0628
  C:838BH         SYMBOL        L?0629
  C:8392H         SYMBOL        L?0633
  C:8392H         SYMBOL        L?0634
  C:839AH         SYMBOL        L?0635
  C:839AH         SYMBOL        L?0636
  C:83A2H         SYMBOL        L?0643
  C:83A2H         SYMBOL        L?0644
  C:83ACH         SYMBOL        L?0648
  C:83ACH         SYMBOL        L?0649
  C:83B4H         SYMBOL        L?0650
  C:83B4H         SYMBOL        L?0651
  C:83B6H         SYMBOL        L?0652
  C:83BDH         SYMBOL        L?0654
  C:83BDH         SYMBOL        L?0655
  C:83C6H         SYMBOL        L?0656
  C:83C6H         SYMBOL        L?0657
  C:83CCH         SYMBOL        L?0666
  C:83CCH         SYMBOL        L?0667
  C:83D4H         SYMBOL        L?0671
  C:83DBH         SYMBOL        L?0672
  C:83DBH         SYMBOL        L?0673
  -------         PROC          COM0226
  -------         ENDPROC       COM0226
  C:9028H         SYMBOL        L?0646
  -------         PROC          PCT_INITIALOSD
  -------         DO            
  D:0027H         SYMBOL        page
  -------         ENDDO         
  C:8FEDH         LINE#         107
  C:8FEDH         LINE#         108
  C:8FEDH         LINE#         111
  C:8FF0H         LINE#         112
  C:8FF3H         LINE#         114
  C:8FF8H         LINE#         115
  C:8FFDH         LINE#         116
  C:900BH         LINE#         117
  C:900DH         LINE#         118
  C:9010H         LINE#         119
  C:9014H         LINE#         120
  C:9019H         LINE#         121
  C:901EH         LINE#         122
  C:9020H         LINE#         123
  C:9023H         LINE#         125
BL51 BANKED LINKER/LOCATER V6.22.2.0                                                  07/14/2021  16:13:00  PAGE 42


  C:9027H         LINE#         126
  -------         ENDPROC       PCT_INITIALOSD
  C:5B20H         SYMBOL        L?0583
  C:5B2FH         SYMBOL        L?0586
  C:5B3EH         SYMBOL        L?0596
  C:5B4DH         SYMBOL        L?0605
  C:5B5CH         SYMBOL        L?0619
  C:5B6BH         SYMBOL        L?0624
  C:5B7AH         SYMBOL        L?0639
  C:5B89H         SYMBOL        L?0661
  -------         PROC          _PCT_OSD_ACTIONPTHX
  X:00A5H         SYMBOL        _attr
  C:57C9H         LINE#         133
  C:57CEH         LINE#         134
  C:57CEH         LINE#         135
  C:57D3H         LINE#         136
  C:57D8H         LINE#         137
  C:580CH         LINE#         140
  C:580CH         LINE#         141
  C:581FH         LINE#         142
  C:5822H         LINE#         144
  C:5822H         LINE#         145
  C:5832H         LINE#         146
  C:5846H         LINE#         147
  C:5849H         LINE#         149
  C:5849H         LINE#         150
  C:5859H         LINE#         151
  C:586DH         LINE#         152
  C:5870H         LINE#         154
  C:5870H         LINE#         155
  C:5880H         LINE#         156
  C:5894H         LINE#         157
  C:58ADH         LINE#         158
  C:58B0H         LINE#         160
  C:58B0H         LINE#         161
  C:58B0H         LINE#         163
  C:58B0H         LINE#         164
  C:58C0H         LINE#         165
  C:58D1H         LINE#         166
  C:58EAH         LINE#         167
  C:58EDH         LINE#         169
  C:58EDH         LINE#         170
  C:58FDH         LINE#         171
  C:590EH         LINE#         172
  C:5927H         LINE#         173
  C:592AH         LINE#         175
  C:592AH         LINE#         176
  C:593AH         LINE#         177
  C:5952H         LINE#         178
  C:596BH         LINE#         179
  C:5984H         LINE#         180
  C:5987H         LINE#         183
  C:5987H         LINE#         184
  C:599AH         LINE#         185
  C:599CH         LINE#         187
  C:599CH         LINE#         188
  C:59B3H         LINE#         189
BL51 BANKED LINKER/LOCATER V6.22.2.0                                                  07/14/2021  16:13:00  PAGE 43


  C:59C9H         LINE#         190
  C:59CCH         LINE#         192
  C:59CCH         LINE#         193
  C:59DCH         LINE#         194
  C:59F2H         LINE#         195
  C:59F5H         LINE#         197
  C:59F5H         LINE#         198
  C:5A0CH         LINE#         199
  C:5A24H         LINE#         200
  C:5A3FH         LINE#         201
  C:5A42H         LINE#         203
  C:5A42H         LINE#         204
  C:5A42H         LINE#         206
  C:5A42H         LINE#         207
  C:5A52H         LINE#         208
  C:5A63H         LINE#         209
  C:5A7EH         LINE#         210
  C:5A81H         LINE#         212
  C:5A81H         LINE#         213
  C:5A91H         LINE#         214
  C:5AA2H         LINE#         215
  C:5ABAH         LINE#         216
  C:5ABDH         LINE#         218
  C:5ABDH         LINE#         219
  C:5ACDH         LINE#         220
  C:5AE5H         LINE#         221
  C:5B02H         LINE#         222
  C:5B1FH         LINE#         223
  C:5B1FH         LINE#         312
  C:5B1FH         LINE#         313
  C:5B1FH         LINE#         314
  C:5B1FH         LINE#         315
  -------         ENDPROC       _PCT_OSD_ACTIONPTHX
  -------         PROC          PCT_ENFALSHVLOSS
  C:9948H         LINE#         321
  C:9948H         LINE#         322
  C:9948H         LINE#         323
  C:994EH         LINE#         324
  -------         ENDPROC       PCT_ENFALSHVLOSS
  -------         PROC          PCT_GETVIDEOSIGNALSTATUS
  C:93AEH         LINE#         330
  C:93AEH         LINE#         331
  C:93AEH         LINE#         336
  C:93BEH         LINE#         338
  C:93C4H         LINE#         341
  C:93C6H         LINE#         342
  C:93DCH         LINE#         346
  C:93DCH         LINE#         348
  C:93DFH         LINE#         349
  C:93DFH         LINE#         360
  C:93E5H         LINE#         401
  -------         ENDPROC       PCT_GETVIDEOSIGNALSTATUS
  C:6997H         SYMBOL        L?0581
  C:69B4H         SYMBOL        L?0592
  C:69C2H         SYMBOL        L?0616
  C:69DFH         SYMBOL        L?0641
  C:69EDH         SYMBOL        L?0668
BL51 BANKED LINKER/LOCATER V6.22.2.0                                                  07/14/2021  16:13:00  PAGE 44


  -------         PROC          _PCT_SHOWINDICATEICON
  X:00A5H         SYMBOL        _attr
  -------         DO            
  D:0027H         SYMBOL        iconid
  -------         ENDDO         
  C:6777H         LINE#         422
  C:677CH         LINE#         423
  C:677CH         LINE#         427
  C:6781H         LINE#         428
  C:67AFH         LINE#         430
  C:67AFH         LINE#         431
  C:67AFH         LINE#         432
  C:67B7H         LINE#         434
  C:67B9H         LINE#         435
  C:67B9H         LINE#         436
  C:67B9H         LINE#         437
  C:67BCH         LINE#         438
  C:67BCH         LINE#         439
  C:67C4H         LINE#         441
  C:67CFH         LINE#         442
  C:67CFH         LINE#         443
  C:67CFH         LINE#         444
  C:67CFH         LINE#         445
  C:67D2H         LINE#         447
  C:67D2H         LINE#         448
  C:67DAH         LINE#         449
  C:67DAH         LINE#         450
  C:67DAH         LINE#         452
  C:67DAH         LINE#         453
  C:67DDH         LINE#         455
  C:67DDH         LINE#         456
  C:67DDH         LINE#         458
  C:67E5H         LINE#         460
  C:67E7H         LINE#         461
  C:67E7H         LINE#         462
  C:67F5H         LINE#         463
  C:67F7H         LINE#         464
  C:67F7H         LINE#         465
  C:67FAH         LINE#         467
  C:6806H         LINE#         468
  C:6806H         LINE#         469
  C:6809H         LINE#         470
  C:6816H         LINE#         471
  C:6818H         LINE#         473
  C:6818H         LINE#         474
  C:681DH         LINE#         475
  C:6826H         LINE#         476
  C:6826H         LINE#         478
  C:6826H         LINE#         481
  C:682EH         LINE#         482
  C:6832H         LINE#         483
  C:6832H         LINE#         484
  C:6832H         LINE#         485
  C:6835H         LINE#         486
  C:6835H         LINE#         487
  C:6835H         LINE#         488
  C:6835H         LINE#         489
BL51 BANKED LINKER/LOCATER V6.22.2.0                                                  07/14/2021  16:13:00  PAGE 45


  C:6838H         LINE#         491
  C:6838H         LINE#         492
  C:6838H         LINE#         494
  C:6840H         LINE#         496
  C:6842H         LINE#         497
  C:6842H         LINE#         498
  C:684DH         LINE#         499
  C:684FH         LINE#         500
  C:684FH         LINE#         501
  C:6852H         LINE#         503
  C:685EH         LINE#         504
  C:685EH         LINE#         505
  C:6861H         LINE#         506
  C:686EH         LINE#         507
  C:6870H         LINE#         509
  C:6870H         LINE#         510
  C:6875H         LINE#         511
  C:687EH         LINE#         512
  C:687EH         LINE#         514
  C:687EH         LINE#         517
  C:6886H         LINE#         518
  C:6888H         LINE#         519
  C:688DH         LINE#         520
  C:688DH         LINE#         521
  C:6890H         LINE#         522
  C:6890H         LINE#         523
  C:6897H         LINE#         524
  C:6897H         LINE#         525
  C:689AH         LINE#         527
  C:689AH         LINE#         528
  C:689AH         LINE#         530
  C:68A2H         LINE#         532
  C:68A4H         LINE#         533
  C:68A4H         LINE#         534
  C:68AFH         LINE#         535
  C:68B2H         LINE#         536
  C:68B2H         LINE#         537
  C:68BAH         LINE#         539
  C:68C5H         LINE#         540
  C:68C5H         LINE#         541
  C:68C8H         LINE#         542
  C:68D0H         LINE#         543
  C:68D3H         LINE#         545
  C:68D3H         LINE#         546
  C:68DBH         LINE#         547
  C:68E1H         LINE#         548
  C:68E1H         LINE#         550
  C:68E1H         LINE#         551
  C:68E4H         LINE#         553
  C:68E4H         LINE#         554
  C:68E4H         LINE#         555
  C:68E4H         LINE#         557
  C:68E4H         LINE#         558
  C:68E4H         LINE#         560
  C:68ECH         LINE#         562
  C:68EEH         LINE#         563
  C:68EEH         LINE#         564
BL51 BANKED LINKER/LOCATER V6.22.2.0                                                  07/14/2021  16:13:00  PAGE 46


  C:68F9H         LINE#         565
  C:68FCH         LINE#         566
  C:68FCH         LINE#         567
  C:6904H         LINE#         569
  C:690FH         LINE#         570
  C:690FH         LINE#         571
  C:6912H         LINE#         572
  C:691AH         LINE#         573
  C:691DH         LINE#         575
  C:691DH         LINE#         576
  C:6922H         LINE#         577
  C:6928H         LINE#         578
  C:6928H         LINE#         580
  C:6928H         LINE#         581
  C:692BH         LINE#         583
  C:692BH         LINE#         584
  C:692BH         LINE#         586
  C:6933H         LINE#         588
  C:6935H         LINE#         589
  C:6942H         LINE#         590
  C:6959H         LINE#         591
  C:695BH         LINE#         592
  C:695BH         LINE#         593
  C:6963H         LINE#         595
  C:696EH         LINE#         596
  C:696EH         LINE#         597
  C:697BH         LINE#         598
  C:6988H         LINE#         599
  C:6988H         LINE#         601
  C:6988H         LINE#         602
  C:698DH         LINE#         603
  C:6996H         LINE#         604
  C:6996H         LINE#         606
  C:6996H         LINE#         607
  C:6996H         LINE#         609
  C:6996H         LINE#         610
  C:6996H         LINE#         611
  C:6996H         LINE#         613
  C:6996H         LINE#         614
  C:6996H         LINE#         615
  C:6996H         LINE#         616
  -------         ENDPROC       _PCT_SHOWINDICATEICON
  C:464BH         SYMBOL        L?0578
  C:4657H         SYMBOL        L?0582
  C:4663H         SYMBOL        L?0587
  C:466DH         SYMBOL        L?0595
  C:4677H         SYMBOL        L?0607
  C:4683H         SYMBOL        L?0614
  C:468EH         SYMBOL        L?0625
  C:4699H         SYMBOL        L?0626
  C:46A5H         SYMBOL        L?0632
  C:46AFH         SYMBOL        L?0640
  C:46BAH         SYMBOL        L?0658
  C:46C4H         SYMBOL        L?0660
  C:46CEH         SYMBOL        L?0662
  C:46D9H         SYMBOL        L?0674
  -------         PROC          _PCT_SHOWMIRRORICON
BL51 BANKED LINKER/LOCATER V6.22.2.0                                                  07/14/2021  16:13:00  PAGE 47


  X:00A5H         SYMBOL        _attr
  C:4221H         LINE#         825
  C:4226H         LINE#         826
  C:4226H         LINE#         827
  C:422BH         LINE#         828
  C:425FH         LINE#         831
  C:425FH         LINE#         833
  C:4267H         LINE#         834
  C:426EH         LINE#         835
  C:4271H         LINE#         836
  C:4276H         LINE#         837
  C:4276H         LINE#         838
  C:4279H         LINE#         840
  C:4279H         LINE#         842
  C:4281H         LINE#         843
  C:428AH         LINE#         844
  C:428CH         LINE#         845
  C:428FH         LINE#         846
  C:428FH         LINE#         848
  C:429AH         LINE#         849
  C:429AH         LINE#         850
  C:429DH         LINE#         851
  C:42A0H         LINE#         852
  C:42A0H         LINE#         853
  C:42A3H         LINE#         855
  C:42A3H         LINE#         857
  C:42ABH         LINE#         858
  C:42B4H         LINE#         859
  C:42B6H         LINE#         860
  C:42B9H         LINE#         861
  C:42B9H         LINE#         864
  C:42C4H         LINE#         865
  C:42CBH         LINE#         866
  C:42CEH         LINE#         867
  C:42D3H         LINE#         868
  C:42D3H         LINE#         870
  C:42D6H         LINE#         872
  C:42D6H         LINE#         874
  C:42DEH         LINE#         875
  C:42E7H         LINE#         876
  C:42E9H         LINE#         877
  C:42ECH         LINE#         878
  C:42ECH         LINE#         881
  C:42F7H         LINE#         882
  C:4300H         LINE#         883
  C:4302H         LINE#         884
  C:430AH         LINE#         885
  C:430AH         LINE#         888
  C:4316H         LINE#         889
  C:4316H         LINE#         890
  C:4319H         LINE#         891
  C:431CH         LINE#         892
  C:431CH         LINE#         893
  C:431FH         LINE#         895
  C:431FH         LINE#         896
  C:431FH         LINE#         898
  C:431FH         LINE#         900
BL51 BANKED LINKER/LOCATER V6.22.2.0                                                  07/14/2021  16:13:00  PAGE 48


  C:4327H         LINE#         901
  C:4330H         LINE#         902
  C:4332H         LINE#         903
  C:4335H         LINE#         904
  C:4335H         LINE#         907
  C:4340H         LINE#         908
  C:4349H         LINE#         909
  C:434BH         LINE#         910
  C:434EH         LINE#         911
  C:434EH         LINE#         914
  C:435AH         LINE#         915
  C:435AH         LINE#         916
  C:435DH         LINE#         917
  C:4360H         LINE#         918
  C:4360H         LINE#         919
  C:4363H         LINE#         921
  C:4363H         LINE#         923
  C:436BH         LINE#         924
  C:4374H         LINE#         925
  C:4376H         LINE#         926
  C:4379H         LINE#         927
  C:4379H         LINE#         930
  C:4384H         LINE#         931
  C:438DH         LINE#         932
  C:438FH         LINE#         933
  C:4392H         LINE#         934
  C:4392H         LINE#         937
  C:439EH         LINE#         938
  C:43A6H         LINE#         939
  C:43A9H         LINE#         940
  C:43ADH         LINE#         941
  C:43ADH         LINE#         942
  C:43B0H         LINE#         944
  C:43B0H         LINE#         946
  C:43B8H         LINE#         947
  C:43C1H         LINE#         948
  C:43C3H         LINE#         949
  C:43C6H         LINE#         950
  C:43C6H         LINE#         953
  C:43D1H         LINE#         954
  C:43E0H         LINE#         955
  C:43E2H         LINE#         956
  C:43ECH         LINE#         957
  C:43ECH         LINE#         960
  C:43F8H         LINE#         961
  C:4401H         LINE#         962
  C:4403H         LINE#         963
  C:440BH         LINE#         964
  C:440BH         LINE#         967
  C:4417H         LINE#         968
  C:441FH         LINE#         969
  C:4422H         LINE#         970
  C:4425H         LINE#         971
  C:4425H         LINE#         972
  C:4428H         LINE#         975
  C:4428H         LINE#         977
  C:4430H         LINE#         978
BL51 BANKED LINKER/LOCATER V6.22.2.0                                                  07/14/2021  16:13:00  PAGE 49


  C:443AH         LINE#         979
  C:443CH         LINE#         980
  C:443FH         LINE#         981
  C:443FH         LINE#         982
  C:4441H         LINE#         984
  C:4441H         LINE#         986
  C:4449H         LINE#         987
  C:4452H         LINE#         988
  C:4454H         LINE#         989
  C:445CH         LINE#         990
  C:445CH         LINE#         992
  C:4467H         LINE#         993
  C:4471H         LINE#         994
  C:4474H         LINE#         995
  C:4479H         LINE#         996
  C:4479H         LINE#         997
  C:447CH         LINE#         999
  C:447CH         LINE#         1001
  C:4484H         LINE#         1002
  C:448DH         LINE#         1003
  C:448FH         LINE#         1004
  C:4497H         LINE#         1005
  C:4497H         LINE#         1008
  C:44A2H         LINE#         1009
  C:44AEH         LINE#         1010
  C:44B1H         LINE#         1011
  C:44B6H         LINE#         1012
  C:44B6H         LINE#         1014
  C:44B9H         LINE#         1016
  C:44B9H         LINE#         1018
  C:44C1H         LINE#         1019
  C:44CAH         LINE#         1020
  C:44CCH         LINE#         1021
  C:44D4H         LINE#         1022
  C:44D4H         LINE#         1025
  C:44DFH         LINE#         1026
  C:44E8H         LINE#         1027
  C:44EAH         LINE#         1028
  C:44F2H         LINE#         1029
  C:44F2H         LINE#         1032
  C:44FEH         LINE#         1033
  C:4508H         LINE#         1034
  C:450BH         LINE#         1035
  C:4510H         LINE#         1036
  C:4510H         LINE#         1037
  C:4513H         LINE#         1039
  C:4513H         LINE#         1040
  C:4513H         LINE#         1042
  C:4513H         LINE#         1044
  C:451BH         LINE#         1045
  C:4524H         LINE#         1046
  C:4526H         LINE#         1047
  C:452EH         LINE#         1048
  C:452EH         LINE#         1051
  C:4539H         LINE#         1052
  C:4542H         LINE#         1053
  C:4544H         LINE#         1054
BL51 BANKED LINKER/LOCATER V6.22.2.0                                                  07/14/2021  16:13:00  PAGE 50


  C:454CH         LINE#         1055
  C:454CH         LINE#         1058
  C:4558H         LINE#         1059
  C:4562H         LINE#         1060
  C:4565H         LINE#         1061
  C:456AH         LINE#         1062
  C:456AH         LINE#         1063
  C:456DH         LINE#         1065
  C:456DH         LINE#         1067
  C:4575H         LINE#         1068
  C:457EH         LINE#         1069
  C:4580H         LINE#         1070
  C:4588H         LINE#         1071
  C:4588H         LINE#         1074
  C:4593H         LINE#         1075
  C:459CH         LINE#         1076
  C:459EH         LINE#         1077
  C:45A6H         LINE#         1078
  C:45A6H         LINE#         1081
  C:45B2H         LINE#         1082
  C:45BCH         LINE#         1083
  C:45BFH         LINE#         1084
  C:45C7H         LINE#         1085
  C:45C7H         LINE#         1086
  C:45CAH         LINE#         1088
  C:45CAH         LINE#         1090
  C:45D2H         LINE#         1091
  C:45DBH         LINE#         1092
  C:45DDH         LINE#         1093
  C:45E5H         LINE#         1094
  C:45E5H         LINE#         1097
  C:45F0H         LINE#         1098
  C:45FEH         LINE#         1099
  C:4600H         LINE#         1100
  C:4608H         LINE#         1101
  C:4608H         LINE#         1104
  C:4614H         LINE#         1105
  C:461DH         LINE#         1106
  C:461FH         LINE#         1107
  C:4627H         LINE#         1108
  C:4627H         LINE#         1111
  C:4633H         LINE#         1112
  C:4642H         LINE#         1113
  C:4642H         LINE#         1114
  C:464AH         LINE#         1115
  C:464AH         LINE#         1116
  C:464AH         LINE#         1407
  C:464AH         LINE#         1408
  C:464AH         LINE#         1409
  C:464AH         LINE#         1410
  -------         ENDPROC       _PCT_SHOWMIRRORICON
  C:4AEFH         SYMBOL        L?0579
  C:4AFBH         SYMBOL        L?0584
  C:4B07H         SYMBOL        L?0588
  C:4B11H         SYMBOL        L?0597
  C:4B1BH         SYMBOL        L?0604
  C:4B26H         SYMBOL        L?0617
BL51 BANKED LINKER/LOCATER V6.22.2.0                                                  07/14/2021  16:13:00  PAGE 51


  C:4B31H         SYMBOL        L?0618
  C:4B3DH         SYMBOL        L?0627
  C:4B47H         SYMBOL        L?0630
  C:4B52H         SYMBOL        L?0642
  C:4B5CH         SYMBOL        L?0647
  C:4B67H         SYMBOL        L?0659
  C:4B71H         SYMBOL        L?0665
  C:4B7BH         SYMBOL        L?0669
  C:4B86H         SYMBOL        L?0675
  -------         PROC          _PCT_SHOWSPEAKICON
  X:00A5H         SYMBOL        _attr
  C:46E3H         LINE#         2011
  C:46E8H         LINE#         2012
  C:46E8H         LINE#         2013
  C:46EDH         LINE#         2014
  C:471EH         LINE#         2017
  C:471EH         LINE#         2018
  C:4728H         LINE#         2019
  C:4728H         LINE#         2020
  C:472AH         LINE#         2021
  C:472FH         LINE#         2022
  C:472FH         LINE#         2023
  C:4732H         LINE#         2025
  C:4732H         LINE#         2026
  C:473CH         LINE#         2027
  C:4745H         LINE#         2028
  C:4747H         LINE#         2029
  C:474AH         LINE#         2030
  C:474AH         LINE#         2031
  C:4754H         LINE#         2032
  C:475BH         LINE#         2033
  C:475EH         LINE#         2034
  C:4761H         LINE#         2035
  C:4761H         LINE#         2036
  C:4764H         LINE#         2038
  C:4764H         LINE#         2039
  C:476EH         LINE#         2040
  C:4777H         LINE#         2041
  C:4779H         LINE#         2042
  C:477CH         LINE#         2043
  C:477CH         LINE#         2044
  C:4787H         LINE#         2045
  C:478EH         LINE#         2046
  C:4791H         LINE#         2047
  C:4796H         LINE#         2048
  C:4796H         LINE#         2049
  C:4799H         LINE#         2051
  C:4799H         LINE#         2052
  C:47A3H         LINE#         2053
  C:47ACH         LINE#         2054
  C:47AEH         LINE#         2055
  C:47B1H         LINE#         2056
  C:47B1H         LINE#         2057
  C:47BCH         LINE#         2058
  C:47C5H         LINE#         2059
  C:47C7H         LINE#         2060
  C:47CFH         LINE#         2061
BL51 BANKED LINKER/LOCATER V6.22.2.0                                                  07/14/2021  16:13:00  PAGE 52


  C:47CFH         LINE#         2062
  C:47DDH         LINE#         2063
  C:47DDH         LINE#         2064
  C:47E0H         LINE#         2065
  C:47E3H         LINE#         2066
  C:47E3H         LINE#         2067
  C:47E6H         LINE#         2069
  C:47E6H         LINE#         2070
  C:47E6H         LINE#         2072
  C:47E6H         LINE#         2073
  C:47F0H         LINE#         2074
  C:47F9H         LINE#         2075
  C:47FBH         LINE#         2076
  C:47FEH         LINE#         2077
  C:47FEH         LINE#         2078
  C:4809H         LINE#         2079
  C:4812H         LINE#         2080
  C:4814H         LINE#         2081
  C:4817H         LINE#         2082
  C:4817H         LINE#         2083
  C:4825H         LINE#         2084
  C:4825H         LINE#         2085
  C:4828H         LINE#         2086
  C:482BH         LINE#         2087
  C:482BH         LINE#         2088
  C:482EH         LINE#         2090
  C:482EH         LINE#         2091
  C:4838H         LINE#         2092
  C:4841H         LINE#         2093
  C:4843H         LINE#         2094
  C:4846H         LINE#         2095
  C:4846H         LINE#         2096
  C:4851H         LINE#         2097
  C:485AH         LINE#         2098
  C:485CH         LINE#         2099
  C:485FH         LINE#         2100
  C:485FH         LINE#         2101
  C:486DH         LINE#         2102
  C:4875H         LINE#         2103
  C:4878H         LINE#         2104
  C:487CH         LINE#         2105
  C:487CH         LINE#         2106
  C:487FH         LINE#         2108
  C:487FH         LINE#         2109
  C:4889H         LINE#         2110
  C:4892H         LINE#         2111
  C:4894H         LINE#         2112
  C:4897H         LINE#         2113
  C:4897H         LINE#         2114
  C:48A2H         LINE#         2115
  C:48ABH         LINE#         2116
  C:48ADH         LINE#         2117
  C:48B0H         LINE#         2118
  C:48B0H         LINE#         2119
  C:48BEH         LINE#         2120
  C:48C7H         LINE#         2121
  C:48C9H         LINE#         2122
BL51 BANKED LINKER/LOCATER V6.22.2.0                                                  07/14/2021  16:13:00  PAGE 53


  C:48D1H         LINE#         2123
  C:48D1H         LINE#         2124
  C:48DFH         LINE#         2125
  C:48E7H         LINE#         2126
  C:48EAH         LINE#         2127
  C:48EDH         LINE#         2128
  C:48EDH         LINE#         2129
  C:48F0H         LINE#         2132
  C:48F0H         LINE#         2133
  C:48FAH         LINE#         2134
  C:4906H         LINE#         2135
  C:4909H         LINE#         2136
  C:490EH         LINE#         2137
  C:490EH         LINE#         2138
  C:4911H         LINE#         2140
  C:4911H         LINE#         2141
  C:4911H         LINE#         2143
  C:4911H         LINE#         2144
  C:491BH         LINE#         2145
  C:4924H         LINE#         2146
  C:4926H         LINE#         2147
  C:492EH         LINE#         2148
  C:492EH         LINE#         2149
  C:4939H         LINE#         2150
  C:4945H         LINE#         2151
  C:4948H         LINE#         2152
  C:494DH         LINE#         2153
  C:494DH         LINE#         2154
  C:4950H         LINE#         2156
  C:4950H         LINE#         2157
  C:495AH         LINE#         2158
  C:4968H         LINE#         2159
  C:496AH         LINE#         2160
  C:4972H         LINE#         2161
  C:4972H         LINE#         2162
  C:497DH         LINE#         2163
  C:4986H         LINE#         2164
  C:4988H         LINE#         2165
  C:4990H         LINE#         2166
  C:4990H         LINE#         2167
  C:499EH         LINE#         2168
  C:49A8H         LINE#         2169
  C:49ABH         LINE#         2170
  C:49B0H         LINE#         2171
  C:49B0H         LINE#         2172
  C:49B3H         LINE#         2174
  C:49B3H         LINE#         2175
  C:49B3H         LINE#         2177
  C:49B3H         LINE#         2178
  C:49BDH         LINE#         2179
  C:49C6H         LINE#         2180
  C:49C8H         LINE#         2181
  C:49D0H         LINE#         2182
  C:49D0H         LINE#         2183
  C:49DBH         LINE#         2184
  C:49E4H         LINE#         2185
  C:49E6H         LINE#         2186
BL51 BANKED LINKER/LOCATER V6.22.2.0                                                  07/14/2021  16:13:00  PAGE 54


  C:49EEH         LINE#         2187
  C:49EEH         LINE#         2188
  C:49FCH         LINE#         2189
  C:4A06H         LINE#         2190
  C:4A09H         LINE#         2191
  C:4A0EH         LINE#         2192
  C:4A0EH         LINE#         2193
  C:4A11H         LINE#         2195
  C:4A11H         LINE#         2196
  C:4A1BH         LINE#         2197
  C:4A24H         LINE#         2198
  C:4A26H         LINE#         2199
  C:4A2EH         LINE#         2200
  C:4A2EH         LINE#         2201
  C:4A39H         LINE#         2202
  C:4A42H         LINE#         2203
  C:4A44H         LINE#         2204
  C:4A47H         LINE#         2205
  C:4A47H         LINE#         2206
  C:4A55H         LINE#         2207
  C:4A5FH         LINE#         2208
  C:4A62H         LINE#         2209
  C:4A6AH         LINE#         2210
  C:4A6AH         LINE#         2211
  C:4A6DH         LINE#         2213
  C:4A6DH         LINE#         2214
  C:4A77H         LINE#         2215
  C:4A80H         LINE#         2216
  C:4A82H         LINE#         2217
  C:4A8AH         LINE#         2218
  C:4A8AH         LINE#         2219
  C:4A95H         LINE#         2220
  C:4A9EH         LINE#         2221
  C:4AA0H         LINE#         2222
  C:4AA8H         LINE#         2223
  C:4AA8H         LINE#         2224
  C:4AB6H         LINE#         2225
  C:4ABFH         LINE#         2226
  C:4AC1H         LINE#         2227
  C:4AC9H         LINE#         2228
  C:4AC9H         LINE#         2229
  C:4AD7H         LINE#         2230
  C:4AE6H         LINE#         2231
  C:4AE6H         LINE#         2232
  C:4AEEH         LINE#         2233
  C:4AEEH         LINE#         2234
  C:4AEEH         LINE#         2457
  C:4AEEH         LINE#         2458
  C:4AEEH         LINE#         2459
  C:4AEEH         LINE#         2460
  -------         ENDPROC       _PCT_SHOWSPEAKICON
  C:416BH         SYMBOL        L?0577
  C:4177H         SYMBOL        L?0580
  C:4183H         SYMBOL        L?0585
  C:418FH         SYMBOL        L?0591
  C:419BH         SYMBOL        L?0593
  C:41A5H         SYMBOL        L?0594
BL51 BANKED LINKER/LOCATER V6.22.2.0                                                  07/14/2021  16:13:00  PAGE 55


  C:41B1H         SYMBOL        L?0606
  C:41BBH         SYMBOL        L?0615
  C:41C7H         SYMBOL        L?0622
  C:41D1H         SYMBOL        L?0623
  C:41DDH         SYMBOL        L?0631
  C:41E7H         SYMBOL        L?0637
  C:41EFH         SYMBOL        L?0638
  C:41FBH         SYMBOL        L?0645
  C:4205H         SYMBOL        L?0653
  C:420DH         SYMBOL        L?0663
  C:4217H         SYMBOL        L?0664
  -------         PROC          PCT_SHOWVLOSS
  C:3CBCH         LINE#         2955
  C:3CBCH         LINE#         2956
  C:3CBCH         LINE#         2962
  C:3CEAH         LINE#         2964
  C:3CEAH         LINE#         2965
  C:3CFBH         LINE#         2966
  C:3D06H         LINE#         2968
  C:3D0AH         LINE#         2969
  C:3D0DH         LINE#         2971
  C:3D0DH         LINE#         2972
  C:3D0DH         LINE#         2974
  C:3D0DH         LINE#         2975
  C:3D1EH         LINE#         2976
  C:3D29H         LINE#         2978
  C:3D2CH         LINE#         2979
  C:3D3FH         LINE#         2980
  C:3D4AH         LINE#         2982
  C:3D4EH         LINE#         2983
  C:3D51H         LINE#         2985
  C:3D51H         LINE#         2986
  C:3D62H         LINE#         2987
  C:3D73H         LINE#         2989
  C:3D78H         LINE#         2990
  C:3D8BH         LINE#         2991
  C:3D98H         LINE#         2993
  C:3D9BH         LINE#         2994
  C:3DAEH         LINE#         2995
  C:3DB9H         LINE#         2997
  C:3DBDH         LINE#         2998
  C:3DC0H         LINE#         3000
  C:3DC0H         LINE#         3001
  C:3DC0H         LINE#         3003
  C:3DC0H         LINE#         3004
  C:3DD1H         LINE#         3005
  C:3DDCH         LINE#         3007
  C:3DDFH         LINE#         3008
  C:3DF2H         LINE#         3009
  C:3DFDH         LINE#         3011
  C:3E00H         LINE#         3012
  C:3E13H         LINE#         3013
  C:3E1EH         LINE#         3015
  C:3E22H         LINE#         3016
  C:3E25H         LINE#         3018
  C:3E25H         LINE#         3019
  C:3E36H         LINE#         3020
BL51 BANKED LINKER/LOCATER V6.22.2.0                                                  07/14/2021  16:13:00  PAGE 56


  C:3E41H         LINE#         3022
  C:3E44H         LINE#         3023
  C:3E57H         LINE#         3024
  C:3E64H         LINE#         3026
  C:3E6CH         LINE#         3027
  C:3E7FH         LINE#         3028
  C:3E8AH         LINE#         3030
  C:3E8EH         LINE#         3031
  C:3E91H         LINE#         3033
  C:3E91H         LINE#         3034
  C:3EA2H         LINE#         3035
  C:3EADH         LINE#         3037
  C:3EB0H         LINE#         3038
  C:3EC3H         LINE#         3039
  C:3ECEH         LINE#         3041
  C:3ED1H         LINE#         3042
  C:3EE4H         LINE#         3043
  C:3EF5H         LINE#         3045
  C:3EF8H         LINE#         3046
  C:3F0BH         LINE#         3047
  C:3F16H         LINE#         3049
  C:3F1AH         LINE#         3050
  C:3F1DH         LINE#         3053
  C:3F1DH         LINE#         3054
  C:3F2EH         LINE#         3055
  C:3F3BH         LINE#         3057
  C:3F43H         LINE#         3058
  C:3F46H         LINE#         3060
  C:3F46H         LINE#         3061
  C:3F46H         LINE#         3063
  C:3F46H         LINE#         3064
  C:3F57H         LINE#         3065
  C:3F64H         LINE#         3067
  C:3F67H         LINE#         3068
  C:3F7AH         LINE#         3069
  C:3F87H         LINE#         3071
  C:3F8FH         LINE#         3072
  C:3F92H         LINE#         3074
  C:3F92H         LINE#         3075
  C:3FA3H         LINE#         3076
  C:3FB4H         LINE#         3078
  C:3FB9H         LINE#         3079
  C:3FCCH         LINE#         3080
  C:3FD7H         LINE#         3082
  C:3FDAH         LINE#         3083
  C:3FEDH         LINE#         3084
  C:3FFAH         LINE#         3086
  C:3FFDH         LINE#         3087
  C:4000H         LINE#         3089
  C:4000H         LINE#         3090
  C:4000H         LINE#         3092
  C:4000H         LINE#         3093
  C:4011H         LINE#         3094
  C:401EH         LINE#         3096
  C:4021H         LINE#         3097
  C:4034H         LINE#         3098
  C:403FH         LINE#         3100
BL51 BANKED LINKER/LOCATER V6.22.2.0                                                  07/14/2021  16:13:00  PAGE 57


  C:4042H         LINE#         3101
  C:4055H         LINE#         3102
  C:4062H         LINE#         3104
  C:4065H         LINE#         3105
  C:4068H         LINE#         3107
  C:4068H         LINE#         3108
  C:4079H         LINE#         3109
  C:4084H         LINE#         3111
  C:4087H         LINE#         3112
  C:409AH         LINE#         3113
  C:40ABH         LINE#         3115
  C:40B6H         LINE#         3116
  C:40C9H         LINE#         3117
  C:40D6H         LINE#         3119
  C:40DEH         LINE#         3120
  C:40E1H         LINE#         3122
  C:40E1H         LINE#         3123
  C:40F2H         LINE#         3124
  C:40FDH         LINE#         3126
  C:4100H         LINE#         3127
  C:4113H         LINE#         3128
  C:411EH         LINE#         3130
  C:4121H         LINE#         3131
  C:4134H         LINE#         3132
  C:413FH         LINE#         3134
  C:4142H         LINE#         3135
  C:4155H         LINE#         3136
  C:4164H         LINE#         3138
  C:416AH         LINE#         3139
  C:416AH         LINE#         3141
  C:416AH         LINE#         3142
  C:416AH         LINE#         3143
  C:416AH         LINE#         3144
  -------         ENDPROC       PCT_SHOWVLOSS
  C:91A0H         SYMBOL        L?0670
  -------         PROC          PCT_SHOWMODEICON
  C:9165H         LINE#         3151
  C:9165H         LINE#         3152
  C:9165H         LINE#         3153
  C:916AH         LINE#         3155
  C:9174H         LINE#         3156
  C:9174H         LINE#         3157
  C:9174H         LINE#         3158
  C:9174H         LINE#         3159
  C:9177H         LINE#         3160
  C:9180H         LINE#         3161
  C:9180H         LINE#         3162
  C:9182H         LINE#         3164
  C:9182H         LINE#         3165
  C:9182H         LINE#         3166
  C:9185H         LINE#         3167
  C:919AH         LINE#         3168
  C:919FH         LINE#         3169
  C:919FH         LINE#         3171
  C:919FH         LINE#         3172
  C:919FH         LINE#         3173
  C:919FH         LINE#         3174
BL51 BANKED LINKER/LOCATER V6.22.2.0                                                  07/14/2021  16:13:00  PAGE 58


  -------         ENDPROC       PCT_SHOWMODEICON
  -------         PROC          PCT_OSDACTIONFORHS
  C:9636H         LINE#         3205
  C:9636H         LINE#         3206
  C:9636H         LINE#         3207
  C:963BH         LINE#         3209
  C:9644H         LINE#         3213
  C:9644H         LINE#         3215
  C:964AH         LINE#         3218
  C:9650H         LINE#         3220
  C:9656H         LINE#         3221
  C:9656H         LINE#         3222
  C:9659H         LINE#         3223
  -------         ENDPROC       PCT_OSDACTIONFORHS
  -------         ENDMOD        OSDACTION

  -------         MODULE        OSDCTRL
  C:0000H         SYMBOL        _ICE_DUMMY_
  D:0090H         PUBLIC        P1
  C:250CH         PUBLIC        FONT_TABLE
  D:00B0H         PUBLIC        P3
  C:8649H         PUBLIC        _PCT_FullColorOnOSD
  C:9454H         PUBLIC        _PCT_EnShowOSDPage
  D:00A8H         PUBLIC        IE
  D:0016H         PUBLIC        backColor
  D:00B8H         PUBLIC        IP
  D:00D8H         PUBLIC        CCON
  C:9963H         PUBLIC        _PCT_PreSetBackgroundColor
  C:859CH         PUBLIC        _PCT_ClearWordsPathX
  D:0017H         PUBLIC        foreColor
  D:00C0H         PUBLIC        WDTC
  D:0098H         PUBLIC        SCON
  D:0088H         PUBLIC        TCON
  C:81E9H         PUBLIC        _PCT_WriteOSDFntX
  C:83E2H         PUBLIC        _PCT_WriteOSDFntY
  C:9960H         PUBLIC        _PCT_PreSetForegroundColor
  C:7E86H         PUBLIC        PCT_InitOSDColor
  B:0022H.0       PUBLIC        DAT_BIT0
  B:0022H.1       PUBLIC        DAT_BIT1
  B:0022H.2       PUBLIC        DAT_BIT2
  B:0022H.3       PUBLIC        DAT_BIT3
  B:0022H.4       PUBLIC        DAT_BIT4
  B:0022H.5       PUBLIC        DAT_BIT5
  C:8C82H         PUBLIC        _PCT_ShowOSDString
  D:00E8H         PUBLIC        IEA
  B:0022H.6       PUBLIC        DAT_BIT6
  B:0022H.7       PUBLIC        DAT_BIT7
  D:00F8H         PUBLIC        IPA
  C:8EF6H         PUBLIC        _PCT_SetOSDColor
  D:00C8H         PUBLIC        T2CON
  C:9786H         PUBLIC        _PCT_SetOSDDrawPage
  C:780EH         PUBLIC        _PCT_WriteOSDDataBufferX
  C:97BFH         PUBLIC        _PCT_ClearOSDPageX
  C:7FB5H         PUBLIC        _PCT_WriteOSDDataBufferY
  C:97A3H         PUBLIC        _PCT_DisShowOSDPage
  D:00D0H         PUBLIC        PSW
  D:0022H         PUBLIC        bitdat
BL51 BANKED LINKER/LOCATER V6.22.2.0                                                  07/14/2021  16:13:00  PAGE 59


  C:7977H         SYMBOL        Com0083
  C:7977H         SYMBOL        L?0132
  C:7983H         SYMBOL        L?0133
  C:798BH         SYMBOL        L?0134
  C:798EH         SYMBOL        L?0135
  C:7997H         SYMBOL        L?0136
  C:7997H         SYMBOL        L?0137
  C:799CH         SYMBOL        L?0138
  C:799EH         SYMBOL        L?0139
  C:799FH         SYMBOL        L?0140
  C:79A6H         SYMBOL        L?0145
  C:79B3H         SYMBOL        L?0146
  C:79B5H         SYMBOL        L?0147
  C:79BCH         SYMBOL        L?0149
  C:79C5H         SYMBOL        L?0150
  C:79CFH         SYMBOL        L?0152
  C:79D6H         SYMBOL        L?0153
  C:79E2H         SYMBOL        L?0154
  C:79E4H         SYMBOL        L?0155
  C:79E6H         SYMBOL        L?0156
  C:79EEH         SYMBOL        L?0157
  C:79F0H         SYMBOL        L?0158
  C:79F2H         SYMBOL        L?0159
  C:79FAH         SYMBOL        L?0160
  C:79FCH         SYMBOL        L?0161
  C:79FEH         SYMBOL        L?0162
  C:7A06H         SYMBOL        L?0163
  C:7A24H         SYMBOL        L?0164
  C:7A24H         SYMBOL        L?0165
  C:7A30H         SYMBOL        L?0166
  C:7A34H         SYMBOL        L?0167
  C:7A3CH         SYMBOL        L?0169
  C:7A3FH         SYMBOL        L?0170
  C:7A4CH         SYMBOL        L?0171
  C:7A64H         SYMBOL        L?0172
  C:7A64H         SYMBOL        L?0173
  C:7A66H         SYMBOL        L?0174
  C:7A6DH         SYMBOL        L?0175
  C:7A83H         SYMBOL        L?0176
  C:7A83H         SYMBOL        L?0177
  C:7A85H         SYMBOL        L?0178
  C:7A8DH         SYMBOL        L?0181
  C:7A8FH         SYMBOL        L?0182
  C:7A97H         SYMBOL        L?0183
  C:7A9AH         SYMBOL        L?0184
  C:7AA1H         SYMBOL        L?0186
  C:7AA3H         SYMBOL        L?0187
  C:7AABH         SYMBOL        L?0188
  C:7AACH         SYMBOL        L?0189
  C:7AB4H         SYMBOL        L?0190
  C:7AC0H         SYMBOL        L?0191
  C:7ACBH         SYMBOL        L?0192
  C:7AD6H         SYMBOL        L?0193
  C:7AD6H         SYMBOL        L?0194
  -------         PROC          COM0083
  -------         ENDPROC       COM0083
  -------         PROC          _PCT_PRESETFOREGROUNDCOLOR
BL51 BANKED LINKER/LOCATER V6.22.2.0                                                  07/14/2021  16:13:00  PAGE 60


  D:0007H         SYMBOL        _color
  C:9960H         LINE#         83
  C:9960H         LINE#         84
  C:9960H         LINE#         85
  C:9962H         LINE#         87
  -------         ENDPROC       _PCT_PRESETFOREGROUNDCOLOR
  -------         PROC          _PCT_PRESETBACKGROUNDCOLOR
  D:0007H         SYMBOL        _color
  C:9963H         LINE#         93
  C:9963H         LINE#         94
  C:9963H         LINE#         95
  C:9965H         LINE#         97
  -------         ENDPROC       _PCT_PRESETBACKGROUNDCOLOR
  C:8F41H         SYMBOL        L?0185
  -------         PROC          _PCT_SETOSDCOLOR
  X:00A5H         SYMBOL        _pth
  X:00A6H         SYMBOL        _col_num
  D:0003H         SYMBOL        _y
  X:00A8H         SYMBOL        _cb
  X:00A9H         SYMBOL        _cr
  C:8EF6H         LINE#         103
  C:8EFDH         LINE#         104
  C:8EFDH         LINE#         105
  C:8F06H         LINE#         106
  C:8F11H         LINE#         107
  C:8F20H         LINE#         109
  C:8F29H         LINE#         113
  C:8F2FH         LINE#         115
  C:8F40H         LINE#         116
  -------         ENDPROC       _PCT_SETOSDCOLOR
  C:7F81H         SYMBOL        L?0142
  C:7F8BH         SYMBOL        L?0144
  C:7F95H         SYMBOL        L?0148
  C:7F9DH         SYMBOL        L?0151
  C:7FA5H         SYMBOL        L?0168
  C:7FADH         SYMBOL        L?0179
  -------         PROC          PCT_INITOSDCOLOR
  C:7E86H         LINE#         122
  C:7E86H         LINE#         123
  C:7E86H         LINE#         124
  C:7E94H         LINE#         125
  C:7E9EH         LINE#         126
  C:7EA3H         LINE#         127
  C:7EB1H         LINE#         128
  C:7EBDH         LINE#         130
  C:7EC8H         LINE#         131
  C:7ED0H         LINE#         132
  C:7EDEH         LINE#         133
  C:7EEAH         LINE#         134
  C:7EF6H         LINE#         135
  C:7F02H         LINE#         136
  C:7F0EH         LINE#         137
  C:7F1AH         LINE#         138
  C:7F28H         LINE#         139
  C:7F3AH         LINE#         140
  C:7F4CH         LINE#         141
  C:7F5EH         LINE#         142
BL51 BANKED LINKER/LOCATER V6.22.2.0                                                  07/14/2021  16:13:00  PAGE 61


  C:7F6FH         LINE#         143
  C:7F7BH         LINE#         145
  C:7F7EH         LINE#         146
  C:7F80H         LINE#         147
  -------         ENDPROC       PCT_INITOSDCOLOR
  -------         PROC          _PCT_SETOSDDRAWPAGE
  X:00ABH         SYMBOL        _page
  C:9786H         LINE#         153
  C:9789H         LINE#         154
  C:9789H         LINE#         155
  C:979DH         LINE#         156
  -------         ENDPROC       _PCT_SETOSDDRAWPAGE
  C:9475H         SYMBOL        L?0180
  -------         PROC          _PCT_ENSHOWOSDPAGE
  X:00ABH         SYMBOL        _page
  C:9454H         LINE#         163
  C:9458H         LINE#         164
  C:9458H         LINE#         165
  C:9460H         LINE#         166
  C:9463H         LINE#         167
  C:9465H         LINE#         168
  C:9467H         LINE#         169
  C:946BH         LINE#         170
  C:9474H         LINE#         171
  C:9474H         LINE#         172
  -------         ENDPROC       _PCT_ENSHOWOSDPAGE
  -------         PROC          _PCT_DISSHOWOSDPAGE
  X:00A5H         SYMBOL        _bit
  -------         DO            
  D:0006H         SYMBOL        dat
  -------         ENDDO         
  C:97A3H         LINE#         178
  C:97A6H         LINE#         179
  C:97A6H         LINE#         181
  C:97B2H         LINE#         182
  -------         ENDPROC       _PCT_DISSHOWOSDPAGE
  -------         PROC          _PCT_FULLCOLORONOSD
  X:00A5H         SYMBOL        _posx
  X:00A6H         SYMBOL        _posy
  X:00A8H         SYMBOL        _wide
  X:00A9H         SYMBOL        _high
  C:8649H         LINE#         191
  C:864BH         LINE#         192
  C:864BH         LINE#         193
  C:8651H         LINE#         194
  C:8657H         LINE#         195
  C:865DH         LINE#         196
  C:8663H         LINE#         198
  C:8669H         LINE#         199
  C:867DH         LINE#         200
  C:868AH         LINE#         201
  C:86A3H         LINE#         203
  C:86AAH         LINE#         204
  C:86B2H         LINE#         205
  C:86BAH         LINE#         206
  C:86C2H         LINE#         207
  C:86CDH         LINE#         209
BL51 BANKED LINKER/LOCATER V6.22.2.0                                                  07/14/2021  16:13:00  PAGE 62


  C:86DCH         LINE#         210
  C:86E6H         LINE#         211
  -------         ENDPROC       _PCT_FULLCOLORONOSD
  -------         PROC          _PCT_CLEAROSDPAGEX
  D:0007H         SYMBOL        _page
  C:97BFH         LINE#         213
  C:97BFH         LINE#         214
  C:97BFH         LINE#         215
  C:97C2H         LINE#         217
  C:97C7H         LINE#         218
  -------         ENDPROC       _PCT_CLEAROSDPAGEX
  C:7935H         SYMBOL        L?0130
  C:7954H         SYMBOL        L?0141
  C:7962H         SYMBOL        L?0143
  C:7970H         SYMBOL        L?0195
  -------         PROC          _PCT_WRITEOSDDATABUFFERX
  X:00C5H         SYMBOL        _index
  X:00C6H         SYMBOL        _dat
  C:780EH         LINE#         225
  C:7813H         LINE#         226
  C:7813H         LINE#         227
  C:781DH         LINE#         228
  C:782DH         LINE#         229
  C:7839H         LINE#         230
  C:7845H         LINE#         231
  C:784EH         LINE#         232
  C:7851H         LINE#         233
  C:7856H         LINE#         235
  C:7868H         LINE#         236
  C:7874H         LINE#         237
  C:7880H         LINE#         238
  C:7889H         LINE#         239
  C:788CH         LINE#         240
  C:7891H         LINE#         242
  C:789AH         LINE#         243
  C:78ACH         LINE#         244
  C:78BCH         LINE#         245
  C:78CCH         LINE#         246
  C:78D9H         LINE#         247
  C:78DFH         LINE#         248
  C:78E4H         LINE#         250
  C:78F6H         LINE#         251
  C:7908H         LINE#         252
  C:791AH         LINE#         253
  C:792CH         LINE#         254
  C:7935H         LINE#         255
  -------         ENDPROC       _PCT_WRITEOSDDATABUFFERX
  -------         PROC          _PCT_WRITEOSDFNTX
  D:0007H         SYMBOL        _posx
  X:00B3H         SYMBOL        _posy
  X:00B5H         SYMBOL        _len
  X:00B6H         SYMBOL        _indx
  -------         DO            
  D:0029H         SYMBOL        i
  D:002AH         SYMBOL        j
  D:002BH         SYMBOL        posx
  X:00B9H         SYMBOL        charPtr
BL51 BANKED LINKER/LOCATER V6.22.2.0                                                  07/14/2021  16:13:00  PAGE 63


  -------         ENDDO         
  C:81E9H         LINE#         265
  C:81EEH         LINE#         266
  C:81EEH         LINE#         270
  C:81F1H         LINE#         271
  C:81F6H         LINE#         272
  C:8208H         LINE#         273
  C:8212H         LINE#         274
  C:821CH         LINE#         275
  C:8224H         LINE#         276
  C:822FH         LINE#         277
  C:823FH         LINE#         279
  C:824EH         LINE#         280
  C:825FH         LINE#         281
  C:828BH         LINE#         282
  C:8293H         LINE#         283
  C:829BH         LINE#         285
  C:82A4H         LINE#         286
  C:82B0H         LINE#         287
  C:82BAH         LINE#         289
  C:82C5H         LINE#         290
  C:82D1H         LINE#         291
  C:82DBH         LINE#         293
  C:82E0H         LINE#         294
  C:82E7H         LINE#         295
  -------         ENDPROC       _PCT_WRITEOSDFNTX
  -------         PROC          _PCT_CLEARWORDSPATHX
  X:00A8H         SYMBOL        _posx
  X:00A9H         SYMBOL        _posy
  X:00ABH         SYMBOL        _len
  -------         DO            
  X:00ACH         SYMBOL        wide
  X:00ADH         SYMBOL        high
  -------         ENDDO         
  C:859CH         LINE#         304
  C:859EH         LINE#         305
  C:859EH         LINE#         309
  C:85A4H         LINE#         310
  C:85AAH         LINE#         311
  C:85B0H         LINE#         312
  C:85B6H         LINE#         314
  C:85BDH         LINE#         315
  C:85C0H         LINE#         316
  C:85D0H         LINE#         318
  C:85D9H         LINE#         319
  C:85DEH         LINE#         321
  C:85E4H         LINE#         323
  C:85F5H         LINE#         324
  C:8603H         LINE#         326
  C:860CH         LINE#         327
  C:8614H         LINE#         328
  C:861CH         LINE#         329
  C:8624H         LINE#         330
  C:862FH         LINE#         332
  C:863EH         LINE#         333
  C:8648H         LINE#         334
  -------         ENDPROC       _PCT_CLEARWORDSPATHX
BL51 BANKED LINKER/LOCATER V6.22.2.0                                                  07/14/2021  16:13:00  PAGE 64


  -------         PROC          _PCT_WRITEOSDDATABUFFERY
  X:00D1H         SYMBOL        _index
  X:00D2H         SYMBOL        _dat
  C:7FB5H         LINE#         340
  C:7FBAH         LINE#         341
  C:7FBAH         LINE#         342
  C:7FC4H         LINE#         343
  C:7FE3H         LINE#         344
  C:8002H         LINE#         345
  C:8021H         LINE#         346
  C:8040H         LINE#         347
  C:8046H         LINE#         349
  C:8050H         LINE#         350
  C:806FH         LINE#         351
  C:808EH         LINE#         352
  C:80ADH         LINE#         353
  C:80CCH         LINE#         354
  -------         ENDPROC       _PCT_WRITEOSDDATABUFFERY
  -------         PROC          _PCT_WRITEOSDFNTY
  X:00B2H         SYMBOL        _posx
  X:00B3H         SYMBOL        _posy
  X:00B5H         SYMBOL        _len
  X:00B6H         SYMBOL        _indx
  -------         DO            
  D:0029H         SYMBOL        i
  D:002AH         SYMBOL        j
  X:00B9H         SYMBOL        charPtr
  -------         ENDDO         
  C:83E2H         LINE#         365
  C:83EAH         LINE#         366
  C:83EAH         LINE#         370
  C:83F1H         LINE#         371
  C:83F4H         LINE#         372
  C:8404H         LINE#         373
  C:840CH         LINE#         375
  C:841BH         LINE#         376
  C:8428H         LINE#         377
  C:8447H         LINE#         379
  C:8455H         LINE#         380
  C:847FH         LINE#         381
  C:8488H         LINE#         382
  C:8490H         LINE#         383
  C:84A9H         LINE#         384
  C:84B5H         LINE#         385
  C:84BFH         LINE#         386
  C:84C4H         LINE#         387
  C:84CBH         LINE#         388
  -------         ENDPROC       _PCT_WRITEOSDFNTY
  -------         PROC          _PCT_SHOWOSDSTRING
  X:00ABH         SYMBOL        _path
  X:00ACH         SYMBOL        _addrx
  X:00ADH         SYMBOL        _addry
  X:00AEH         SYMBOL        _strptr
  -------         DO            
  X:00B1H         SYMBOL        slen
  -------         ENDDO         
  C:8C82H         LINE#         394
BL51 BANKED LINKER/LOCATER V6.22.2.0                                                  07/14/2021  16:13:00  PAGE 65


  C:8C88H         LINE#         395
  C:8C88H         LINE#         398
  C:8C93H         LINE#         399
  C:8C9DH         LINE#         401
  C:8CA6H         LINE#         405
  C:8CA6H         LINE#         406
  C:8CA6H         LINE#         407
  C:8CB2H         LINE#         408
  C:8CB8H         LINE#         409
  C:8CBCH         LINE#         410
  C:8CBCH         LINE#         411
  C:8CC1H         LINE#         412
  C:8CC3H         LINE#         413
  C:8CC3H         LINE#         414
  C:8CCFH         LINE#         415
  C:8CD5H         LINE#         416
  C:8CD9H         LINE#         417
  C:8CD9H         LINE#         418
  C:8CDEH         LINE#         419
  C:8CDEH         LINE#         420
  C:8CE1H         LINE#         421
  -------         ENDPROC       _PCT_SHOWOSDSTRING
  -------         ENDMOD        OSDCTRL

  -------         MODULE        TIMER
  C:0000H         SYMBOL        _ICE_DUMMY_
  D:0090H         PUBLIC        P1
  D:00B0H         PUBLIC        P3
  C:96ADH         PUBLIC        InitialTimer0
  B:00A8H.7       PUBLIC        EA
  C:8EA2H         PUBLIC        Timer0_interrupt
  D:00A8H         PUBLIC        IE
  D:00B8H         PUBLIC        IP
  D:00D8H         PUBLIC        CCON
  D:00C0H         PUBLIC        WDTC
  D:0098H         PUBLIC        SCON
  D:0088H         PUBLIC        TCON
  D:0010H         PUBLIC        user_timer
  B:00A8H.1       PUBLIC        ET0
  B:0088H.5       PUBLIC        TF0
  D:008CH         PUBLIC        TH0
  D:00E8H         PUBLIC        IEA
  D:008AH         PUBLIC        TL0
  B:00B8H.1       PUBLIC        PT0
  B:0088H.4       PUBLIC        TR0
  D:00F8H         PUBLIC        IPA
  D:00C8H         PUBLIC        T2CON
  D:00D0H         PUBLIC        PSW
  -------         PROC          INITIALTIMER0
  -------         DO            
  D:0007H         SYMBOL        i
  -------         ENDDO         
  C:96ADH         LINE#         63
  C:96ADH         LINE#         66
  C:96AFH         LINE#         67
  C:96B1H         LINE#         68
  C:96B4H         LINE#         69
BL51 BANKED LINKER/LOCATER V6.22.2.0                                                  07/14/2021  16:13:00  PAGE 66


  C:96B7H         LINE#         70
  C:96B9H         LINE#         72
  C:96C5H         LINE#         73
  C:96D2H         LINE#         74
  -------         ENDPROC       INITIALTIMER0
  -------         PROC          TIMER0_INTERRUPT
  C:8EA2H         LINE#         80
  C:8EA6H         LINE#         82
  C:8EA8H         LINE#         83
  C:8EABH         LINE#         84
  C:8EAEH         LINE#         85
  C:8EB0H         LINE#         87
  C:8EC5H         LINE#         88
  C:8EDAH         LINE#         89
  C:8EEFH         LINE#         91
  C:8EF1H         LINE#         92
  -------         ENDPROC       TIMER0_INTERRUPT
  -------         ENDMOD        TIMER

  -------         MODULE        TW28XX_AUDIO
  C:0000H         SYMBOL        _ICE_DUMMY_
  D:0090H         PUBLIC        P1
  D:00B0H         PUBLIC        P3
  C:8BC0H         PUBLIC        _PCT_AudioMixCtrl
  C:9489H         PUBLIC        _PCT_AudioMixMute
  D:00A8H         PUBLIC        IE
  D:00B8H         PUBLIC        IP
  D:00D8H         PUBLIC        CCON
  D:00C0H         PUBLIC        WDTC
  D:0098H         PUBLIC        SCON
  D:0088H         PUBLIC        TCON
  D:00E8H         PUBLIC        IEA
  C:8D9AH         PUBLIC        _PCT_AudioGainCtrl
  D:00F8H         PUBLIC        IPA
  D:00C8H         PUBLIC        T2CON
  C:960DH         PUBLIC        _PCT_AudioSelLive
  D:00D0H         PUBLIC        PSW
  C:71A9H         PUBLIC        PCT_AudioRegList
  C:92B3H         SYMBOL        Com0017
  C:92B3H         SYMBOL        L?0024
  C:92B5H         SYMBOL        L?0025
  C:92C1H         SYMBOL        L?0026
  C:92CDH         SYMBOL        L?0028
  C:92D0H         SYMBOL        L?0029
  C:92DCH         SYMBOL        L?0031
  C:92E8H         SYMBOL        L?0032
  -------         PROC          COM0017
  -------         ENDPROC       COM0017
  C:729BH         SYMBOL        L?0014
  C:72ADH         SYMBOL        L?0015
  C:72BFH         SYMBOL        L?0016
  C:72D1H         SYMBOL        L?0017
  C:72E3H         SYMBOL        L?0018
  C:72F5H         SYMBOL        L?0019
  C:7307H         SYMBOL        L?0020
  C:7319H         SYMBOL        L?0021
  C:732BH         SYMBOL        L?0022
BL51 BANKED LINKER/LOCATER V6.22.2.0                                                  07/14/2021  16:13:00  PAGE 67


  C:733DH         SYMBOL        L?0027
  C:734FH         SYMBOL        L?0030
  -------         PROC          PCT_AUDIOREGLIST
  C:71A9H         LINE#         60
  C:71A9H         LINE#         61
  C:71A9H         LINE#         62
  C:71B4H         LINE#         63
  C:71BFH         LINE#         64
  C:71CAH         LINE#         65
  C:71D5H         LINE#         66
  C:71E0H         LINE#         68
  C:71EBH         LINE#         69
  C:71F6H         LINE#         70
  C:7201H         LINE#         71
  C:720CH         LINE#         72
  C:7217H         LINE#         73
  C:7222H         LINE#         74
  C:722DH         LINE#         75
  C:7238H         LINE#         77
  C:7243H         LINE#         78
  C:724EH         LINE#         79
  C:7259H         LINE#         80
  C:7264H         LINE#         81
  C:726FH         LINE#         83
  C:727AH         LINE#         84
  C:7285H         LINE#         85
  C:7290H         LINE#         86
  C:729BH         LINE#         87
  -------         ENDPROC       PCT_AUDIOREGLIST
  -------         PROC          _PCT_AUDIOGAINCTRL
  D:0007H         SYMBOL        _dvc
  X:00ABH         SYMBOL        _channel
  X:00ACH         SYMBOL        _gain
  -------         DO            
  D:0004H         SYMBOL        dat
  X:00ADH         SYMBOL        result
  C:930CH         SYMBOL        chanData
  -------         ENDDO         
  C:8D9AH         LINE#         93
  C:8DA1H         LINE#         94
  C:8DA1H         LINE#         110
  C:8DA3H         LINE#         111
  C:8DB0H         LINE#         113
  C:8DBFH         LINE#         114
  C:8DD4H         LINE#         116
  C:8DE3H         LINE#         117
  C:8DF2H         LINE#         118
  C:8DF4H         LINE#         119
  -------         ENDPROC       _PCT_AUDIOGAINCTRL
  -------         PROC          _PCT_AUDIOMIXCTRL
  X:00ABH         SYMBOL        _dvc
  X:00ACH         SYMBOL        _channel
  X:00ADH         SYMBOL        _gain
  -------         DO            
  D:0004H         SYMBOL        dat
  X:00AEH         SYMBOL        result
  C:9320H         SYMBOL        chanData
BL51 BANKED LINKER/LOCATER V6.22.2.0                                                  07/14/2021  16:13:00  PAGE 68


  -------         ENDDO         
  C:8BC0H         LINE#         126
  C:8BCAH         LINE#         127
  C:8BCAH         LINE#         143
  C:8BCEH         LINE#         144
  C:8BD9H         LINE#         146
  C:8BE8H         LINE#         147
  C:8BFDH         LINE#         149
  C:8C09H         LINE#         150
  C:8C15H         LINE#         152
  C:8C1EH         LINE#         153
  C:8C20H         LINE#         154
  -------         ENDPROC       _PCT_AUDIOMIXCTRL
  -------         PROC          _PCT_AUDIOMIXMUTE
  D:0007H         SYMBOL        _dvc
  X:00ABH         SYMBOL        _ch
  X:00ACH         SYMBOL        _ctrl
  -------         DO            
  D:0031H         SYMBOL        dat
  -------         ENDDO         
  C:9489H         LINE#         160
  C:9490H         LINE#         161
  C:9490H         LINE#         167
  C:9492H         LINE#         168
  C:949AH         LINE#         169
  C:94A1H         LINE#         170
  C:94A6H         LINE#         171
  C:94A8H         LINE#         172
  C:94ADH         LINE#         173
  C:94ADH         LINE#         174
  C:94BAH         LINE#         176
  C:94BCH         LINE#         177
  -------         ENDPROC       _PCT_AUDIOMIXMUTE
  -------         PROC          _PCT_AUDIOSELLIVE
  D:0007H         SYMBOL        _dvc
  X:00AFH         SYMBOL        _chan
  C:960DH         LINE#         183
  C:9611H         LINE#         184
  C:9611H         LINE#         188
  C:9613H         LINE#         189
  C:9617H         LINE#         190
  C:9620H         LINE#         191
  C:9622H         LINE#         192
  C:9622H         LINE#         194
  C:9628H         LINE#         195
  C:9633H         LINE#         196
  C:9635H         LINE#         197
  -------         ENDPROC       _PCT_AUDIOSELLIVE
  -------         ENDMOD        TW28XX_AUDIO

  -------         MODULE        TW28XX_VIDEO
  C:0000H         SYMBOL        _ICE_DUMMY_
  C:4EEEH         PUBLIC        Video_HDelay37
  C:9372H         PUBLIC        _PCT_WinAttrClear
  D:0090H         PUBLIC        P1
  D:00B0H         PUBLIC        P3
  C:4F0AH         PUBLIC        VidoW2_ModifyACHM
BL51 BANKED LINKER/LOCATER V6.22.2.0                                                  07/14/2021  16:13:00  PAGE 69


  C:93E6H         PUBLIC        _PCT_WinAttrCtrlY
  C:4EFEH         PUBLIC        VidoW2_ModifyACNM
  C:8815H         PUBLIC        _PCT_DetectVideoFormat
  D:00A8H         PUBLIC        IE
  C:4EDEH         PUBLIC        Video_HDelay
  C:4F22H         PUBLIC        VidoW2_ModifyRBHM
  C:74F6H         PUBLIC        _PCT_RecompenseYHdelay
  D:00B8H         PUBLIC        IP
  C:4F16H         PUBLIC        VidoW2_ModifyRBNM
  C:4FBBH         PUBLIC        XWinAttr_RegAddr
  D:00D8H         PUBLIC        CCON
  C:4FDBH         PUBLIC        YWinAttr_RegAddr
  C:4EC0H         PUBLIC        Video_HDelayInit
  C:53F9H         PUBLIC        _PCT_SetVideoHDelay
  C:9556H         PUBLIC        _PCT_WinAttrCtrl
  C:86E7H         PUBLIC        _PCT_SetChanelScale
  D:00C0H         PUBLIC        WDTC
  D:0098H         PUBLIC        SCON
  D:0088H         PUBLIC        TCON
  C:7361H         PUBLIC        _PCT_SetXVideoMixing
  C:985EH         PUBLIC        _PCT_SetYVideoMixing
  C:4F3AH         PUBLIC        Init_Vido_Y
  C:4F2EH         PUBLIC        VidoW2_ModifyACHM_PAL
  D:00E8H         PUBLIC        IEA
  D:00F8H         PUBLIC        IPA
  C:965EH         PUBLIC        _PCT_SetVideoFormat
  D:00C8H         PUBLIC        T2CON
  C:4B90H         PUBLIC        Init_Vido_W1
  C:4C02H         PUBLIC        Init_Vido_W2
  C:4C86H         PUBLIC        Init_Vido_W3
  C:4FCBH         PUBLIC        XWinPOP_RegAddr
  C:4E4EH         PUBLIC        Init_Vido_W4
  D:00D0H         PUBLIC        PSW
  C:7D55H         SYMBOL        Com0077
  C:7D55H         SYMBOL        L?0120
  C:7D5AH         SYMBOL        L?0121
  C:7D61H         SYMBOL        L?0122
  C:7D6BH         SYMBOL        L?0123
  C:7D74H         SYMBOL        L?0124
  C:7D76H         SYMBOL        L?0125
  C:7D77H         SYMBOL        L?0126
  C:7D79H         SYMBOL        L?0127
  C:7D82H         SYMBOL        L?0129
  C:7D82H         SYMBOL        L?0130
  C:7D90H         SYMBOL        L?0135
  C:7D90H         SYMBOL        L?0136
  C:7D93H         SYMBOL        L?0137
  C:7D9EH         SYMBOL        L?0138
  C:7DA1H         SYMBOL        L?0139
  C:7DAFH         SYMBOL        L?0145
  C:7DB0H         SYMBOL        L?0146
  C:7DB9H         SYMBOL        L?0147
  C:7DC5H         SYMBOL        L?0149
  C:7DC5H         SYMBOL        L?0150
  C:7DC9H         SYMBOL        L?0151
  C:7DCCH         SYMBOL        L?0152
  C:7DD4H         SYMBOL        L?0156
BL51 BANKED LINKER/LOCATER V6.22.2.0                                                  07/14/2021  16:13:00  PAGE 70


  C:7DD4H         SYMBOL        L?0157
  C:7DDEH         SYMBOL        L?0159
  C:7DDEH         SYMBOL        L?0160
  C:7DE1H         SYMBOL        L?0161
  C:7DE9H         SYMBOL        L?0162
  C:7E0BH         SYMBOL        L?0163
  C:7E0BH         SYMBOL        L?0164
  C:7E11H         SYMBOL        L?0166
  C:7E11H         SYMBOL        L?0167
  C:7E17H         SYMBOL        L?0169
  C:7E1CH         SYMBOL        L?0170
  C:7E23H         SYMBOL        L?0171
  C:7E23H         SYMBOL        L?0172
  C:7E2EH         SYMBOL        L?0173
  C:7E35H         SYMBOL        L?0174
  C:7E3CH         SYMBOL        L?0175
  C:7E3CH         SYMBOL        L?0176
  C:7E42H         SYMBOL        L?0177
  C:7E42H         SYMBOL        L?0178
  C:7E4AH         SYMBOL        L?0179
  C:7E4AH         SYMBOL        L?0180
  C:7E52H         SYMBOL        L?0185
  C:7E5EH         SYMBOL        L?0186
  C:7E6AH         SYMBOL        L?0188
  C:7E75H         SYMBOL        L?0189
  C:7E75H         SYMBOL        L?0190
  C:7E7CH         SYMBOL        L?0191
  -------         PROC          COM0077
  -------         ENDPROC       COM0077
  C:8899H         SYMBOL        L?0187
  -------         PROC          _PCT_DETECTVIDEOFORMAT
  X:00A5H         SYMBOL        _ch
  -------         DO            
  X:00A6H         SYMBOL        tmpSta
  -------         ENDDO         
  C:8815H         LINE#         78
  C:8819H         LINE#         79
  C:8819H         LINE#         85
  C:881CH         LINE#         87
  C:8823H         LINE#         88
  C:8823H         LINE#         89
  C:8831H         LINE#         90
  C:8831H         LINE#         91
  C:883CH         LINE#         92
  C:883CH         LINE#         94
  C:8842H         LINE#         95
  C:8845H         LINE#         97
  C:884BH         LINE#         98
  C:8850H         LINE#         100
  C:8856H         LINE#         101
  C:8856H         LINE#         102
  C:8859H         LINE#         103
  C:8859H         LINE#         105
  C:8859H         LINE#         106
  C:885CH         LINE#         107
  C:885CH         LINE#         110
  C:885CH         LINE#         112
BL51 BANKED LINKER/LOCATER V6.22.2.0                                                  07/14/2021  16:13:00  PAGE 71


  C:885CH         LINE#         113
  C:886BH         LINE#         114
  C:8874H         LINE#         116
  C:887AH         LINE#         117
  C:887DH         LINE#         119
  C:8883H         LINE#         120
  C:8889H         LINE#         121
  C:8898H         LINE#         123
  C:8898H         LINE#         134
  -------         ENDPROC       _PCT_DETECTVIDEOFORMAT
  -------         PROC          _PCT_SETVIDEOFORMAT
  D:0007H         SYMBOL        _dvc
  D:0005H         SYMBOL        _ch
  X:00ABH         SYMBOL        _fmat
  -------         DO            
  D:0007H         SYMBOL        tmpSta
  X:00ACH         SYMBOL        addr
  -------         ENDDO         
  C:965EH         LINE#         140
  C:9662H         LINE#         141
  C:9662H         LINE#         144
  C:9662H         LINE#         145
  C:966DH         LINE#         146
  C:9673H         LINE#         149
  C:9677H         LINE#         151
  C:967CH         LINE#         152
  -------         ENDPROC       _PCT_SETVIDEOFORMAT
  C:8745H         SYMBOL        L?0142
  -------         PROC          _PCT_SETCHANELSCALE
  D:0007H         SYMBOL        _ch
  X:00ACH         SYMBOL        datptr
  -------         DO            
  C:4FE3H         SYMBOL        ScaleRgeAddr
  X:00AFH         SYMBOL        addrptr
  X:00B2H         SYMBOL        value
  -------         ENDDO         
  C:86E7H         LINE#         161
  C:86EDH         LINE#         162
  C:86EDH         LINE#         174
  C:86FDH         LINE#         175
  C:870FH         LINE#         176
  C:8714H         LINE#         177
  C:8714H         LINE#         178
  C:871FH         LINE#         179
  C:872AH         LINE#         180
  C:873AH         LINE#         181
  C:873AH         LINE#         182
  C:8745H         LINE#         183
  -------         ENDPROC       _PCT_SETCHANELSCALE
  C:567DH         SYMBOL        L?0118
  C:56C6H         SYMBOL        L?0128
  C:56DBH         SYMBOL        L?0131
  C:56F0H         SYMBOL        L?0132
  C:5707H         SYMBOL        L?0133
  C:5719H         SYMBOL        L?0134
  C:572DH         SYMBOL        L?0140
  C:5742H         SYMBOL        L?0141
BL51 BANKED LINKER/LOCATER V6.22.2.0                                                  07/14/2021  16:13:00  PAGE 72


  C:5756H         SYMBOL        L?0143
  C:5768H         SYMBOL        L?0144
  C:577FH         SYMBOL        L?0148
  C:5794H         SYMBOL        L?0154
  C:57A8H         SYMBOL        L?0158
  C:57BAH         SYMBOL        L?0182
  -------         PROC          _PCT_SETVIDEOHDELAY
  D:0007H         SYMBOL        _typ
  X:00A6H         SYMBOL        _winch
  X:00A9H         SYMBOL        _cattr
  -------         DO            
  X:00ACH         SYMBOL        hdelay
  X:00ADH         SYMBOL        ptr_Video_HDelay
  -------         ENDDO         
  C:53F9H         LINE#         186
  C:53FFH         LINE#         187
  C:53FFH         LINE#         195
  C:5408H         LINE#         196
  C:540DH         LINE#         198
  C:5410H         LINE#         200
  C:5442H         LINE#         201
  C:5442H         LINE#         202
  C:5442H         LINE#         207
  C:5447H         LINE#         208
  C:5450H         LINE#         209
  C:545CH         LINE#         210
  C:5462H         LINE#         212
  C:5464H         LINE#         213
  C:5473H         LINE#         214
  C:5479H         LINE#         215
  C:547CH         LINE#         217
  C:547CH         LINE#         218
  C:547CH         LINE#         220
  C:547CH         LINE#         221
  C:5485H         LINE#         222
  C:5493H         LINE#         223
  C:5499H         LINE#         225
  C:549EH         LINE#         226
  C:549EH         LINE#         227
  C:54AFH         LINE#         228
  C:54B5H         LINE#         230
  C:54B8H         LINE#         232
  C:54B8H         LINE#         233
  C:54B8H         LINE#         235
  C:54B8H         LINE#         236
  C:54C2H         LINE#         237
  C:54D0H         LINE#         238
  C:54D6H         LINE#         240
  C:54D6H         LINE#         241
  C:54D6H         LINE#         242
  C:54E1H         LINE#         243
  C:54E7H         LINE#         244
  C:54EAH         LINE#         246
  C:54EAH         LINE#         247
  C:54EAH         LINE#         249
  C:54EAH         LINE#         250
  C:54F3H         LINE#         251
BL51 BANKED LINKER/LOCATER V6.22.2.0                                                  07/14/2021  16:13:00  PAGE 73


  C:5501H         LINE#         252
  C:5507H         LINE#         254
  C:5507H         LINE#         255
  C:5513H         LINE#         256
  C:5521H         LINE#         257
  C:5527H         LINE#         259
  C:5530H         LINE#         260
  C:5533H         LINE#         261
  C:5544H         LINE#         262
  C:554AH         LINE#         263
  C:554DH         LINE#         265
  C:554DH         LINE#         266
  C:554DH         LINE#         267
  C:554DH         LINE#         269
  C:554DH         LINE#         270
  C:554DH         LINE#         273
  C:554DH         LINE#         274
  C:5557H         LINE#         275
  C:5565H         LINE#         276
  C:556BH         LINE#         278
  C:556BH         LINE#         279
  C:556BH         LINE#         280
  C:5573H         LINE#         281
  C:5579H         LINE#         283
  C:557EH         LINE#         284
  C:5587H         LINE#         285
  C:5598H         LINE#         286
  C:559EH         LINE#         287
  C:55A1H         LINE#         289
  C:55A1H         LINE#         290
  C:55A1H         LINE#         293
  C:55A1H         LINE#         294
  C:55ABH         LINE#         295
  C:55B9H         LINE#         296
  C:55BFH         LINE#         298
  C:55BFH         LINE#         299
  C:55BFH         LINE#         300
  C:55CDH         LINE#         301
  C:55D3H         LINE#         303
  C:55D3H         LINE#         304
  C:55DFH         LINE#         305
  C:55F0H         LINE#         306
  C:55F6H         LINE#         307
  C:55F9H         LINE#         309
  C:55F9H         LINE#         310
  C:55F9H         LINE#         313
  C:55F9H         LINE#         314
  C:5603H         LINE#         315
  C:5611H         LINE#         316
  C:5617H         LINE#         318
  C:5617H         LINE#         319
  C:5617H         LINE#         320
  C:5625H         LINE#         321
  C:562BH         LINE#         323
  C:562BH         LINE#         324
  C:5637H         LINE#         325
  C:5645H         LINE#         326
BL51 BANKED LINKER/LOCATER V6.22.2.0                                                  07/14/2021  16:13:00  PAGE 74


  C:5651H         LINE#         328
  C:5656H         LINE#         329
  C:565FH         LINE#         330
  C:5670H         LINE#         331
  C:567CH         LINE#         332
  C:567CH         LINE#         334
  C:567CH         LINE#         335
  C:567CH         LINE#         336
  C:567CH         LINE#         337
  -------         ENDPROC       _PCT_SETVIDEOHDELAY
  C:74E1H         SYMBOL        L?0168
  C:74EEH         SYMBOL        L?0181
  -------         PROC          _PCT_SETXVIDEOMIXING
  X:00A5H         SYMBOL        _typ
  X:00A6H         SYMBOL        _winch
  -------         DO            
  X:00A9H         SYMBOL        wregptr
  -------         ENDDO         
  C:7361H         LINE#         340
  C:736AH         LINE#         341
  C:736AH         LINE#         344
  C:737AH         LINE#         345
  C:738AH         LINE#         346
  C:739EH         LINE#         347
  C:73B2H         LINE#         349
  C:73E8H         LINE#         350
  C:73E8H         LINE#         351
  C:73E8H         LINE#         355
  C:73F7H         LINE#         356
  C:7401H         LINE#         357
  C:7401H         LINE#         358
  C:7404H         LINE#         360
  C:7404H         LINE#         361
  C:7404H         LINE#         362
  C:7404H         LINE#         363
  C:7404H         LINE#         364
  C:7413H         LINE#         365
  C:7415H         LINE#         367
  C:7426H         LINE#         368
  C:7431H         LINE#         369
  C:7431H         LINE#         370
  C:7434H         LINE#         372
  C:7434H         LINE#         373
  C:7434H         LINE#         374
  C:7434H         LINE#         375
  C:7434H         LINE#         376
  C:7434H         LINE#         377
  C:7434H         LINE#         378
  C:7434H         LINE#         379
  C:7434H         LINE#         380
  C:7443H         LINE#         381
  C:7445H         LINE#         383
  C:7456H         LINE#         384
  C:746AH         LINE#         385
  C:747BH         LINE#         386
  C:7480H         LINE#         387
  C:7483H         LINE#         389
BL51 BANKED LINKER/LOCATER V6.22.2.0                                                  07/14/2021  16:13:00  PAGE 75


  C:7483H         LINE#         390
  C:7483H         LINE#         391
  C:7492H         LINE#         392
  C:74A2H         LINE#         393
  C:74B3H         LINE#         394
  C:74C4H         LINE#         395
  C:74D2H         LINE#         396
  C:74E0H         LINE#         397
  C:74E0H         LINE#         399
  C:74E0H         LINE#         400
  C:74E0H         LINE#         401
  C:74E0H         LINE#         402
  -------         ENDPROC       _PCT_SETXVIDEOMIXING
  -------         PROC          _PCT_SETYVIDEOMIXING
  D:0007H         SYMBOL        _typ
  C:985EH         LINE#         408
  C:985EH         LINE#         409
  C:985EH         LINE#         410
  -------         ENDPROC       _PCT_SETYVIDEOMIXING
  C:7649H         SYMBOL        L?0153
  C:7656H         SYMBOL        L?0155
  C:7663H         SYMBOL        L?0165
  C:7670H         SYMBOL        L?0183
  C:7677H         SYMBOL        L?0184
  -------         PROC          _PCT_RECOMPENSEYHDELAY
  X:00A5H         SYMBOL        _chmiro
  -------         DO            
  X:00A8H         SYMBOL        ptr_Video_HDelay
  -------         ENDDO         
  C:74F6H         LINE#         414
  C:74FCH         LINE#         415
  C:74FCH         LINE#         419
  C:7505H         LINE#         420
  C:750AH         LINE#         422
  C:750DH         LINE#         425
  C:753AH         LINE#         426
  C:753AH         LINE#         428
  C:7553H         LINE#         429
  C:755CH         LINE#         430
  C:7579H         LINE#         431
  C:7582H         LINE#         432
  C:759BH         LINE#         433
  C:75A7H         LINE#         434
  C:75C7H         LINE#         435
  C:75C7H         LINE#         436
  C:75CAH         LINE#         438
  C:75CAH         LINE#         439
  C:75E0H         LINE#         440
  C:75E6H         LINE#         441
  C:75E9H         LINE#         443
  C:75E9H         LINE#         444
  C:75FFH         LINE#         445
  C:7605H         LINE#         446
  C:7608H         LINE#         448
  C:7608H         LINE#         449
  C:761EH         LINE#         450
  C:7624H         LINE#         451
BL51 BANKED LINKER/LOCATER V6.22.2.0                                                  07/14/2021  16:13:00  PAGE 76


  C:7626H         LINE#         453
  C:7626H         LINE#         454
  C:763CH         LINE#         455
  C:7648H         LINE#         456
  C:7648H         LINE#         457
  C:7648H         LINE#         458
  -------         ENDPROC       _PCT_RECOMPENSEYHDELAY
  -------         PROC          _PCT_WINATTRCTRL
  X:00ABH         SYMBOL        _wid
  X:00ACH         SYMBOL        _attrsel
  X:00ADH         SYMBOL        _setval
  -------         DO            
  D:0004H         SYMBOL        dat
  -------         ENDDO         
  C:9556H         LINE#         509
  C:9561H         LINE#         510
  C:9561H         LINE#         516
  C:956BH         LINE#         517
  C:957CH         LINE#         518
  -------         ENDPROC       _PCT_WINATTRCTRL
  -------         PROC          _PCT_WINATTRCTRLY
  X:00A5H         SYMBOL        _wid
  X:00A6H         SYMBOL        _attrsel
  X:00A7H         SYMBOL        _setval
  -------         DO            
  D:0004H         SYMBOL        dat
  -------         ENDDO         
  C:93E6H         LINE#         527
  C:93F1H         LINE#         528
  C:93F1H         LINE#         533
  C:93FEH         LINE#         534
  C:940FH         LINE#         535
  -------         ENDPROC       _PCT_WINATTRCTRLY
  -------         PROC          _PCT_WINATTRCLEAR
  X:00A5H         SYMBOL        _attrsel
  -------         DO            
  X:00A6H         SYMBOL        _wid
  X:00A7H         SYMBOL        dat
  -------         ENDDO         
  C:9372H         LINE#         544
  C:9376H         LINE#         545
  C:9376H         LINE#         552
  C:9386H         LINE#         553
  C:9393H         LINE#         554
  C:939CH         LINE#         555
  C:93A6H         LINE#         556
  C:93ADH         LINE#         557
  -------         ENDPROC       _PCT_WINATTRCLEAR
  -------         ENDMOD        TW28XX_VIDEO

  -------         MODULE        TW2835_INIT
  C:0000H         SYMBOL        _ICE_DUMMY_
  D:0090H         PUBLIC        P1
  D:00B0H         PUBLIC        P3
  D:00A8H         PUBLIC        IE
  C:33ACH         PUBLIC        TW2835_Page0
  C:35ACH         PUBLIC        TW2835_Page1
BL51 BANKED LINKER/LOCATER V6.22.2.0                                                  07/14/2021  16:13:00  PAGE 77


  C:37ACH         PUBLIC        TW2837_Page0
  C:39ACH         PUBLIC        TW2837_Page1
  C:3BACH         PUBLIC        TW2837_Page2
  C:8C21H         PUBLIC        PCT_InitialTW2835
  D:00B8H         PUBLIC        IP
  C:3C2CH         PUBLIC        tbl_ntsc_pg1_pic_fl
  C:3C3CH         PUBLIC        tbl_ntsc_pg1_pic_qd
  C:9886H         PUBLIC        PCT_TW2835ResetN
  C:3C7CH         PUBLIC        tbl_pal_pg1_pic_qd
  D:00D8H         PUBLIC        CCON
  D:00C0H         PUBLIC        WDTC
  D:0098H         PUBLIC        SCON
  C:3C5CH         PUBLIC        tbl_ntsc_pg1_pic_9_rb
  D:0088H         PUBLIC        TCON
  C:3C9CH         PUBLIC        tbl_pal_pg1_pic_9_rb
  C:97D8H         PUBLIC        PCT_TW2837IDCheck
  C:3C4CH         PUBLIC        tbl_ntsc_pg1_pic_9_lt
  C:877EH         PUBLIC        _PCT_ChangeSystemType
  C:3C8CH         PUBLIC        tbl_pal_pg1_pic_9_lt
  D:00E8H         PUBLIC        IEA
  D:00F8H         PUBLIC        IPA
  C:3C6CH         PUBLIC        tbl_ntsc_pg1_enc
  C:3CACH         PUBLIC        tbl_pal_pg1_enc
  D:00C8H         PUBLIC        T2CON
  B:00B0H.4       PUBLIC        RSTn
  X:009AH         PUBLIC        TW2837IDCheck
  C:6E10H         PUBLIC        PCT_TW2835_Initial
  D:00D0H         PUBLIC        PSW
  C:95B5H         SYMBOL        Com001B
  C:95B5H         SYMBOL        L?0028
  C:95BEH         SYMBOL        L?0029
  C:95CDH         SYMBOL        L?0042
  C:95D9H         SYMBOL        L?0043
  -------         PROC          COM001B
  -------         ENDPROC       COM001B
  C:8C78H         SYMBOL        L?0044
  -------         PROC          PCT_INITIALTW2835
  C:8C21H         LINE#         73
  C:8C21H         LINE#         74
  C:8C21H         LINE#         75
  C:8C24H         LINE#         76
  C:8C28H         LINE#         79
  C:8C2DH         LINE#         81
  C:8C30H         LINE#         83
  C:8C38H         LINE#         85
  C:8C3FH         LINE#         86
  C:8C3FH         LINE#         87
  C:8C45H         LINE#         89
  C:8C4EH         LINE#         90
  C:8C4EH         LINE#         91
  C:8C50H         LINE#         92
  C:8C50H         LINE#         94
  C:8C50H         LINE#         96
  C:8C50H         LINE#         97
  C:8C59H         LINE#         98
  C:8C62H         LINE#         99
  C:8C64H         LINE#         100
BL51 BANKED LINKER/LOCATER V6.22.2.0                                                  07/14/2021  16:13:00  PAGE 78


  C:8C64H         LINE#         102
  C:8C64H         LINE#         103
  C:8C6BH         LINE#         104
  C:8C6DH         LINE#         105
  C:8C72H         LINE#         107
  C:8C75H         LINE#         108
  C:8C78H         LINE#         109
  -------         ENDPROC       PCT_INITIALTW2835
  -------         PROC          PCT_TW2835RESETN
  -------         DO            
  D:0006H         SYMBOL        _delay
  -------         ENDDO         
  C:9886H         LINE#         115
  C:9886H         LINE#         116
  C:9886H         LINE#         131
  C:9888H         LINE#         132
  C:9896H         LINE#         133
  C:9898H         LINE#         135
  -------         ENDPROC       PCT_TW2835RESETN
  -------         PROC          PCT_TW2837IDCHECK
  C:97D8H         LINE#         142
  C:97D8H         LINE#         143
  C:97D8H         LINE#         144
  C:97E7H         LINE#         145
  C:97ECH         LINE#         147
  C:97F0H         LINE#         148
  -------         ENDPROC       PCT_TW2837IDCHECK
  C:6F54H         SYMBOL        L?0030
  C:6F6AH         SYMBOL        L?0031
  C:6F7DH         SYMBOL        L?0032
  C:6F93H         SYMBOL        L?0033
  C:6FA2H         SYMBOL        L?0035
  C:6FB4H         SYMBOL        L?0036
  C:6FC4H         SYMBOL        L?0038
  C:6FD2H         SYMBOL        L?0039
  C:6FDFH         SYMBOL        L?0041
  -------         PROC          PCT_TW2835_INITIAL
  -------         DO            
  X:00A5H         SYMBOL        offset
  -------         ENDDO         
  C:6E10H         LINE#         154
  C:6E10H         LINE#         155
  C:6E10H         LINE#         158
  C:6E15H         LINE#         159
  C:6E1DH         LINE#         160
  C:6E1DH         LINE#         162
  C:6E24H         LINE#         164
  C:6E34H         LINE#         165
  C:6E44H         LINE#         167
  C:6E5AH         LINE#         169
  C:6E68H         LINE#         171
  C:6E73H         LINE#         173
  C:6E83H         LINE#         176
  C:6E93H         LINE#         177
  C:6EA3H         LINE#         178
  C:6EBAH         LINE#         180
  C:6EC1H         LINE#         181
BL51 BANKED LINKER/LOCATER V6.22.2.0                                                  07/14/2021  16:13:00  PAGE 79


  C:6ECAH         LINE#         182
  C:6ED2H         LINE#         183
  C:6EDDH         LINE#         184
  C:6EE1H         LINE#         185
  C:6EE3H         LINE#         186
  C:6EE3H         LINE#         187
  C:6EECH         LINE#         188
  C:6EFCH         LINE#         189
  C:6F04H         LINE#         190
  C:6F0FH         LINE#         191
  C:6F1CH         LINE#         192
  C:6F1CH         LINE#         194
  C:6F1CH         LINE#         196
  C:6F1CH         LINE#         197
  C:6F26H         LINE#         198
  C:6F31H         LINE#         200
  C:6F3CH         LINE#         202
  C:6F53H         LINE#         204
  C:6F53H         LINE#         208
  -------         ENDPROC       PCT_TW2835_INITIAL
  C:87DFH         SYMBOL        L?0034
  C:87F2H         SYMBOL        L?0037
  C:8804H         SYMBOL        L?0040
  -------         PROC          _PCT_CHANGESYSTEMTYPE
  D:0007H         SYMBOL        _sys
  -------         DO            
  X:009FH         SYMBOL        offset
  -------         ENDDO         
  C:877EH         LINE#         214
  C:877EH         LINE#         215
  C:877EH         LINE#         218
  C:8781H         LINE#         220
  C:8788H         LINE#         221
  C:8788H         LINE#         222
  C:878BH         LINE#         224
  C:8796H         LINE#         226
  C:87A1H         LINE#         227
  C:87A9H         LINE#         228
  C:87ABH         LINE#         230
  C:87ABH         LINE#         231
  C:87B1H         LINE#         233
  C:87BCH         LINE#         235
  C:87C7H         LINE#         236
  C:87DEH         LINE#         238
  C:87DEH         LINE#         240
  -------         ENDPROC       _PCT_CHANGESYSTEMTYPE
  -------         ENDMOD        TW2835_INIT

  -------         MODULE        ?C?CLDPTR
  C:4FF3H         PUBLIC        ?C?CLDPTR
  -------         ENDMOD        ?C?CLDPTR

  -------         MODULE        ?C?CLDOPTR
  C:500CH         PUBLIC        ?C?CLDOPTR
  -------         ENDMOD        ?C?CLDOPTR

  -------         MODULE        ?C?CSTPTR
BL51 BANKED LINKER/LOCATER V6.22.2.0                                                  07/14/2021  16:13:00  PAGE 80


  C:5039H         PUBLIC        ?C?CSTPTR
  -------         ENDMOD        ?C?CSTPTR

  -------         MODULE        ?C?IMUL
  C:504BH         PUBLIC        ?C?IMUL
  -------         ENDMOD        ?C?IMUL

  -------         MODULE        ?C?ILDPTR
  C:505DH         PUBLIC        ?C?ILDPTR
  -------         ENDMOD        ?C?ILDPTR

  -------         MODULE        ?C?IILDOPTR
  C:5088H         PUBLIC        ?C?IILDOPTR
  -------         ENDMOD        ?C?IILDOPTR

  -------         MODULE        ?C?ULCMP
  C:50D5H         PUBLIC        ?C?ULCMP
  -------         ENDMOD        ?C?ULCMP

  -------         MODULE        ?C?PLDPTR
  C:50E6H         PUBLIC        ?C?PLDPTR
  -------         ENDMOD        ?C?PLDPTR

  -------         MODULE        ?C?PSTPTR
  C:5106H         PUBLIC        ?C?PSTPTR
  -------         ENDMOD        ?C?PSTPTR

  -------         MODULE        ?C?CCASE
  C:5155H         PUBLIC        ?C?CCASE
  -------         ENDMOD        ?C?CCASE

  -------         MODULE        PRINTF
  X:00A5H         PUBLIC        ?_PRINTF517?BYTE
  X:00A5H         PUBLIC        ?_PRINTF?BYTE
  X:00A5H         PUBLIC        ?_SPRINTF517?BYTE
  X:00A5H         PUBLIC        ?_SPRINTF?BYTE
  C:5BF3H         PUBLIC        _PRINTF
  C:5BF3H         PUBLIC        _PRINTF517
  C:5BEDH         PUBLIC        _SPRINTF
  C:5BEDH         PUBLIC        _SPRINTF517
  -------         ENDMOD        PRINTF

  -------         MODULE        PUTS
  C:95E3H         PUBLIC        _PUTS
  -------         ENDMOD        PUTS

  -------         MODULE        SCANF
  X:00ABH         PUBLIC        ?_SCANF517?BYTE
  X:00ABH         PUBLIC        ?_SCANF?BYTE
  X:00ABH         PUBLIC        ?_SSCANF517?BYTE
  X:00ABH         PUBLIC        ?_SSCANF?BYTE
  C:5F6EH         PUBLIC        _SCANF
  C:5F6EH         PUBLIC        _SCANF517
  C:5F6AH         PUBLIC        _SSCANF
  C:5F6AH         PUBLIC        _SSCANF517
  -------         ENDMOD        SCANF

BL51 BANKED LINKER/LOCATER V6.22.2.0                                                  07/14/2021  16:13:00  PAGE 81


  -------         MODULE        ?C?STRCMP
  C:52F9H         PUBLIC        ?C?STRCMP
  -------         ENDMOD        ?C?STRCMP

  -------         MODULE        STRLEN
  C:000EH         PUBLIC        _STRLEN
  -------         ENDMOD        STRLEN

  -------         MODULE        ATOI
  C:84CCH         PUBLIC        _atoi
  -------         ENDMOD        ATOI

  -------         MODULE        ?C?IILDX
  C:5316H         PUBLIC        ?C?IILDX
  -------         ENDMOD        ?C?IILDX

  -------         MODULE        ?C?ISTPTR
  C:532CH         PUBLIC        ?C?ISTPTR
  -------         ENDMOD        ?C?ISTPTR

  -------         MODULE        ?C?LNEG
  C:534BH         PUBLIC        ?C?LNEG
  -------         ENDMOD        ?C?LNEG

  -------         MODULE        ?C?LSTPTR
  C:5359H         PUBLIC        ?C?LSTPTR
  -------         ENDMOD        ?C?LSTPTR

  -------         MODULE        ?C?PLDIDATA
  C:5373H         PUBLIC        ?C?PLDIDATA
  -------         ENDMOD        ?C?PLDIDATA

  -------         MODULE        ?C?PSTIDATA
  C:537CH         PUBLIC        ?C?PSTIDATA
  -------         ENDMOD        ?C?PSTIDATA

  -------         MODULE        ?C?PLDXDATA
  C:5385H         PUBLIC        ?C?PLDXDATA
  -------         ENDMOD        ?C?PLDXDATA

  -------         MODULE        ?C?PSTXDATA
  C:538EH         PUBLIC        ?C?PSTXDATA
  -------         ENDMOD        ?C?PSTXDATA

  -------         MODULE        ?C?PLDPDATA
  C:5397H         PUBLIC        ?C?PLDPDATA
  -------         ENDMOD        ?C?PLDPDATA

  -------         MODULE        ?C?PLDIPDATA
  C:53A0H         PUBLIC        ?C?PLDIPDATA
  -------         ENDMOD        ?C?PLDIPDATA

  -------         MODULE        ?C?PILDPDATA
  C:53B0H         PUBLIC        ?C?PILDPDATA
  -------         ENDMOD        ?C?PILDPDATA

  -------         MODULE        ?C?PSTPDATA
BL51 BANKED LINKER/LOCATER V6.22.2.0                                                  07/14/2021  16:13:00  PAGE 82


  C:53C0H         PUBLIC        ?C?PSTPDATA
  -------         ENDMOD        ?C?PSTPDATA

  -------         MODULE        ?C?PLDCODE
  C:53C9H         PUBLIC        ?C?PLDCODE
  -------         ENDMOD        ?C?PLDCODE

  -------         MODULE        PUTCHAR
  C:9686H         PUBLIC        _PUTCHAR
  -------         ENDMOD        PUTCHAR

  -------         MODULE        GETCHAR
  B:0024H.2       PUBLIC        ?C?CHARLOADED
  X:009BH         PUBLIC        ?_UNGETCHAR?BYTE
  C:9899H         PUBLIC        GETCHAR
  -------         ENDMOD        GETCHAR

  -------         MODULE        UNGETC
  C:994FH         PUBLIC        _UNGETCHAR
  -------         ENDMOD        UNGETC

  -------         MODULE        ISDIGIT
  C:98FBH         PUBLIC        _isdigit
  -------         ENDMOD        ISDIGIT

  -------         MODULE        ISSPACE
  C:9872H         PUBLIC        _isspace
  -------         ENDMOD        ISSPACE

  -------         MODULE        ?C?LSTIDATA
  C:53D5H         PUBLIC        ?C?LSTIDATA
  -------         ENDMOD        ?C?LSTIDATA

  -------         MODULE        ?C?LSTXDATA
  C:53E1H         PUBLIC        ?C?LSTXDATA
  -------         ENDMOD        ?C?LSTXDATA

  -------         MODULE        ?C?LSTPDATA
  C:53EDH         PUBLIC        ?C?LSTPDATA
  -------         ENDMOD        ?C?LSTPDATA

  -------         MODULE        _GETKEY
  C:992CH         PUBLIC        _GETKEY
  -------         ENDMOD        _GETKEY

Program Size: data=46.3 xdata=219 code=39271
LINK/LOCATE RUN COMPLETE.  0 WARNING(S),  0 ERROR(S)
